ARM GAS  C:\Users\ash750\AppData\Local\Temp\ccFe1BVg.s 			page 1


   1              		.syntax unified
   2              		.cpu cortex-m0
   3              		.fpu softvfp
   4              		.eabi_attribute 20, 1
   5              		.eabi_attribute 21, 1
   6              		.eabi_attribute 23, 3
   7              		.eabi_attribute 24, 1
   8              		.eabi_attribute 25, 1
   9              		.eabi_attribute 26, 1
  10              		.eabi_attribute 30, 1
  11              		.eabi_attribute 34, 0
  12              		.eabi_attribute 18, 4
  13              		.thumb
  14              		.syntax unified
  15              		.file	"CapSense_Filter.c"
  16              		.text
  17              	.Ltext0:
  18              		.cfi_sections	.debug_frame
  19              		.section	.text.CapSense_FtInitializeBaselineChannel,"ax",%progbits
  20              		.align	2
  21              		.global	CapSense_FtInitializeBaselineChannel
  22              		.code	16
  23              		.thumb_func
  24              		.type	CapSense_FtInitializeBaselineChannel, %function
  25              	CapSense_FtInitializeBaselineChannel:
  26              	.LFB9:
  27              		.file 1 "Generated_Source\\PSoC4\\CapSense_Filter.c"
   1:Generated_Source\PSoC4/CapSense_Filter.c **** /***************************************************************************//**
   2:Generated_Source\PSoC4/CapSense_Filter.c **** * \file CapSense_Filter.c
   3:Generated_Source\PSoC4/CapSense_Filter.c **** * \version 7.10
   4:Generated_Source\PSoC4/CapSense_Filter.c **** *
   5:Generated_Source\PSoC4/CapSense_Filter.c **** * \brief
   6:Generated_Source\PSoC4/CapSense_Filter.c **** *   This file contains the implementation source code to implement all
   7:Generated_Source\PSoC4/CapSense_Filter.c **** *   firmware filters.
   8:Generated_Source\PSoC4/CapSense_Filter.c **** *
   9:Generated_Source\PSoC4/CapSense_Filter.c **** * \see CapSense v7.10 Datasheet
  10:Generated_Source\PSoC4/CapSense_Filter.c **** *
  11:Generated_Source\PSoC4/CapSense_Filter.c **** *//*****************************************************************************
  12:Generated_Source\PSoC4/CapSense_Filter.c **** * Copyright (2016-2019), Cypress Semiconductor Corporation.
  13:Generated_Source\PSoC4/CapSense_Filter.c **** ********************************************************************************
  14:Generated_Source\PSoC4/CapSense_Filter.c **** * This software is owned by Cypress Semiconductor Corporation (Cypress) and is
  15:Generated_Source\PSoC4/CapSense_Filter.c **** * protected by and subject to worldwide patent protection (United States and
  16:Generated_Source\PSoC4/CapSense_Filter.c **** * foreign), United States copyright laws and international treaty provisions.
  17:Generated_Source\PSoC4/CapSense_Filter.c **** * Cypress hereby grants to licensee a personal, non-exclusive, non-transferable
  18:Generated_Source\PSoC4/CapSense_Filter.c **** * license to copy, use, modify, create derivative works of, and compile the
  19:Generated_Source\PSoC4/CapSense_Filter.c **** * Cypress Source Code and derivative works for the sole purpose of creating
  20:Generated_Source\PSoC4/CapSense_Filter.c **** * custom software in support of licensee product to be used only in conjunction
  21:Generated_Source\PSoC4/CapSense_Filter.c **** * with a Cypress integrated circuit as specified in the applicable agreement.
  22:Generated_Source\PSoC4/CapSense_Filter.c **** * Any reproduction, modification, translation, compilation, or representation of
  23:Generated_Source\PSoC4/CapSense_Filter.c **** * this software except as specified above is prohibited without the express
  24:Generated_Source\PSoC4/CapSense_Filter.c **** * written permission of Cypress.
  25:Generated_Source\PSoC4/CapSense_Filter.c **** *
  26:Generated_Source\PSoC4/CapSense_Filter.c **** * Disclaimer: CYPRESS MAKES NO WARRANTY OF ANY KIND, EXPRESS OR IMPLIED, WITH
  27:Generated_Source\PSoC4/CapSense_Filter.c **** * REGARD TO THIS MATERIAL, INCLUDING, BUT NOT LIMITED TO, THE IMPLIED
  28:Generated_Source\PSoC4/CapSense_Filter.c **** * WARRANTIES OF MERCHANTABILITY AND FITNESS FOR A PARTICULAR PURPOSE.
  29:Generated_Source\PSoC4/CapSense_Filter.c **** * Cypress reserves the right to make changes without further notice to the
  30:Generated_Source\PSoC4/CapSense_Filter.c **** * materials described herein. Cypress does not assume any liability arising out
ARM GAS  C:\Users\ash750\AppData\Local\Temp\ccFe1BVg.s 			page 2


  31:Generated_Source\PSoC4/CapSense_Filter.c **** * of the application or use of any product or circuit described herein. Cypress
  32:Generated_Source\PSoC4/CapSense_Filter.c **** * does not authorize its products for use as critical components in life-support
  33:Generated_Source\PSoC4/CapSense_Filter.c **** * systems where a malfunction or failure may reasonably be expected to result in
  34:Generated_Source\PSoC4/CapSense_Filter.c **** * significant injury to the user. The inclusion of Cypress' product in a life-
  35:Generated_Source\PSoC4/CapSense_Filter.c **** * support systems application implies that the manufacturer assumes all risk of
  36:Generated_Source\PSoC4/CapSense_Filter.c **** * such use and in doing so indemnifies Cypress against all charges. Use may be
  37:Generated_Source\PSoC4/CapSense_Filter.c **** * limited by and subject to the applicable Cypress software license agreement.
  38:Generated_Source\PSoC4/CapSense_Filter.c **** *******************************************************************************/
  39:Generated_Source\PSoC4/CapSense_Filter.c **** 
  40:Generated_Source\PSoC4/CapSense_Filter.c **** #include "CapSense_Filter.h"
  41:Generated_Source\PSoC4/CapSense_Filter.c **** #include "CapSense_Configuration.h"
  42:Generated_Source\PSoC4/CapSense_Filter.c **** 
  43:Generated_Source\PSoC4/CapSense_Filter.c **** #if (0 != (CapSense_CSD_AUTOTUNE & CapSense_CSD_SS_TH_EN))
  44:Generated_Source\PSoC4/CapSense_Filter.c ****     #include "CapSense_SmartSense_LL.h"
  45:Generated_Source\PSoC4/CapSense_Filter.c **** #endif /* (0 != (CapSense_CSD_AUTOTUNE & CapSense_CSD_SS_TH_EN)) */
  46:Generated_Source\PSoC4/CapSense_Filter.c **** 
  47:Generated_Source\PSoC4/CapSense_Filter.c **** #if (CapSense_ENABLE == CapSense_SELF_TEST_EN)
  48:Generated_Source\PSoC4/CapSense_Filter.c ****     #include "CapSense_SelfTest.h"
  49:Generated_Source\PSoC4/CapSense_Filter.c **** #endif
  50:Generated_Source\PSoC4/CapSense_Filter.c **** 
  51:Generated_Source\PSoC4/CapSense_Filter.c **** /*******************************************************************************
  52:Generated_Source\PSoC4/CapSense_Filter.c **** * Function Name: CapSense_FtInitialize
  53:Generated_Source\PSoC4/CapSense_Filter.c **** ****************************************************************************//**
  54:Generated_Source\PSoC4/CapSense_Filter.c **** *
  55:Generated_Source\PSoC4/CapSense_Filter.c **** * \brief
  56:Generated_Source\PSoC4/CapSense_Filter.c **** *  Initializes all the firmware filter history, except the baseline filter.
  57:Generated_Source\PSoC4/CapSense_Filter.c **** *
  58:Generated_Source\PSoC4/CapSense_Filter.c **** * \details
  59:Generated_Source\PSoC4/CapSense_Filter.c **** *  Initializes all the firmware filter history, except the baseline filter.
  60:Generated_Source\PSoC4/CapSense_Filter.c **** *
  61:Generated_Source\PSoC4/CapSense_Filter.c **** *******************************************************************************/
  62:Generated_Source\PSoC4/CapSense_Filter.c **** void CapSense_FtInitialize(void)
  63:Generated_Source\PSoC4/CapSense_Filter.c **** {
  64:Generated_Source\PSoC4/CapSense_Filter.c ****     #if ((CapSense_ENABLE == CapSense_RC_FILTER_EN) || \
  65:Generated_Source\PSoC4/CapSense_Filter.c ****          (0u != (CapSense_CSD_AUTOTUNE & CapSense_CSD_SS_TH_EN)))
  66:Generated_Source\PSoC4/CapSense_Filter.c ****         CapSense_InitializeAllFilters();
  67:Generated_Source\PSoC4/CapSense_Filter.c ****     #endif /* ((CapSense_ENABLE == CapSense_RC_FILTER_EN) || \
  68:Generated_Source\PSoC4/CapSense_Filter.c ****                (0u != (CapSense_CSD_AUTOTUNE & CapSense_CSD_SS_TH_EN))) */
  69:Generated_Source\PSoC4/CapSense_Filter.c **** }
  70:Generated_Source\PSoC4/CapSense_Filter.c **** 
  71:Generated_Source\PSoC4/CapSense_Filter.c **** 
  72:Generated_Source\PSoC4/CapSense_Filter.c **** /*******************************************************************************
  73:Generated_Source\PSoC4/CapSense_Filter.c **** * Function Name: CapSense_UpdateAllBaselines
  74:Generated_Source\PSoC4/CapSense_Filter.c **** ****************************************************************************//**
  75:Generated_Source\PSoC4/CapSense_Filter.c **** *
  76:Generated_Source\PSoC4/CapSense_Filter.c **** * \brief
  77:Generated_Source\PSoC4/CapSense_Filter.c **** *  Updates the baseline for all the sensors in all the widgets.
  78:Generated_Source\PSoC4/CapSense_Filter.c **** *
  79:Generated_Source\PSoC4/CapSense_Filter.c **** * \details
  80:Generated_Source\PSoC4/CapSense_Filter.c **** *  Updates the baseline for all the sensors in all the widgets. Baseline updating is a
  81:Generated_Source\PSoC4/CapSense_Filter.c **** *  part of data processing performed by the process functions. So, no need to
  82:Generated_Source\PSoC4/CapSense_Filter.c **** *  call this function except a specific process flow is implemented.
  83:Generated_Source\PSoC4/CapSense_Filter.c **** *
  84:Generated_Source\PSoC4/CapSense_Filter.c **** *  This function ignores the value of the wdgtEnable register. Multiple calling
  85:Generated_Source\PSoC4/CapSense_Filter.c **** *  of this function (or any other function with a baseline updating task)
  86:Generated_Source\PSoC4/CapSense_Filter.c **** *  without scanning leads to unexpected behavior.
  87:Generated_Source\PSoC4/CapSense_Filter.c **** *
ARM GAS  C:\Users\ash750\AppData\Local\Temp\ccFe1BVg.s 			page 3


  88:Generated_Source\PSoC4/CapSense_Filter.c **** *  If the Self-test library is enabled, this function executes the baseline duplication
  89:Generated_Source\PSoC4/CapSense_Filter.c **** *  test. Refer to CapSense_CheckBaselineDuplication() for details.
  90:Generated_Source\PSoC4/CapSense_Filter.c **** *
  91:Generated_Source\PSoC4/CapSense_Filter.c **** * \return
  92:Generated_Source\PSoC4/CapSense_Filter.c **** *  Returns the status of the update baseline operation of all the widgets:
  93:Generated_Source\PSoC4/CapSense_Filter.c **** *  - CYRET_SUCCESS - The operation is successfully completed.
  94:Generated_Source\PSoC4/CapSense_Filter.c **** *  - CYRET_BAD_DATA - The baseline processing failed.
  95:Generated_Source\PSoC4/CapSense_Filter.c **** *
  96:Generated_Source\PSoC4/CapSense_Filter.c **** *******************************************************************************/
  97:Generated_Source\PSoC4/CapSense_Filter.c **** cystatus CapSense_UpdateAllBaselines(void)
  98:Generated_Source\PSoC4/CapSense_Filter.c **** {
  99:Generated_Source\PSoC4/CapSense_Filter.c ****     uint32 widgetId;
 100:Generated_Source\PSoC4/CapSense_Filter.c ****     cystatus bslnStatus = CYRET_SUCCESS;
 101:Generated_Source\PSoC4/CapSense_Filter.c **** 
 102:Generated_Source\PSoC4/CapSense_Filter.c ****     for(widgetId = CapSense_TOTAL_WIDGETS; widgetId-- > 0u;)
 103:Generated_Source\PSoC4/CapSense_Filter.c ****     {
 104:Generated_Source\PSoC4/CapSense_Filter.c ****         bslnStatus |= CapSense_UpdateWidgetBaseline(widgetId);
 105:Generated_Source\PSoC4/CapSense_Filter.c ****     }
 106:Generated_Source\PSoC4/CapSense_Filter.c **** 
 107:Generated_Source\PSoC4/CapSense_Filter.c ****     return(bslnStatus);
 108:Generated_Source\PSoC4/CapSense_Filter.c **** }
 109:Generated_Source\PSoC4/CapSense_Filter.c **** 
 110:Generated_Source\PSoC4/CapSense_Filter.c **** 
 111:Generated_Source\PSoC4/CapSense_Filter.c **** /*******************************************************************************
 112:Generated_Source\PSoC4/CapSense_Filter.c **** * Function Name: CapSense_UpdateWidgetBaseline
 113:Generated_Source\PSoC4/CapSense_Filter.c **** ****************************************************************************//**
 114:Generated_Source\PSoC4/CapSense_Filter.c **** *
 115:Generated_Source\PSoC4/CapSense_Filter.c **** * \brief
 116:Generated_Source\PSoC4/CapSense_Filter.c **** *  Updates the baselines for all the sensors in a widget specified by the input
 117:Generated_Source\PSoC4/CapSense_Filter.c **** *  parameter.
 118:Generated_Source\PSoC4/CapSense_Filter.c **** *
 119:Generated_Source\PSoC4/CapSense_Filter.c **** * \details
 120:Generated_Source\PSoC4/CapSense_Filter.c **** *  This function performs exactly the same tasks as
 121:Generated_Source\PSoC4/CapSense_Filter.c **** *  CapSense_UpdateAllBaselines() but only for a specified widget.
 122:Generated_Source\PSoC4/CapSense_Filter.c **** *
 123:Generated_Source\PSoC4/CapSense_Filter.c **** *  This function ignores the value of the wdgtEnable register. Multiple calling
 124:Generated_Source\PSoC4/CapSense_Filter.c **** *  of this function (or any other function with a baseline updating task)
 125:Generated_Source\PSoC4/CapSense_Filter.c **** *  without scanning leads to unexpected behavior.
 126:Generated_Source\PSoC4/CapSense_Filter.c **** *
 127:Generated_Source\PSoC4/CapSense_Filter.c **** *  If the Self-test library is enabled, this function executes the baseline duplication
 128:Generated_Source\PSoC4/CapSense_Filter.c **** *  test. Refer to CapSense_CheckBaselineDuplication() for details.
 129:Generated_Source\PSoC4/CapSense_Filter.c **** *
 130:Generated_Source\PSoC4/CapSense_Filter.c **** * \param widgetId
 131:Generated_Source\PSoC4/CapSense_Filter.c **** *  Specifies the ID number of the widget to update the baseline of all the sensors
 132:Generated_Source\PSoC4/CapSense_Filter.c **** *  in the widget.
 133:Generated_Source\PSoC4/CapSense_Filter.c **** *  A macro for the widget ID can be found in the
 134:Generated_Source\PSoC4/CapSense_Filter.c **** *  CapSense Configuration header file defined as
 135:Generated_Source\PSoC4/CapSense_Filter.c **** *  CapSense_<WidgetName>_WDGT_ID.
 136:Generated_Source\PSoC4/CapSense_Filter.c **** *
 137:Generated_Source\PSoC4/CapSense_Filter.c **** * \return
 138:Generated_Source\PSoC4/CapSense_Filter.c **** *  Returns the status of the specified widget update baseline operation:
 139:Generated_Source\PSoC4/CapSense_Filter.c **** *  - CYRET_SUCCESS - The operation is successfully completed.
 140:Generated_Source\PSoC4/CapSense_Filter.c **** *  - CYRET_BAD_DATA - The baseline processing is failed.
 141:Generated_Source\PSoC4/CapSense_Filter.c **** *
 142:Generated_Source\PSoC4/CapSense_Filter.c **** *******************************************************************************/
 143:Generated_Source\PSoC4/CapSense_Filter.c **** cystatus CapSense_UpdateWidgetBaseline(uint32 widgetId)
 144:Generated_Source\PSoC4/CapSense_Filter.c **** {
ARM GAS  C:\Users\ash750\AppData\Local\Temp\ccFe1BVg.s 			page 4


 145:Generated_Source\PSoC4/CapSense_Filter.c ****     uint32 sensorId;
 146:Generated_Source\PSoC4/CapSense_Filter.c ****     uint32 sensorsNumber;
 147:Generated_Source\PSoC4/CapSense_Filter.c **** 
 148:Generated_Source\PSoC4/CapSense_Filter.c ****     CapSense_FLASH_WD_STRUCT const *ptrWidget = &CapSense_dsFlash.wdgtArray[widgetId];
 149:Generated_Source\PSoC4/CapSense_Filter.c ****     cystatus bslnStatus = CYRET_SUCCESS;
 150:Generated_Source\PSoC4/CapSense_Filter.c **** 
 151:Generated_Source\PSoC4/CapSense_Filter.c ****     /* Find total amount of sensors in specified widget */
 152:Generated_Source\PSoC4/CapSense_Filter.c ****     sensorsNumber = CapSense_GET_SNS_CNT_BY_PTR(ptrWidget);
 153:Generated_Source\PSoC4/CapSense_Filter.c **** 
 154:Generated_Source\PSoC4/CapSense_Filter.c ****     for(sensorId = sensorsNumber; sensorId-- > 0u;)
 155:Generated_Source\PSoC4/CapSense_Filter.c ****     {
 156:Generated_Source\PSoC4/CapSense_Filter.c ****         bslnStatus |= CapSense_UpdateSensorBaseline(widgetId, sensorId);
 157:Generated_Source\PSoC4/CapSense_Filter.c ****     }
 158:Generated_Source\PSoC4/CapSense_Filter.c **** 
 159:Generated_Source\PSoC4/CapSense_Filter.c ****     return(bslnStatus);
 160:Generated_Source\PSoC4/CapSense_Filter.c **** }
 161:Generated_Source\PSoC4/CapSense_Filter.c **** 
 162:Generated_Source\PSoC4/CapSense_Filter.c **** 
 163:Generated_Source\PSoC4/CapSense_Filter.c **** /*******************************************************************************
 164:Generated_Source\PSoC4/CapSense_Filter.c **** * Function Name: CapSense_UpdateSensorBaseline
 165:Generated_Source\PSoC4/CapSense_Filter.c **** ****************************************************************************//**
 166:Generated_Source\PSoC4/CapSense_Filter.c **** *
 167:Generated_Source\PSoC4/CapSense_Filter.c **** * \brief
 168:Generated_Source\PSoC4/CapSense_Filter.c **** *  Updates the baseline for a sensor in a widget specified by the input parameters.
 169:Generated_Source\PSoC4/CapSense_Filter.c **** *
 170:Generated_Source\PSoC4/CapSense_Filter.c **** * \details
 171:Generated_Source\PSoC4/CapSense_Filter.c **** *  This function performs exactly the same tasks as
 172:Generated_Source\PSoC4/CapSense_Filter.c **** *  CapSense_UpdateAllBaselines() and
 173:Generated_Source\PSoC4/CapSense_Filter.c **** *  CapSense_UpdateWidgetBaseline() but only for a specified sensor.
 174:Generated_Source\PSoC4/CapSense_Filter.c **** *
 175:Generated_Source\PSoC4/CapSense_Filter.c **** *  This function ignores the value of the wdgtEnable register. Multiple calling
 176:Generated_Source\PSoC4/CapSense_Filter.c **** *  of this function (or any other function with a baseline updating task)
 177:Generated_Source\PSoC4/CapSense_Filter.c **** *  without scanning leads to unexpected behavior.
 178:Generated_Source\PSoC4/CapSense_Filter.c **** *
 179:Generated_Source\PSoC4/CapSense_Filter.c **** *  If the Self-test library is enabled, this function executes the baseline duplication
 180:Generated_Source\PSoC4/CapSense_Filter.c **** *  test. Refer to CapSense_CheckBaselineDuplication() for details.
 181:Generated_Source\PSoC4/CapSense_Filter.c **** *
 182:Generated_Source\PSoC4/CapSense_Filter.c **** * \param widgetId
 183:Generated_Source\PSoC4/CapSense_Filter.c **** *  Specifies the ID number of the widget to update the baseline of the sensor
 184:Generated_Source\PSoC4/CapSense_Filter.c **** *  specified by the sensorId argument.
 185:Generated_Source\PSoC4/CapSense_Filter.c **** *  A macro for the widget ID can be found in the CapSense Configuration header
 186:Generated_Source\PSoC4/CapSense_Filter.c **** *  file defined as CapSense_<WidgetName>_WDGT_ID.
 187:Generated_Source\PSoC4/CapSense_Filter.c **** *
 188:Generated_Source\PSoC4/CapSense_Filter.c **** * \param sensorId
 189:Generated_Source\PSoC4/CapSense_Filter.c **** *  Specifies the ID number of the sensor within the widget to update its baseline.
 190:Generated_Source\PSoC4/CapSense_Filter.c **** *  A macro for the sensor ID within a specified widget can be found in the
 191:Generated_Source\PSoC4/CapSense_Filter.c **** *  CapSense Configuration header file defined as
 192:Generated_Source\PSoC4/CapSense_Filter.c **** *  CapSense_<WidgetName>_SNS<SensorNumber>_ID.
 193:Generated_Source\PSoC4/CapSense_Filter.c **** *
 194:Generated_Source\PSoC4/CapSense_Filter.c **** * \return
 195:Generated_Source\PSoC4/CapSense_Filter.c **** *  Returns the status of the specified sensor update baseline operation:
 196:Generated_Source\PSoC4/CapSense_Filter.c **** *  - CYRET_SUCCESS - The operation is successfully completed.
 197:Generated_Source\PSoC4/CapSense_Filter.c **** *  - CYRET_BAD_DATA - The baseline processing failed.
 198:Generated_Source\PSoC4/CapSense_Filter.c **** *
 199:Generated_Source\PSoC4/CapSense_Filter.c **** *******************************************************************************/
 200:Generated_Source\PSoC4/CapSense_Filter.c **** cystatus CapSense_UpdateSensorBaseline(uint32 widgetId, uint32 sensorId)
 201:Generated_Source\PSoC4/CapSense_Filter.c **** {
ARM GAS  C:\Users\ash750\AppData\Local\Temp\ccFe1BVg.s 			page 5


 202:Generated_Source\PSoC4/CapSense_Filter.c ****     uint32 result = CYRET_SUCCESS;
 203:Generated_Source\PSoC4/CapSense_Filter.c **** 
 204:Generated_Source\PSoC4/CapSense_Filter.c ****     CapSense_RAM_SNS_STRUCT *ptrSensor = NULL;
 205:Generated_Source\PSoC4/CapSense_Filter.c ****     CapSense_FLASH_WD_STRUCT const *ptrWidget = &CapSense_dsFlash.wdgtArray[widgetId];
 206:Generated_Source\PSoC4/CapSense_Filter.c ****     CapSense_RAM_WD_BASE_STRUCT *ptrWidgetRam = (CapSense_RAM_WD_BASE_STRUCT *)ptrWidget->ptr2WdgtR
 207:Generated_Source\PSoC4/CapSense_Filter.c **** 
 208:Generated_Source\PSoC4/CapSense_Filter.c ****     /* Find pointer to specified sensor object */
 209:Generated_Source\PSoC4/CapSense_Filter.c ****     ptrSensor = ptrWidget->ptr2SnsRam;
 210:Generated_Source\PSoC4/CapSense_Filter.c ****     ptrSensor = &ptrSensor[sensorId];
 211:Generated_Source\PSoC4/CapSense_Filter.c ****     result = CapSense_FtUpdateBaseline(ptrWidgetRam, ptrSensor, (uint32)ptrWidget->wdgtType);
 212:Generated_Source\PSoC4/CapSense_Filter.c **** 
 213:Generated_Source\PSoC4/CapSense_Filter.c ****     #if (CapSense_ENABLE == CapSense_TST_BSLN_DUPLICATION_EN)
 214:Generated_Source\PSoC4/CapSense_Filter.c ****         if (CYRET_SUCCESS != result)
 215:Generated_Source\PSoC4/CapSense_Filter.c ****         {
 216:Generated_Source\PSoC4/CapSense_Filter.c ****             result = CYRET_BAD_DATA;
 217:Generated_Source\PSoC4/CapSense_Filter.c ****             CapSense_UpdateTestResultBaselineDuplication(widgetId, sensorId);
 218:Generated_Source\PSoC4/CapSense_Filter.c ****         }
 219:Generated_Source\PSoC4/CapSense_Filter.c ****     #endif /* (CapSense_ENABLE == CapSense_TST_BSLN_DUPLICATION_EN) */
 220:Generated_Source\PSoC4/CapSense_Filter.c **** 
 221:Generated_Source\PSoC4/CapSense_Filter.c ****     return result;
 222:Generated_Source\PSoC4/CapSense_Filter.c **** }
 223:Generated_Source\PSoC4/CapSense_Filter.c **** 
 224:Generated_Source\PSoC4/CapSense_Filter.c **** /*******************************************************************************
 225:Generated_Source\PSoC4/CapSense_Filter.c **** * Function Name: CapSense_FtUpdateBaseline
 226:Generated_Source\PSoC4/CapSense_Filter.c **** ****************************************************************************//**
 227:Generated_Source\PSoC4/CapSense_Filter.c **** *
 228:Generated_Source\PSoC4/CapSense_Filter.c **** * \brief
 229:Generated_Source\PSoC4/CapSense_Filter.c **** *  Updates the baseline for a sensor specified by an input parameter.
 230:Generated_Source\PSoC4/CapSense_Filter.c **** *
 231:Generated_Source\PSoC4/CapSense_Filter.c **** * \details
 232:Generated_Source\PSoC4/CapSense_Filter.c **** *  Check a matching of present baseline and its inverse duplication. If they
 233:Generated_Source\PSoC4/CapSense_Filter.c **** *  match then updates the baseline for a sensor specified by an input parameter.
 234:Generated_Source\PSoC4/CapSense_Filter.c **** *  If don't match the function return CapSense_TST_BSLN_DUPLICATION
 235:Generated_Source\PSoC4/CapSense_Filter.c **** *  result and don't update baseline.
 236:Generated_Source\PSoC4/CapSense_Filter.c **** *
 237:Generated_Source\PSoC4/CapSense_Filter.c **** * \param ptrWidgetRam
 238:Generated_Source\PSoC4/CapSense_Filter.c **** *  The pointer to the widget RAM structure where all the widget parameters
 239:Generated_Source\PSoC4/CapSense_Filter.c **** *  are stored.
 240:Generated_Source\PSoC4/CapSense_Filter.c **** *
 241:Generated_Source\PSoC4/CapSense_Filter.c **** * \param ptrSensor
 242:Generated_Source\PSoC4/CapSense_Filter.c **** *  The pointer to the sensor RAM structure where all the sensor parameters
 243:Generated_Source\PSoC4/CapSense_Filter.c **** *  are stored.
 244:Generated_Source\PSoC4/CapSense_Filter.c **** *
 245:Generated_Source\PSoC4/CapSense_Filter.c **** * \param wdType
 246:Generated_Source\PSoC4/CapSense_Filter.c **** *  Specifies the type of a widget.
 247:Generated_Source\PSoC4/CapSense_Filter.c **** *
 248:Generated_Source\PSoC4/CapSense_Filter.c **** * \return
 249:Generated_Source\PSoC4/CapSense_Filter.c **** *  Returns a status indicating whether the baseline has been updated:
 250:Generated_Source\PSoC4/CapSense_Filter.c **** *  - CYRET_SUCCESS if baseline updating was successful.
 251:Generated_Source\PSoC4/CapSense_Filter.c **** *  - CapSense_PROCESS_BASELINE_FAILED if present sensor's any channel
 252:Generated_Source\PSoC4/CapSense_Filter.c **** *    baseline and its inversion doesn't matched.
 253:Generated_Source\PSoC4/CapSense_Filter.c **** *
 254:Generated_Source\PSoC4/CapSense_Filter.c **** *******************************************************************************/
 255:Generated_Source\PSoC4/CapSense_Filter.c **** uint32 CapSense_FtUpdateBaseline(
 256:Generated_Source\PSoC4/CapSense_Filter.c ****                                 CapSense_RAM_WD_BASE_STRUCT *ptrWidgetRam,
 257:Generated_Source\PSoC4/CapSense_Filter.c ****                                 CapSense_RAM_SNS_STRUCT *ptrSensor,
 258:Generated_Source\PSoC4/CapSense_Filter.c ****                                 uint32 wdType)
ARM GAS  C:\Users\ash750\AppData\Local\Temp\ccFe1BVg.s 			page 6


 259:Generated_Source\PSoC4/CapSense_Filter.c **** {
 260:Generated_Source\PSoC4/CapSense_Filter.c ****     uint32 sign;
 261:Generated_Source\PSoC4/CapSense_Filter.c ****     uint32 difference;
 262:Generated_Source\PSoC4/CapSense_Filter.c ****     uint32 freqChannel;
 263:Generated_Source\PSoC4/CapSense_Filter.c ****     uint32 baselineCoeff;
 264:Generated_Source\PSoC4/CapSense_Filter.c ****     uint32 result = CYRET_SUCCESS;
 265:Generated_Source\PSoC4/CapSense_Filter.c **** 
 266:Generated_Source\PSoC4/CapSense_Filter.c ****     #if (CapSense_TOTAL_WIDGETS)
 267:Generated_Source\PSoC4/CapSense_Filter.c ****         uint32 history;
 268:Generated_Source\PSoC4/CapSense_Filter.c ****     #endif /* (CapSense_TOTAL_WIDGETS) */
 269:Generated_Source\PSoC4/CapSense_Filter.c **** 
 270:Generated_Source\PSoC4/CapSense_Filter.c ****     /* Apply baseline to every channel in sensor */
 271:Generated_Source\PSoC4/CapSense_Filter.c ****     for(freqChannel = CapSense_NUM_SCAN_FREQS; freqChannel-- > 0u;)
 272:Generated_Source\PSoC4/CapSense_Filter.c ****     {
 273:Generated_Source\PSoC4/CapSense_Filter.c ****         #if (CapSense_ENABLE == CapSense_TST_BSLN_DUPLICATION_EN)
 274:Generated_Source\PSoC4/CapSense_Filter.c ****             if (ptrSensor->bslnInv[freqChannel] != ((uint16) ~(ptrSensor->bsln[freqChannel])))
 275:Generated_Source\PSoC4/CapSense_Filter.c ****             {
 276:Generated_Source\PSoC4/CapSense_Filter.c ****                 result = CapSense_PROCESS_BASELINE_FAILED;
 277:Generated_Source\PSoC4/CapSense_Filter.c ****             }
 278:Generated_Source\PSoC4/CapSense_Filter.c ****             else
 279:Generated_Source\PSoC4/CapSense_Filter.c ****             {
 280:Generated_Source\PSoC4/CapSense_Filter.c ****         #endif /* (CapSense_ENABLE == CapSense_TST_BSLN_DUPLICATION_EN) */
 281:Generated_Source\PSoC4/CapSense_Filter.c **** 
 282:Generated_Source\PSoC4/CapSense_Filter.c ****         /* Calculate signal value and its sign */
 283:Generated_Source\PSoC4/CapSense_Filter.c ****         if(ptrSensor->raw[freqChannel] >= ptrSensor->bsln[freqChannel])
 284:Generated_Source\PSoC4/CapSense_Filter.c ****         {
 285:Generated_Source\PSoC4/CapSense_Filter.c ****             difference = (uint32)ptrSensor->raw[freqChannel] - (uint32)ptrSensor->bsln[freqChannel]
 286:Generated_Source\PSoC4/CapSense_Filter.c ****             sign = 1u;
 287:Generated_Source\PSoC4/CapSense_Filter.c ****             ptrSensor->negBslnRstCnt[freqChannel] = 0u;
 288:Generated_Source\PSoC4/CapSense_Filter.c ****         }
 289:Generated_Source\PSoC4/CapSense_Filter.c ****         else
 290:Generated_Source\PSoC4/CapSense_Filter.c ****         {
 291:Generated_Source\PSoC4/CapSense_Filter.c ****             difference = (uint32)ptrSensor->bsln[freqChannel] - (uint32)ptrSensor->raw[freqChannel]
 292:Generated_Source\PSoC4/CapSense_Filter.c ****             sign = 0u;
 293:Generated_Source\PSoC4/CapSense_Filter.c ****         }
 294:Generated_Source\PSoC4/CapSense_Filter.c **** 
 295:Generated_Source\PSoC4/CapSense_Filter.c ****         /* Reset baseline if condition is met */
 296:Generated_Source\PSoC4/CapSense_Filter.c ****         if((sign == 0u) && (difference > (uint32) ptrWidgetRam->nNoiseTh))
 297:Generated_Source\PSoC4/CapSense_Filter.c ****         {
 298:Generated_Source\PSoC4/CapSense_Filter.c ****             if(ptrSensor->negBslnRstCnt[freqChannel] >= ptrWidgetRam->lowBslnRst)
 299:Generated_Source\PSoC4/CapSense_Filter.c ****             {
 300:Generated_Source\PSoC4/CapSense_Filter.c ****                 CapSense_FtInitializeBaselineChannel(ptrSensor, wdType, freqChannel);
 301:Generated_Source\PSoC4/CapSense_Filter.c ****             }
 302:Generated_Source\PSoC4/CapSense_Filter.c ****             else
 303:Generated_Source\PSoC4/CapSense_Filter.c ****             {
 304:Generated_Source\PSoC4/CapSense_Filter.c ****                 ptrSensor->negBslnRstCnt[freqChannel]++;
 305:Generated_Source\PSoC4/CapSense_Filter.c ****             }
 306:Generated_Source\PSoC4/CapSense_Filter.c ****         }
 307:Generated_Source\PSoC4/CapSense_Filter.c ****         else
 308:Generated_Source\PSoC4/CapSense_Filter.c ****         {
 309:Generated_Source\PSoC4/CapSense_Filter.c ****             #if (!CapSense_SENSOR_AUTO_RESET_EN)
 310:Generated_Source\PSoC4/CapSense_Filter.c ****                 /* Update baseline only if signal is in range between noiseThreshold and negativeno
 311:Generated_Source\PSoC4/CapSense_Filter.c ****                 if ((difference <= (uint32)ptrWidgetRam->noiseTh) ||
 312:Generated_Source\PSoC4/CapSense_Filter.c ****                     ((difference <= (uint32) ptrWidgetRam->nNoiseTh) && (sign == 0u)))
 313:Generated_Source\PSoC4/CapSense_Filter.c ****                 {
 314:Generated_Source\PSoC4/CapSense_Filter.c ****             #endif /* (CapSense_CSD_AUTO_RESET == CapSense_CSD_AUTO_RESET_DISABLE) */
 315:Generated_Source\PSoC4/CapSense_Filter.c **** 
ARM GAS  C:\Users\ash750\AppData\Local\Temp\ccFe1BVg.s 			page 7


 316:Generated_Source\PSoC4/CapSense_Filter.c ****             #if (CapSense_BASELINE_TYPE == CapSense_IIR_BASELINE)
 317:Generated_Source\PSoC4/CapSense_Filter.c ****                 /* Calculate baseline value */
 318:Generated_Source\PSoC4/CapSense_Filter.c ****                 if ((CapSense_WD_TYPE_ENUM)wdType != CapSense_WD_PROXIMITY_E)
 319:Generated_Source\PSoC4/CapSense_Filter.c ****                 {
 320:Generated_Source\PSoC4/CapSense_Filter.c ****                     #if (CapSense_REGULAR_SENSOR_EN)
 321:Generated_Source\PSoC4/CapSense_Filter.c ****                         #if (CapSense_REGULAR_IIR_BL_TYPE == CapSense_IIR_FILTER_PERFORMANCE)
 322:Generated_Source\PSoC4/CapSense_Filter.c ****                             history = (uint32) ptrSensor->bsln[freqChannel] << 8u;
 323:Generated_Source\PSoC4/CapSense_Filter.c ****                             history |= ptrSensor->bslnExt[freqChannel];
 324:Generated_Source\PSoC4/CapSense_Filter.c ****                         #else
 325:Generated_Source\PSoC4/CapSense_Filter.c ****                             history = ptrSensor->bsln[freqChannel];
 326:Generated_Source\PSoC4/CapSense_Filter.c ****                         #endif /* (CapSense_REGULAR_IIR_BL_TYPE == CapSense_IIR_FILTER_PERFORMANCE)
 327:Generated_Source\PSoC4/CapSense_Filter.c **** 
 328:Generated_Source\PSoC4/CapSense_Filter.c ****                         #if (CapSense_ENABLE == CapSense_WD_BSLN_COEFF_EN)
 329:Generated_Source\PSoC4/CapSense_Filter.c ****                             baselineCoeff = ptrWidgetRam->bslnCoeff;
 330:Generated_Source\PSoC4/CapSense_Filter.c ****                         #else /* (CapSense_ENABLE == CapSense_WD_BSLN_COEFF_EN) */
 331:Generated_Source\PSoC4/CapSense_Filter.c ****                             baselineCoeff = CapSense_REGULAR_IIR_BL_N;
 332:Generated_Source\PSoC4/CapSense_Filter.c ****                         #endif /* (CapSense_ENABLE == CapSense_WD_BSLN_COEFF_EN) */
 333:Generated_Source\PSoC4/CapSense_Filter.c **** 
 334:Generated_Source\PSoC4/CapSense_Filter.c ****                         history =  CapSense_FtIIR1stOrder(
 335:Generated_Source\PSoC4/CapSense_Filter.c ****                                         (uint32)ptrSensor->raw[freqChannel],
 336:Generated_Source\PSoC4/CapSense_Filter.c ****                                         history, baselineCoeff,
 337:Generated_Source\PSoC4/CapSense_Filter.c ****                                         CapSense_REGULAR_IIR_BL_SHIFT);
 338:Generated_Source\PSoC4/CapSense_Filter.c **** 
 339:Generated_Source\PSoC4/CapSense_Filter.c ****                         #if (CapSense_REGULAR_IIR_BL_TYPE == CapSense_IIR_FILTER_PERFORMANCE)
 340:Generated_Source\PSoC4/CapSense_Filter.c ****                             ptrSensor->bsln[freqChannel] = LO16(history >> 8u);
 341:Generated_Source\PSoC4/CapSense_Filter.c ****                             ptrSensor->bslnExt[freqChannel] = LO8(history);
 342:Generated_Source\PSoC4/CapSense_Filter.c ****                         #else
 343:Generated_Source\PSoC4/CapSense_Filter.c ****                             ptrSensor->bsln[freqChannel] = LO16(history);
 344:Generated_Source\PSoC4/CapSense_Filter.c ****                         #endif /* (CapSense_REGULAR_IIR_BL_TYPE == CapSense_IIR_FILTER_PERFORMANCE)
 345:Generated_Source\PSoC4/CapSense_Filter.c ****                     #endif /* (CapSense_REGULAR_SENSOR_EN) */
 346:Generated_Source\PSoC4/CapSense_Filter.c ****                 }
 347:Generated_Source\PSoC4/CapSense_Filter.c ****                 else
 348:Generated_Source\PSoC4/CapSense_Filter.c ****                 {
 349:Generated_Source\PSoC4/CapSense_Filter.c ****                     #if (CapSense_PROXIMITY_SENSOR_EN)
 350:Generated_Source\PSoC4/CapSense_Filter.c ****                         #if (CapSense_PROX_IIR_BL_TYPE == CapSense_IIR_FILTER_PERFORMANCE)
 351:Generated_Source\PSoC4/CapSense_Filter.c ****                             history = (uint32) ptrSensor->bsln[freqChannel] << 8u;
 352:Generated_Source\PSoC4/CapSense_Filter.c ****                             history |= ptrSensor->bslnExt[freqChannel];
 353:Generated_Source\PSoC4/CapSense_Filter.c ****                         #else
 354:Generated_Source\PSoC4/CapSense_Filter.c ****                             history = (uint32) ptrSensor->bsln[freqChannel];
 355:Generated_Source\PSoC4/CapSense_Filter.c ****                         #endif /* (CapSense_PROX_IIR_BL_TYPE == CapSense_IIR_FILTER_PERFORMANCE) */
 356:Generated_Source\PSoC4/CapSense_Filter.c **** 
 357:Generated_Source\PSoC4/CapSense_Filter.c ****                         #if (CapSense_ENABLE == CapSense_WD_BSLN_COEFF_EN)
 358:Generated_Source\PSoC4/CapSense_Filter.c ****                             baselineCoeff = ptrWidgetRam->bslnCoeff;
 359:Generated_Source\PSoC4/CapSense_Filter.c ****                         #else /* (CapSense_ENABLE == CapSense_WD_BSLN_COEFF_EN) */
 360:Generated_Source\PSoC4/CapSense_Filter.c ****                             baselineCoeff = CapSense_PROX_IIR_BL_N;
 361:Generated_Source\PSoC4/CapSense_Filter.c ****                         #endif /* (CapSense_ENABLE == CapSense_WD_BSLN_COEFF_EN) */
 362:Generated_Source\PSoC4/CapSense_Filter.c **** 
 363:Generated_Source\PSoC4/CapSense_Filter.c ****                         history = CapSense_FtIIR1stOrder(
 364:Generated_Source\PSoC4/CapSense_Filter.c ****                                         (uint32)ptrSensor->raw[freqChannel],
 365:Generated_Source\PSoC4/CapSense_Filter.c ****                                         history, baselineCoeff,
 366:Generated_Source\PSoC4/CapSense_Filter.c ****                                         CapSense_PROX_IIR_BL_SHIFT);
 367:Generated_Source\PSoC4/CapSense_Filter.c **** 
 368:Generated_Source\PSoC4/CapSense_Filter.c ****                         #if (CapSense_PROX_IIR_BL_TYPE == CapSense_IIR_FILTER_PERFORMANCE)
 369:Generated_Source\PSoC4/CapSense_Filter.c ****                             ptrSensor->bsln[freqChannel] = LO16(history >> 8u);
 370:Generated_Source\PSoC4/CapSense_Filter.c ****                             ptrSensor->bslnExt[freqChannel] = LO8(history);
 371:Generated_Source\PSoC4/CapSense_Filter.c ****                         #else
 372:Generated_Source\PSoC4/CapSense_Filter.c ****                             ptrSensor->bsln[freqChannel] = LO16(history);
ARM GAS  C:\Users\ash750\AppData\Local\Temp\ccFe1BVg.s 			page 8


 373:Generated_Source\PSoC4/CapSense_Filter.c ****                         #endif /* (CapSense_PROX_IIR_BL_TYPE == CapSense_IIR_FILTER_PERFORMANCE) */
 374:Generated_Source\PSoC4/CapSense_Filter.c ****                     #endif /* (CapSense_PROX_SENSOR_EN) */
 375:Generated_Source\PSoC4/CapSense_Filter.c ****                 }
 376:Generated_Source\PSoC4/CapSense_Filter.c ****             #else /* (CapSense_CSD_BASELINE_TYPE == CapSense_IIR_BASELINE) */
 377:Generated_Source\PSoC4/CapSense_Filter.c **** 
 378:Generated_Source\PSoC4/CapSense_Filter.c ****                 /******************************************************************
 379:Generated_Source\PSoC4/CapSense_Filter.c ****                 * This is the place where the bucket algorithm should be implemented.
 380:Generated_Source\PSoC4/CapSense_Filter.c ****                 * The bucket method will be implemented in future Component version.
 381:Generated_Source\PSoC4/CapSense_Filter.c ****                 *******************************************************************/
 382:Generated_Source\PSoC4/CapSense_Filter.c **** 
 383:Generated_Source\PSoC4/CapSense_Filter.c ****             #endif /* (CapSense_CSD_BASELINE_TYPE == CapSense_IIR_BASELINE) */
 384:Generated_Source\PSoC4/CapSense_Filter.c **** 
 385:Generated_Source\PSoC4/CapSense_Filter.c ****             #if (!CapSense_SENSOR_AUTO_RESET_EN)
 386:Generated_Source\PSoC4/CapSense_Filter.c ****                 }
 387:Generated_Source\PSoC4/CapSense_Filter.c ****             #endif /* (!CapSense_SENSOR_AUTO_RESET_EN) */
 388:Generated_Source\PSoC4/CapSense_Filter.c ****         }
 389:Generated_Source\PSoC4/CapSense_Filter.c **** 
 390:Generated_Source\PSoC4/CapSense_Filter.c ****         #if (CapSense_ENABLE == CapSense_TST_BSLN_DUPLICATION_EN)
 391:Generated_Source\PSoC4/CapSense_Filter.c ****             /* Update baseline inversion of every channel in sensor */
 392:Generated_Source\PSoC4/CapSense_Filter.c ****             ptrSensor->bslnInv[freqChannel] = ~(ptrSensor->bsln[freqChannel]);
 393:Generated_Source\PSoC4/CapSense_Filter.c ****             }
 394:Generated_Source\PSoC4/CapSense_Filter.c ****         #endif /* (CapSense_ENABLE == CapSense_TST_BSLN_DUPLICATION_EN) */
 395:Generated_Source\PSoC4/CapSense_Filter.c **** 
 396:Generated_Source\PSoC4/CapSense_Filter.c ****     }
 397:Generated_Source\PSoC4/CapSense_Filter.c ****     return result;
 398:Generated_Source\PSoC4/CapSense_Filter.c **** }
 399:Generated_Source\PSoC4/CapSense_Filter.c **** 
 400:Generated_Source\PSoC4/CapSense_Filter.c **** 
 401:Generated_Source\PSoC4/CapSense_Filter.c **** /*******************************************************************************
 402:Generated_Source\PSoC4/CapSense_Filter.c **** * Function Name: CapSense_InitializeAllBaselines
 403:Generated_Source\PSoC4/CapSense_Filter.c **** ****************************************************************************//**
 404:Generated_Source\PSoC4/CapSense_Filter.c **** *
 405:Generated_Source\PSoC4/CapSense_Filter.c **** * \brief
 406:Generated_Source\PSoC4/CapSense_Filter.c **** *  Initializes (or re-initializes) the baselines of all the sensors of all the widgets.
 407:Generated_Source\PSoC4/CapSense_Filter.c **** *
 408:Generated_Source\PSoC4/CapSense_Filter.c **** * \details
 409:Generated_Source\PSoC4/CapSense_Filter.c **** *  Initializes the baseline for all the sensors of all the widgets. Also, this function
 410:Generated_Source\PSoC4/CapSense_Filter.c **** *  can be used to re-initialize baselines. CapSense_Start() calls this
 411:Generated_Source\PSoC4/CapSense_Filter.c **** *  API as part of CapSense operation initialization.
 412:Generated_Source\PSoC4/CapSense_Filter.c **** *
 413:Generated_Source\PSoC4/CapSense_Filter.c **** *  If any raw count filter is enabled, make sure the raw count filter history is
 414:Generated_Source\PSoC4/CapSense_Filter.c **** *  initialized as well using one of these functions:
 415:Generated_Source\PSoC4/CapSense_Filter.c **** *  - CapSense_InitializeAllFilters().
 416:Generated_Source\PSoC4/CapSense_Filter.c **** *  - CapSense_InitializeWidgetFilter().
 417:Generated_Source\PSoC4/CapSense_Filter.c **** *
 418:Generated_Source\PSoC4/CapSense_Filter.c **** *******************************************************************************/
 419:Generated_Source\PSoC4/CapSense_Filter.c **** void CapSense_InitializeAllBaselines(void)
 420:Generated_Source\PSoC4/CapSense_Filter.c **** {
 421:Generated_Source\PSoC4/CapSense_Filter.c ****     uint32 widgetId;
 422:Generated_Source\PSoC4/CapSense_Filter.c **** 
 423:Generated_Source\PSoC4/CapSense_Filter.c ****     for(widgetId = CapSense_TOTAL_WIDGETS; widgetId-- > 0u;)
 424:Generated_Source\PSoC4/CapSense_Filter.c ****     {
 425:Generated_Source\PSoC4/CapSense_Filter.c ****         CapSense_InitializeWidgetBaseline(widgetId);
 426:Generated_Source\PSoC4/CapSense_Filter.c ****     }
 427:Generated_Source\PSoC4/CapSense_Filter.c **** }
 428:Generated_Source\PSoC4/CapSense_Filter.c **** 
 429:Generated_Source\PSoC4/CapSense_Filter.c **** 
ARM GAS  C:\Users\ash750\AppData\Local\Temp\ccFe1BVg.s 			page 9


 430:Generated_Source\PSoC4/CapSense_Filter.c **** /*******************************************************************************
 431:Generated_Source\PSoC4/CapSense_Filter.c **** * Function Name: CapSense_InitializeWidgetBaseline
 432:Generated_Source\PSoC4/CapSense_Filter.c **** ****************************************************************************//**
 433:Generated_Source\PSoC4/CapSense_Filter.c **** *
 434:Generated_Source\PSoC4/CapSense_Filter.c **** * \brief
 435:Generated_Source\PSoC4/CapSense_Filter.c **** *  Initializes (or re-initializes) the baselines of all the sensors in a widget
 436:Generated_Source\PSoC4/CapSense_Filter.c **** *  specified by the input parameter.
 437:Generated_Source\PSoC4/CapSense_Filter.c **** *
 438:Generated_Source\PSoC4/CapSense_Filter.c **** * \details
 439:Generated_Source\PSoC4/CapSense_Filter.c **** *  Initializes (or re-initializes) the baseline for all the sensors of the
 440:Generated_Source\PSoC4/CapSense_Filter.c **** *  specified widget.
 441:Generated_Source\PSoC4/CapSense_Filter.c **** *
 442:Generated_Source\PSoC4/CapSense_Filter.c **** *  If any raw count filter is enabled, make sure the raw count filter history is
 443:Generated_Source\PSoC4/CapSense_Filter.c **** *  initialized as well using one of these functions:
 444:Generated_Source\PSoC4/CapSense_Filter.c **** *  - CapSense_InitializeAllFilters().
 445:Generated_Source\PSoC4/CapSense_Filter.c **** *  - CapSense_InitializeWidgetFilter().
 446:Generated_Source\PSoC4/CapSense_Filter.c **** *
 447:Generated_Source\PSoC4/CapSense_Filter.c **** * \param widgetId
 448:Generated_Source\PSoC4/CapSense_Filter.c **** *  Specifies the ID number of a widget to initialize the baseline of all the sensors
 449:Generated_Source\PSoC4/CapSense_Filter.c **** *  in the widget.
 450:Generated_Source\PSoC4/CapSense_Filter.c **** *  A macro for the widget ID can be found in the
 451:Generated_Source\PSoC4/CapSense_Filter.c **** *  CapSense Configuration header file defined as
 452:Generated_Source\PSoC4/CapSense_Filter.c **** *  CapSense_<WidgetName>_WDGT_ID.
 453:Generated_Source\PSoC4/CapSense_Filter.c **** *
 454:Generated_Source\PSoC4/CapSense_Filter.c **** *******************************************************************************/
 455:Generated_Source\PSoC4/CapSense_Filter.c **** void CapSense_InitializeWidgetBaseline(uint32 widgetId)
 456:Generated_Source\PSoC4/CapSense_Filter.c **** {
 457:Generated_Source\PSoC4/CapSense_Filter.c ****     uint32 sensorId;
 458:Generated_Source\PSoC4/CapSense_Filter.c ****     uint32 sensorsNumber;
 459:Generated_Source\PSoC4/CapSense_Filter.c **** 
 460:Generated_Source\PSoC4/CapSense_Filter.c ****     CapSense_FLASH_WD_STRUCT const *ptrWidget = &CapSense_dsFlash.wdgtArray[widgetId];
 461:Generated_Source\PSoC4/CapSense_Filter.c **** 
 462:Generated_Source\PSoC4/CapSense_Filter.c ****     /* Find total amount of sensors in specified widget */
 463:Generated_Source\PSoC4/CapSense_Filter.c ****     sensorsNumber = CapSense_GET_SNS_CNT_BY_PTR(ptrWidget);
 464:Generated_Source\PSoC4/CapSense_Filter.c **** 
 465:Generated_Source\PSoC4/CapSense_Filter.c ****     for(sensorId = sensorsNumber; sensorId-- > 0u;)
 466:Generated_Source\PSoC4/CapSense_Filter.c ****     {
 467:Generated_Source\PSoC4/CapSense_Filter.c ****         CapSense_InitializeSensorBaseline(widgetId, sensorId);
 468:Generated_Source\PSoC4/CapSense_Filter.c ****     }
 469:Generated_Source\PSoC4/CapSense_Filter.c **** }
 470:Generated_Source\PSoC4/CapSense_Filter.c **** 
 471:Generated_Source\PSoC4/CapSense_Filter.c **** 
 472:Generated_Source\PSoC4/CapSense_Filter.c **** /*******************************************************************************
 473:Generated_Source\PSoC4/CapSense_Filter.c **** * Function Name: CapSense_InitializeSensorBaseline
 474:Generated_Source\PSoC4/CapSense_Filter.c **** ****************************************************************************//**
 475:Generated_Source\PSoC4/CapSense_Filter.c **** *
 476:Generated_Source\PSoC4/CapSense_Filter.c **** * \brief
 477:Generated_Source\PSoC4/CapSense_Filter.c **** *  Initializes (or re-initializes) the baseline of a sensor in a widget specified
 478:Generated_Source\PSoC4/CapSense_Filter.c **** *  by the input parameters.
 479:Generated_Source\PSoC4/CapSense_Filter.c **** *
 480:Generated_Source\PSoC4/CapSense_Filter.c **** * \details
 481:Generated_Source\PSoC4/CapSense_Filter.c **** *  Initializes (or re-initializes) the baseline for a specified sensor within
 482:Generated_Source\PSoC4/CapSense_Filter.c **** *  a specified widget.
 483:Generated_Source\PSoC4/CapSense_Filter.c **** *
 484:Generated_Source\PSoC4/CapSense_Filter.c **** * \param widgetId
 485:Generated_Source\PSoC4/CapSense_Filter.c **** *  Specifies the ID number of a widget to initialize the baseline of the sensor
 486:Generated_Source\PSoC4/CapSense_Filter.c **** *  in the widget.
ARM GAS  C:\Users\ash750\AppData\Local\Temp\ccFe1BVg.s 			page 10


 487:Generated_Source\PSoC4/CapSense_Filter.c **** *  A macro for the widget ID can be found in the
 488:Generated_Source\PSoC4/CapSense_Filter.c **** *  CapSense Configuration header file defined as
 489:Generated_Source\PSoC4/CapSense_Filter.c **** *  CapSense_<WidgetName>_WDGT_ID.
 490:Generated_Source\PSoC4/CapSense_Filter.c **** *
 491:Generated_Source\PSoC4/CapSense_Filter.c **** * \param sensorId
 492:Generated_Source\PSoC4/CapSense_Filter.c **** *  Specifies the ID number of the sensor within the widget to initialize its
 493:Generated_Source\PSoC4/CapSense_Filter.c **** *  baseline.
 494:Generated_Source\PSoC4/CapSense_Filter.c **** *  A macro for the sensor ID within a specified widget can be found in the
 495:Generated_Source\PSoC4/CapSense_Filter.c **** *  CapSense Configuration header file defined as
 496:Generated_Source\PSoC4/CapSense_Filter.c **** *  CapSense_<WidgetName>_SNS<SensorNumber>_ID.
 497:Generated_Source\PSoC4/CapSense_Filter.c **** *
 498:Generated_Source\PSoC4/CapSense_Filter.c **** *******************************************************************************/
 499:Generated_Source\PSoC4/CapSense_Filter.c **** void CapSense_InitializeSensorBaseline(uint32 widgetId, uint32 sensorId)
 500:Generated_Source\PSoC4/CapSense_Filter.c **** {
 501:Generated_Source\PSoC4/CapSense_Filter.c ****     CapSense_RAM_SNS_STRUCT *ptrSensor = NULL;
 502:Generated_Source\PSoC4/CapSense_Filter.c ****     CapSense_FLASH_WD_STRUCT const *ptrWidget = NULL;
 503:Generated_Source\PSoC4/CapSense_Filter.c ****     ptrWidget = &CapSense_dsFlash.wdgtArray[widgetId];
 504:Generated_Source\PSoC4/CapSense_Filter.c **** 
 505:Generated_Source\PSoC4/CapSense_Filter.c ****     /* Find pointer to specified sensor object */
 506:Generated_Source\PSoC4/CapSense_Filter.c ****     ptrSensor = ptrWidget->ptr2SnsRam;
 507:Generated_Source\PSoC4/CapSense_Filter.c ****     ptrSensor = &ptrSensor[sensorId];
 508:Generated_Source\PSoC4/CapSense_Filter.c **** 
 509:Generated_Source\PSoC4/CapSense_Filter.c ****     CapSense_FtInitializeBaseline(ptrSensor, (uint32)ptrWidget->wdgtType);
 510:Generated_Source\PSoC4/CapSense_Filter.c **** }
 511:Generated_Source\PSoC4/CapSense_Filter.c **** 
 512:Generated_Source\PSoC4/CapSense_Filter.c **** 
 513:Generated_Source\PSoC4/CapSense_Filter.c **** /*******************************************************************************
 514:Generated_Source\PSoC4/CapSense_Filter.c **** * Function Name: CapSense_FtInitializeBaseline
 515:Generated_Source\PSoC4/CapSense_Filter.c **** ****************************************************************************//**
 516:Generated_Source\PSoC4/CapSense_Filter.c **** *
 517:Generated_Source\PSoC4/CapSense_Filter.c **** * \brief
 518:Generated_Source\PSoC4/CapSense_Filter.c **** *  Initializes the baseline history for a sensor indicated by an input
 519:Generated_Source\PSoC4/CapSense_Filter.c **** *  parameter.
 520:Generated_Source\PSoC4/CapSense_Filter.c **** *
 521:Generated_Source\PSoC4/CapSense_Filter.c **** * \details
 522:Generated_Source\PSoC4/CapSense_Filter.c **** *  Initializes the baseline history for a sensor indicated by an input
 523:Generated_Source\PSoC4/CapSense_Filter.c **** *  parameter.
 524:Generated_Source\PSoC4/CapSense_Filter.c **** *
 525:Generated_Source\PSoC4/CapSense_Filter.c **** * \param *ptrSensor
 526:Generated_Source\PSoC4/CapSense_Filter.c **** *  The pointer to the sensor RAM object.
 527:Generated_Source\PSoC4/CapSense_Filter.c **** *
 528:Generated_Source\PSoC4/CapSense_Filter.c **** * \param wdType
 529:Generated_Source\PSoC4/CapSense_Filter.c **** *  Specifies the type of a widget.
 530:Generated_Source\PSoC4/CapSense_Filter.c **** *
 531:Generated_Source\PSoC4/CapSense_Filter.c **** *******************************************************************************/
 532:Generated_Source\PSoC4/CapSense_Filter.c **** void CapSense_FtInitializeBaseline(CapSense_RAM_SNS_STRUCT *ptrSensor, uint32 wdType)
 533:Generated_Source\PSoC4/CapSense_Filter.c **** {
 534:Generated_Source\PSoC4/CapSense_Filter.c ****     uint32 freqChannel;
 535:Generated_Source\PSoC4/CapSense_Filter.c **** 
 536:Generated_Source\PSoC4/CapSense_Filter.c ****     /* Apply baseline initialization to every channel in sensor */
 537:Generated_Source\PSoC4/CapSense_Filter.c ****     for(freqChannel = CapSense_NUM_SCAN_FREQS; freqChannel-- > 0u;)
 538:Generated_Source\PSoC4/CapSense_Filter.c ****     {
 539:Generated_Source\PSoC4/CapSense_Filter.c ****         CapSense_FtInitializeBaselineChannel(ptrSensor, wdType, freqChannel);
 540:Generated_Source\PSoC4/CapSense_Filter.c ****     }
 541:Generated_Source\PSoC4/CapSense_Filter.c **** }
 542:Generated_Source\PSoC4/CapSense_Filter.c **** 
 543:Generated_Source\PSoC4/CapSense_Filter.c **** 
ARM GAS  C:\Users\ash750\AppData\Local\Temp\ccFe1BVg.s 			page 11


 544:Generated_Source\PSoC4/CapSense_Filter.c **** /*******************************************************************************
 545:Generated_Source\PSoC4/CapSense_Filter.c **** * Function Name: CapSense_FtInitializeBaselineChannel
 546:Generated_Source\PSoC4/CapSense_Filter.c **** ****************************************************************************//**
 547:Generated_Source\PSoC4/CapSense_Filter.c **** *
 548:Generated_Source\PSoC4/CapSense_Filter.c **** * \brief
 549:Generated_Source\PSoC4/CapSense_Filter.c **** *  Initializes the baseline history for a sensor indicated by an input
 550:Generated_Source\PSoC4/CapSense_Filter.c **** *  parameter.
 551:Generated_Source\PSoC4/CapSense_Filter.c **** *
 552:Generated_Source\PSoC4/CapSense_Filter.c **** * \details
 553:Generated_Source\PSoC4/CapSense_Filter.c **** *  Initializes the baseline history for a sensor indicated by an input
 554:Generated_Source\PSoC4/CapSense_Filter.c **** *  parameter.
 555:Generated_Source\PSoC4/CapSense_Filter.c **** *
 556:Generated_Source\PSoC4/CapSense_Filter.c **** * \param *ptrSensor
 557:Generated_Source\PSoC4/CapSense_Filter.c **** *  The pointer to the sensor RAM object.
 558:Generated_Source\PSoC4/CapSense_Filter.c **** *
 559:Generated_Source\PSoC4/CapSense_Filter.c **** * \param wdType
 560:Generated_Source\PSoC4/CapSense_Filter.c **** *  Specifies the type of a widget.
 561:Generated_Source\PSoC4/CapSense_Filter.c **** *
 562:Generated_Source\PSoC4/CapSense_Filter.c **** * \param channel
 563:Generated_Source\PSoC4/CapSense_Filter.c **** *  Specifies the number of the channel to be initialized.
 564:Generated_Source\PSoC4/CapSense_Filter.c **** *
 565:Generated_Source\PSoC4/CapSense_Filter.c **** *******************************************************************************/
 566:Generated_Source\PSoC4/CapSense_Filter.c **** void CapSense_FtInitializeBaselineChannel(CapSense_RAM_SNS_STRUCT *ptrSensor, uint32 wdType, uint32
 567:Generated_Source\PSoC4/CapSense_Filter.c **** {
  28              		.loc 1 567 0
  29              		.cfi_startproc
  30              		@ args = 0, pretend = 0, frame = 0
  31              		@ frame_needed = 0, uses_anonymous_args = 0
  32              		@ link register save eliminated.
  33              	.LVL0:
 568:Generated_Source\PSoC4/CapSense_Filter.c ****     #if (CapSense_BASELINE_TYPE == CapSense_IIR_BASELINE)
 569:Generated_Source\PSoC4/CapSense_Filter.c ****         if ((CapSense_WD_TYPE_ENUM)wdType != CapSense_WD_PROXIMITY_E)
  34              		.loc 1 569 0
  35 0000 FF23     		movs	r3, #255
  36 0002 1940     		ands	r1, r3
  37              	.LVL1:
  38 0004 0629     		cmp	r1, #6
  39 0006 02D0     		beq	.L2
 570:Generated_Source\PSoC4/CapSense_Filter.c ****         {
 571:Generated_Source\PSoC4/CapSense_Filter.c ****             #if (CapSense_REGULAR_SENSOR_EN)
 572:Generated_Source\PSoC4/CapSense_Filter.c ****                 #if (CapSense_REGULAR_IIR_BL_TYPE == CapSense_IIR_FILTER_PERFORMANCE)
 573:Generated_Source\PSoC4/CapSense_Filter.c ****                     ptrSensor->bslnExt[channel] = 0u;
  40              		.loc 1 573 0
  41 0008 8318     		adds	r3, r0, r2
  42 000a 0021     		movs	r1, #0
  43 000c 9971     		strb	r1, [r3, #6]
  44              	.L2:
 574:Generated_Source\PSoC4/CapSense_Filter.c ****                 #endif /* (CapSense_REGULAR_IIR_BL_TYPE == CapSense_IIR_FILTER_PERFORMANCE) */
 575:Generated_Source\PSoC4/CapSense_Filter.c ****             #endif /* (CapSense_REGULAR_SENSOR_EN) */
 576:Generated_Source\PSoC4/CapSense_Filter.c ****         }
 577:Generated_Source\PSoC4/CapSense_Filter.c ****         else
 578:Generated_Source\PSoC4/CapSense_Filter.c ****         {
 579:Generated_Source\PSoC4/CapSense_Filter.c ****             #if (CapSense_PROXIMITY_SENSOR_EN)
 580:Generated_Source\PSoC4/CapSense_Filter.c ****                 #if (CapSense_PROX_IIR_BL_TYPE == CapSense_IIR_FILTER_PERFORMANCE)
 581:Generated_Source\PSoC4/CapSense_Filter.c ****                     ptrSensor->bslnExt[channel] = 0u;
 582:Generated_Source\PSoC4/CapSense_Filter.c ****                 #endif /* (CapSense_PROX_IIR_BL_TYPE == CapSense_IIR_FILTER_PERFORMANCE) */
 583:Generated_Source\PSoC4/CapSense_Filter.c ****             #endif /* (CapSense_PROX_SENSOR_EN) */
ARM GAS  C:\Users\ash750\AppData\Local\Temp\ccFe1BVg.s 			page 12


 584:Generated_Source\PSoC4/CapSense_Filter.c ****         }
 585:Generated_Source\PSoC4/CapSense_Filter.c ****     #else
 586:Generated_Source\PSoC4/CapSense_Filter.c ****         /* CapSense_BASELINE_TYPE == CapSense_BUCKET_BASELINE */
 587:Generated_Source\PSoC4/CapSense_Filter.c ****         ptrSensor->bslnExt[channel] = 0u;
 588:Generated_Source\PSoC4/CapSense_Filter.c ****     #endif /* (CapSense_BASELINE_TYPE == CapSense_IIR_BASELINE) */
 589:Generated_Source\PSoC4/CapSense_Filter.c **** 
 590:Generated_Source\PSoC4/CapSense_Filter.c ****     ptrSensor->bsln[channel] = ptrSensor->raw[channel];
  45              		.loc 1 590 0
  46 000e 5300     		lsls	r3, r2, #1
  47 0010 195A     		ldrh	r1, [r3, r0]
  48 0012 C318     		adds	r3, r0, r3
  49 0014 5980     		strh	r1, [r3, #2]
 591:Generated_Source\PSoC4/CapSense_Filter.c **** 
 592:Generated_Source\PSoC4/CapSense_Filter.c ****     #if (CapSense_ENABLE == CapSense_TST_BSLN_DUPLICATION_EN)
 593:Generated_Source\PSoC4/CapSense_Filter.c ****     /* Update baseline inversion of the channel in sensor */
 594:Generated_Source\PSoC4/CapSense_Filter.c ****         ptrSensor->bslnInv[channel] = ~(ptrSensor->bsln[channel]);
  50              		.loc 1 594 0
  51 0016 C943     		mvns	r1, r1
  52 0018 9980     		strh	r1, [r3, #4]
 595:Generated_Source\PSoC4/CapSense_Filter.c ****     #endif /* (CapSense_ENABLE == CapSense_TST_BSLN_DUPLICATION_EN) */
 596:Generated_Source\PSoC4/CapSense_Filter.c **** 
 597:Generated_Source\PSoC4/CapSense_Filter.c ****     ptrSensor->negBslnRstCnt[channel] = 0u;
  53              		.loc 1 597 0
  54 001a 8218     		adds	r2, r0, r2
  55              	.LVL2:
  56 001c 0023     		movs	r3, #0
  57 001e 9372     		strb	r3, [r2, #10]
 598:Generated_Source\PSoC4/CapSense_Filter.c **** }
  58              		.loc 1 598 0
  59              		@ sp needed
  60 0020 7047     		bx	lr
  61              		.cfi_endproc
  62              	.LFE9:
  63              		.size	CapSense_FtInitializeBaselineChannel, .-CapSense_FtInitializeBaselineChannel
  64 0022 C046     		.section	.text.CapSense_FtInitializeBaseline,"ax",%progbits
  65              		.align	2
  66              		.global	CapSense_FtInitializeBaseline
  67              		.code	16
  68              		.thumb_func
  69              		.type	CapSense_FtInitializeBaseline, %function
  70              	CapSense_FtInitializeBaseline:
  71              	.LFB8:
 533:Generated_Source\PSoC4/CapSense_Filter.c ****     uint32 freqChannel;
  72              		.loc 1 533 0
  73              		.cfi_startproc
  74              		@ args = 0, pretend = 0, frame = 0
  75              		@ frame_needed = 0, uses_anonymous_args = 0
  76              	.LVL3:
  77 0000 70B5     		push	{r4, r5, r6, lr}
  78              		.cfi_def_cfa_offset 16
  79              		.cfi_offset 4, -16
  80              		.cfi_offset 5, -12
  81              		.cfi_offset 6, -8
  82              		.cfi_offset 14, -4
  83 0002 0600     		movs	r6, r0
  84 0004 0D00     		movs	r5, r1
  85              	.LVL4:
ARM GAS  C:\Users\ash750\AppData\Local\Temp\ccFe1BVg.s 			page 13


 537:Generated_Source\PSoC4/CapSense_Filter.c ****     {
  86              		.loc 1 537 0
  87 0006 0123     		movs	r3, #1
  88 0008 05E0     		b	.L4
  89              	.LVL5:
  90              	.L5:
 539:Generated_Source\PSoC4/CapSense_Filter.c ****     }
  91              		.loc 1 539 0
  92 000a 2200     		movs	r2, r4
  93 000c 2900     		movs	r1, r5
  94 000e 3000     		movs	r0, r6
  95 0010 FFF7FEFF 		bl	CapSense_FtInitializeBaselineChannel
  96              	.LVL6:
 537:Generated_Source\PSoC4/CapSense_Filter.c ****     {
  97              		.loc 1 537 0
  98 0014 2300     		movs	r3, r4
  99              	.LVL7:
 100              	.L4:
 537:Generated_Source\PSoC4/CapSense_Filter.c ****     {
 101              		.loc 1 537 0 is_stmt 0 discriminator 1
 102 0016 5C1E     		subs	r4, r3, #1
 103              	.LVL8:
 104 0018 002B     		cmp	r3, #0
 105 001a F6D1     		bne	.L5
 541:Generated_Source\PSoC4/CapSense_Filter.c **** 
 106              		.loc 1 541 0 is_stmt 1
 107              		@ sp needed
 108              	.LVL9:
 109              	.LVL10:
 110              	.LVL11:
 111 001c 70BD     		pop	{r4, r5, r6, pc}
 112              		.cfi_endproc
 113              	.LFE8:
 114              		.size	CapSense_FtInitializeBaseline, .-CapSense_FtInitializeBaseline
 115 001e C046     		.section	.text.CapSense_InitializeSensorBaseline,"ax",%progbits
 116              		.align	2
 117              		.global	CapSense_InitializeSensorBaseline
 118              		.code	16
 119              		.thumb_func
 120              		.type	CapSense_InitializeSensorBaseline, %function
 121              	CapSense_InitializeSensorBaseline:
 122              	.LFB7:
 500:Generated_Source\PSoC4/CapSense_Filter.c ****     CapSense_RAM_SNS_STRUCT *ptrSensor = NULL;
 123              		.loc 1 500 0
 124              		.cfi_startproc
 125              		@ args = 0, pretend = 0, frame = 0
 126              		@ frame_needed = 0, uses_anonymous_args = 0
 127              	.LVL12:
 128 0000 70B5     		push	{r4, r5, r6, lr}
 129              		.cfi_def_cfa_offset 16
 130              		.cfi_offset 4, -16
 131              		.cfi_offset 5, -12
 132              		.cfi_offset 6, -8
 133              		.cfi_offset 14, -4
 134              	.LVL13:
 506:Generated_Source\PSoC4/CapSense_Filter.c ****     ptrSensor = &ptrSensor[sensorId];
 135              		.loc 1 506 0
ARM GAS  C:\Users\ash750\AppData\Local\Temp\ccFe1BVg.s 			page 14


 136 0002 074D     		ldr	r5, .L7
 137 0004 C600     		lsls	r6, r0, #3
 138 0006 3218     		adds	r2, r6, r0
 139 0008 9400     		lsls	r4, r2, #2
 140 000a 2C19     		adds	r4, r5, r4
 141 000c A068     		ldr	r0, [r4, #8]
 142              	.LVL14:
 507:Generated_Source\PSoC4/CapSense_Filter.c **** 
 143              		.loc 1 507 0
 144 000e 4A00     		lsls	r2, r1, #1
 145 0010 5118     		adds	r1, r2, r1
 146              	.LVL15:
 147 0012 8A00     		lsls	r2, r1, #2
 148 0014 8018     		adds	r0, r0, r2
 149              	.LVL16:
 509:Generated_Source\PSoC4/CapSense_Filter.c **** }
 150              		.loc 1 509 0
 151 0016 A17E     		ldrb	r1, [r4, #26]
 152 0018 FFF7FEFF 		bl	CapSense_FtInitializeBaseline
 153              	.LVL17:
 510:Generated_Source\PSoC4/CapSense_Filter.c **** 
 154              		.loc 1 510 0
 155              		@ sp needed
 156              	.LVL18:
 157              	.LVL19:
 158              	.LVL20:
 159 001c 70BD     		pop	{r4, r5, r6, pc}
 160              	.L8:
 161 001e C046     		.align	2
 162              	.L7:
 163 0020 00000000 		.word	CapSense_dsFlash
 164              		.cfi_endproc
 165              	.LFE7:
 166              		.size	CapSense_InitializeSensorBaseline, .-CapSense_InitializeSensorBaseline
 167              		.section	.text.CapSense_InitializeWidgetBaseline,"ax",%progbits
 168              		.align	2
 169              		.global	CapSense_InitializeWidgetBaseline
 170              		.code	16
 171              		.thumb_func
 172              		.type	CapSense_InitializeWidgetBaseline, %function
 173              	CapSense_InitializeWidgetBaseline:
 174              	.LFB6:
 456:Generated_Source\PSoC4/CapSense_Filter.c ****     uint32 sensorId;
 175              		.loc 1 456 0
 176              		.cfi_startproc
 177              		@ args = 0, pretend = 0, frame = 0
 178              		@ frame_needed = 0, uses_anonymous_args = 0
 179              	.LVL21:
 180 0000 70B5     		push	{r4, r5, r6, lr}
 181              		.cfi_def_cfa_offset 16
 182              		.cfi_offset 4, -16
 183              		.cfi_offset 5, -12
 184              		.cfi_offset 6, -8
 185              		.cfi_offset 14, -4
 186 0002 0500     		movs	r5, r0
 187              	.LVL22:
 463:Generated_Source\PSoC4/CapSense_Filter.c **** 
ARM GAS  C:\Users\ash750\AppData\Local\Temp\ccFe1BVg.s 			page 15


 188              		.loc 1 463 0
 189 0004 C200     		lsls	r2, r0, #3
 190 0006 1218     		adds	r2, r2, r0
 191 0008 9300     		lsls	r3, r2, #2
 192 000a 064A     		ldr	r2, .L12
 193 000c D318     		adds	r3, r2, r3
 194 000e 1B8B     		ldrh	r3, [r3, #24]
 195              	.LVL23:
 465:Generated_Source\PSoC4/CapSense_Filter.c ****     {
 196              		.loc 1 465 0
 197 0010 04E0     		b	.L10
 198              	.LVL24:
 199              	.L11:
 467:Generated_Source\PSoC4/CapSense_Filter.c ****     }
 200              		.loc 1 467 0
 201 0012 2100     		movs	r1, r4
 202 0014 2800     		movs	r0, r5
 203 0016 FFF7FEFF 		bl	CapSense_InitializeSensorBaseline
 204              	.LVL25:
 465:Generated_Source\PSoC4/CapSense_Filter.c ****     {
 205              		.loc 1 465 0
 206 001a 2300     		movs	r3, r4
 207              	.LVL26:
 208              	.L10:
 465:Generated_Source\PSoC4/CapSense_Filter.c ****     {
 209              		.loc 1 465 0 is_stmt 0 discriminator 1
 210 001c 5C1E     		subs	r4, r3, #1
 211              	.LVL27:
 212 001e 002B     		cmp	r3, #0
 213 0020 F7D1     		bne	.L11
 469:Generated_Source\PSoC4/CapSense_Filter.c **** 
 214              		.loc 1 469 0 is_stmt 1
 215              		@ sp needed
 216              	.LVL28:
 217              	.LVL29:
 218 0022 70BD     		pop	{r4, r5, r6, pc}
 219              	.L13:
 220              		.align	2
 221              	.L12:
 222 0024 00000000 		.word	CapSense_dsFlash
 223              		.cfi_endproc
 224              	.LFE6:
 225              		.size	CapSense_InitializeWidgetBaseline, .-CapSense_InitializeWidgetBaseline
 226              		.section	.text.CapSense_InitializeAllBaselines,"ax",%progbits
 227              		.align	2
 228              		.global	CapSense_InitializeAllBaselines
 229              		.code	16
 230              		.thumb_func
 231              		.type	CapSense_InitializeAllBaselines, %function
 232              	CapSense_InitializeAllBaselines:
 233              	.LFB5:
 420:Generated_Source\PSoC4/CapSense_Filter.c ****     uint32 widgetId;
 234              		.loc 1 420 0
 235              		.cfi_startproc
 236              		@ args = 0, pretend = 0, frame = 0
 237              		@ frame_needed = 0, uses_anonymous_args = 0
 238 0000 10B5     		push	{r4, lr}
ARM GAS  C:\Users\ash750\AppData\Local\Temp\ccFe1BVg.s 			page 16


 239              		.cfi_def_cfa_offset 8
 240              		.cfi_offset 4, -8
 241              		.cfi_offset 14, -4
 242              	.LVL30:
 423:Generated_Source\PSoC4/CapSense_Filter.c ****     {
 243              		.loc 1 423 0
 244 0002 0623     		movs	r3, #6
 245 0004 03E0     		b	.L15
 246              	.LVL31:
 247              	.L16:
 425:Generated_Source\PSoC4/CapSense_Filter.c ****     }
 248              		.loc 1 425 0
 249 0006 2000     		movs	r0, r4
 250 0008 FFF7FEFF 		bl	CapSense_InitializeWidgetBaseline
 251              	.LVL32:
 423:Generated_Source\PSoC4/CapSense_Filter.c ****     {
 252              		.loc 1 423 0
 253 000c 2300     		movs	r3, r4
 254              	.LVL33:
 255              	.L15:
 423:Generated_Source\PSoC4/CapSense_Filter.c ****     {
 256              		.loc 1 423 0 is_stmt 0 discriminator 1
 257 000e 5C1E     		subs	r4, r3, #1
 258              	.LVL34:
 259 0010 002B     		cmp	r3, #0
 260 0012 F8D1     		bne	.L16
 427:Generated_Source\PSoC4/CapSense_Filter.c **** 
 261              		.loc 1 427 0 is_stmt 1
 262              		@ sp needed
 263              	.LVL35:
 264 0014 10BD     		pop	{r4, pc}
 265              		.cfi_endproc
 266              	.LFE5:
 267              		.size	CapSense_InitializeAllBaselines, .-CapSense_InitializeAllBaselines
 268 0016 C046     		.section	.text.CapSense_InitializeIIRInternal,"ax",%progbits
 269              		.align	2
 270              		.global	CapSense_InitializeIIRInternal
 271              		.code	16
 272              		.thumb_func
 273              		.type	CapSense_InitializeIIRInternal, %function
 274              	CapSense_InitializeIIRInternal:
 275              	.LFB14:
 599:Generated_Source\PSoC4/CapSense_Filter.c **** 
 600:Generated_Source\PSoC4/CapSense_Filter.c **** #if ((CapSense_ENABLE == CapSense_RC_FILTER_EN) || \
 601:Generated_Source\PSoC4/CapSense_Filter.c ****      (0u != (CapSense_CSD_AUTOTUNE & CapSense_CSD_SS_TH_EN)))
 602:Generated_Source\PSoC4/CapSense_Filter.c **** /*******************************************************************************
 603:Generated_Source\PSoC4/CapSense_Filter.c **** * Function Name: CapSense_InitializeAllFilters
 604:Generated_Source\PSoC4/CapSense_Filter.c **** ****************************************************************************//**
 605:Generated_Source\PSoC4/CapSense_Filter.c **** *
 606:Generated_Source\PSoC4/CapSense_Filter.c **** * \brief
 607:Generated_Source\PSoC4/CapSense_Filter.c **** *  Initializes (or re-initializes) the raw count filter history of all the
 608:Generated_Source\PSoC4/CapSense_Filter.c **** *  sensors of all the widgets.
 609:Generated_Source\PSoC4/CapSense_Filter.c **** *
 610:Generated_Source\PSoC4/CapSense_Filter.c **** * \details
 611:Generated_Source\PSoC4/CapSense_Filter.c **** *  Initializes the raw count filter history for all the sensors of all the
 612:Generated_Source\PSoC4/CapSense_Filter.c **** *  widgets. Also, this function can be used to re-initialize baselines.
 613:Generated_Source\PSoC4/CapSense_Filter.c **** *  CapSense_Start() calls this API as part of CapSense
ARM GAS  C:\Users\ash750\AppData\Local\Temp\ccFe1BVg.s 			page 17


 614:Generated_Source\PSoC4/CapSense_Filter.c **** *  operation initialization.
 615:Generated_Source\PSoC4/CapSense_Filter.c **** *
 616:Generated_Source\PSoC4/CapSense_Filter.c **** *******************************************************************************/
 617:Generated_Source\PSoC4/CapSense_Filter.c **** void CapSense_InitializeAllFilters(void)
 618:Generated_Source\PSoC4/CapSense_Filter.c **** {
 619:Generated_Source\PSoC4/CapSense_Filter.c ****     uint32 widgetId;
 620:Generated_Source\PSoC4/CapSense_Filter.c **** 
 621:Generated_Source\PSoC4/CapSense_Filter.c ****     for(widgetId = CapSense_TOTAL_WIDGETS; widgetId-- > 0u;)
 622:Generated_Source\PSoC4/CapSense_Filter.c ****     {
 623:Generated_Source\PSoC4/CapSense_Filter.c ****         CapSense_InitializeWidgetFilter(widgetId);
 624:Generated_Source\PSoC4/CapSense_Filter.c ****     }
 625:Generated_Source\PSoC4/CapSense_Filter.c **** }
 626:Generated_Source\PSoC4/CapSense_Filter.c **** 
 627:Generated_Source\PSoC4/CapSense_Filter.c **** /*******************************************************************************
 628:Generated_Source\PSoC4/CapSense_Filter.c **** * Function Name: CapSense_InitializeWidgetFilter
 629:Generated_Source\PSoC4/CapSense_Filter.c **** ****************************************************************************//**
 630:Generated_Source\PSoC4/CapSense_Filter.c **** *
 631:Generated_Source\PSoC4/CapSense_Filter.c **** * \brief
 632:Generated_Source\PSoC4/CapSense_Filter.c **** *  Initializes (or re-initializes) the raw count filter history of all the sensors
 633:Generated_Source\PSoC4/CapSense_Filter.c **** *  in a widget specified by the input parameter.
 634:Generated_Source\PSoC4/CapSense_Filter.c **** *
 635:Generated_Source\PSoC4/CapSense_Filter.c **** * \details
 636:Generated_Source\PSoC4/CapSense_Filter.c **** *  Initializes (or re-initializes) the raw count filter history of all the sensors
 637:Generated_Source\PSoC4/CapSense_Filter.c **** *  in a widget specified by the input parameter.
 638:Generated_Source\PSoC4/CapSense_Filter.c **** *
 639:Generated_Source\PSoC4/CapSense_Filter.c **** * \param widgetId
 640:Generated_Source\PSoC4/CapSense_Filter.c **** *  Specifies the ID number of a widget to initialize the filter history of all
 641:Generated_Source\PSoC4/CapSense_Filter.c **** *  the sensors in the widget.
 642:Generated_Source\PSoC4/CapSense_Filter.c **** *  A macro for the widget ID can be found in the
 643:Generated_Source\PSoC4/CapSense_Filter.c **** *  CapSense Configuration header file defined as
 644:Generated_Source\PSoC4/CapSense_Filter.c **** *  CapSense_<WidgetName>_WDGT_ID.
 645:Generated_Source\PSoC4/CapSense_Filter.c **** *
 646:Generated_Source\PSoC4/CapSense_Filter.c **** *******************************************************************************/
 647:Generated_Source\PSoC4/CapSense_Filter.c **** void CapSense_InitializeWidgetFilter(uint32 widgetId)
 648:Generated_Source\PSoC4/CapSense_Filter.c **** {
 649:Generated_Source\PSoC4/CapSense_Filter.c ****     uint32 sensorId;
 650:Generated_Source\PSoC4/CapSense_Filter.c ****     uint32 sensorsNumber;
 651:Generated_Source\PSoC4/CapSense_Filter.c **** 
 652:Generated_Source\PSoC4/CapSense_Filter.c ****     CapSense_FLASH_WD_STRUCT const *ptrWidget;
 653:Generated_Source\PSoC4/CapSense_Filter.c ****     CapSense_RAM_SNS_STRUCT *ptrSensor = NULL;
 654:Generated_Source\PSoC4/CapSense_Filter.c ****     #if (CapSense_ENABLE == CapSense_RC_FILTER_EN)
 655:Generated_Source\PSoC4/CapSense_Filter.c ****         CapSense_PTR_FILTER_VARIANT ptrFilterHistObj;
 656:Generated_Source\PSoC4/CapSense_Filter.c ****     #endif
 657:Generated_Source\PSoC4/CapSense_Filter.c **** 
 658:Generated_Source\PSoC4/CapSense_Filter.c ****     #if (0u != (CapSense_CSD_AUTOTUNE & CapSense_CSD_SS_TH_EN))
 659:Generated_Source\PSoC4/CapSense_Filter.c ****         CapSense_RAM_WD_BASE_STRUCT *ptrWidgetRam;
 660:Generated_Source\PSoC4/CapSense_Filter.c ****         SMARTSENSE_CSD_NOISE_ENVELOPE_STRUCT *ptrNoiseEnvelope = NULL;
 661:Generated_Source\PSoC4/CapSense_Filter.c ****     #endif /* (0u != (CapSense_CSD_AUTOTUNE & CapSense_CSD_SS_TH_EN)) */
 662:Generated_Source\PSoC4/CapSense_Filter.c **** 
 663:Generated_Source\PSoC4/CapSense_Filter.c ****     ptrWidget = &CapSense_dsFlash.wdgtArray[widgetId];
 664:Generated_Source\PSoC4/CapSense_Filter.c **** 
 665:Generated_Source\PSoC4/CapSense_Filter.c ****     #if (0u != (CapSense_CSD_AUTOTUNE & CapSense_CSD_SS_TH_EN))
 666:Generated_Source\PSoC4/CapSense_Filter.c ****         ptrWidgetRam = ptrWidget->ptr2WdgtRam;
 667:Generated_Source\PSoC4/CapSense_Filter.c ****     #endif /* (0u != (CapSense_CSD_AUTOTUNE & CapSense_CSD_SS_TH_EN)) */
 668:Generated_Source\PSoC4/CapSense_Filter.c **** 
 669:Generated_Source\PSoC4/CapSense_Filter.c ****     /* Find total amount of sensors in specified widget */
 670:Generated_Source\PSoC4/CapSense_Filter.c ****     sensorsNumber = CapSense_GET_SNS_CNT_BY_PTR(ptrWidget);
ARM GAS  C:\Users\ash750\AppData\Local\Temp\ccFe1BVg.s 			page 18


 671:Generated_Source\PSoC4/CapSense_Filter.c **** 
 672:Generated_Source\PSoC4/CapSense_Filter.c ****     for (sensorId = sensorsNumber; sensorId-- > 0u;)
 673:Generated_Source\PSoC4/CapSense_Filter.c ****     {
 674:Generated_Source\PSoC4/CapSense_Filter.c ****         /* Find pointer to specified sensor object */
 675:Generated_Source\PSoC4/CapSense_Filter.c ****         ptrSensor = ptrWidget->ptr2SnsRam;
 676:Generated_Source\PSoC4/CapSense_Filter.c ****         ptrSensor = &ptrSensor[sensorId];
 677:Generated_Source\PSoC4/CapSense_Filter.c **** 
 678:Generated_Source\PSoC4/CapSense_Filter.c ****         #if (CapSense_ENABLE == CapSense_RC_FILTER_EN)
 679:Generated_Source\PSoC4/CapSense_Filter.c ****             /* Find pointer to to specified filter sensor object */
 680:Generated_Source\PSoC4/CapSense_Filter.c ****             ptrFilterHistObj.ptr = ptrWidget->ptr2FltrHistory;
 681:Generated_Source\PSoC4/CapSense_Filter.c ****         #endif
 682:Generated_Source\PSoC4/CapSense_Filter.c **** 
 683:Generated_Source\PSoC4/CapSense_Filter.c ****         #if (0u != (CapSense_CSD_AUTOTUNE & CapSense_CSD_SS_TH_EN))
 684:Generated_Source\PSoC4/CapSense_Filter.c ****             /* Find pointer to specified noise envelope sensor object */
 685:Generated_Source\PSoC4/CapSense_Filter.c ****             ptrNoiseEnvelope = ptrWidget->ptr2NoiseEnvlp;
 686:Generated_Source\PSoC4/CapSense_Filter.c ****             ptrNoiseEnvelope = &ptrNoiseEnvelope[sensorId];
 687:Generated_Source\PSoC4/CapSense_Filter.c ****         #endif /* (0u != (CapSense_CSD_AUTOTUNE & CapSense_CSD_SS_TH_EN)) */
 688:Generated_Source\PSoC4/CapSense_Filter.c **** 
 689:Generated_Source\PSoC4/CapSense_Filter.c ****         if ((CapSense_WD_TYPE_ENUM)ptrWidget->wdgtType != CapSense_WD_PROXIMITY_E)
 690:Generated_Source\PSoC4/CapSense_Filter.c ****         {
 691:Generated_Source\PSoC4/CapSense_Filter.c ****             #if (0u != CapSense_REGULAR_RC_ALP_FILTER_EN)
 692:Generated_Source\PSoC4/CapSense_Filter.c ****                 ptrFilterHistObj.ptrAlp = &ptrFilterHistObj.ptrAlp[sensorId];
 693:Generated_Source\PSoC4/CapSense_Filter.c ****             #elif (0u != CapSense_REGULAR_RC_FILTER_EN)
 694:Generated_Source\PSoC4/CapSense_Filter.c ****                 ptrFilterHistObj.ptrRegular = &ptrFilterHistObj.ptrRegular[sensorId];
 695:Generated_Source\PSoC4/CapSense_Filter.c ****             #endif
 696:Generated_Source\PSoC4/CapSense_Filter.c ****         }
 697:Generated_Source\PSoC4/CapSense_Filter.c ****         else
 698:Generated_Source\PSoC4/CapSense_Filter.c ****         {
 699:Generated_Source\PSoC4/CapSense_Filter.c ****             #if (0u != CapSense_PROX_RC_ALP_FILTER_EN)
 700:Generated_Source\PSoC4/CapSense_Filter.c ****                 ptrFilterHistObj.ptrAlp = &ptrFilterHistObj.ptrAlp[sensorId];
 701:Generated_Source\PSoC4/CapSense_Filter.c ****             #elif (0u != CapSense_PROX_RC_FILTER_EN)
 702:Generated_Source\PSoC4/CapSense_Filter.c ****                 ptrFilterHistObj.ptrProx = &ptrFilterHistObj.ptrProx[sensorId];
 703:Generated_Source\PSoC4/CapSense_Filter.c ****             #endif /* #if (0u != CapSense_PROX_RC_FILTER_EN) */
 704:Generated_Source\PSoC4/CapSense_Filter.c ****         }
 705:Generated_Source\PSoC4/CapSense_Filter.c **** 
 706:Generated_Source\PSoC4/CapSense_Filter.c ****         #if (CapSense_REGULAR_RC_IIR_FILTER_EN || CapSense_PROX_RC_IIR_FILTER_EN)
 707:Generated_Source\PSoC4/CapSense_Filter.c ****             CapSense_InitializeIIRInternal(ptrFilterHistObj, ptrSensor, (uint32)ptrWidget->wdgtType
 708:Generated_Source\PSoC4/CapSense_Filter.c ****         #endif /* (CapSense_REGULAR_RC_IIR_FILTER_EN || CapSense_PROX_RC_IIR_FILTER_EN) */
 709:Generated_Source\PSoC4/CapSense_Filter.c **** 
 710:Generated_Source\PSoC4/CapSense_Filter.c ****         #if (CapSense_REGULAR_RC_MEDIAN_FILTER_EN || CapSense_PROX_RC_MEDIAN_FILTER_EN)
 711:Generated_Source\PSoC4/CapSense_Filter.c ****             CapSense_InitializeMedianInternal(ptrFilterHistObj, ptrSensor, (uint32)ptrWidget->wdgtT
 712:Generated_Source\PSoC4/CapSense_Filter.c ****         #endif /* (CapSense_REGULAR_RC_MEDIAN_FILTER_EN || CapSense_PROX_RC_MEDIAN_FILTER_EN) */
 713:Generated_Source\PSoC4/CapSense_Filter.c **** 
 714:Generated_Source\PSoC4/CapSense_Filter.c ****         #if (CapSense_REGULAR_RC_AVERAGE_FILTER_EN || CapSense_PROX_RC_AVERAGE_FILTER_EN)
 715:Generated_Source\PSoC4/CapSense_Filter.c ****             CapSense_InitializeAverageInternal(ptrFilterHistObj, ptrSensor, (uint32)ptrWidget->wdgt
 716:Generated_Source\PSoC4/CapSense_Filter.c ****         #endif /* (CapSense_REGULAR_RC_AVERAGE_FILTER_EN || CapSense_PROX_RC_AVERAGE_FILTER_EN) */
 717:Generated_Source\PSoC4/CapSense_Filter.c **** 
 718:Generated_Source\PSoC4/CapSense_Filter.c ****         #if (CapSense_ALP_FILTER_EN)
 719:Generated_Source\PSoC4/CapSense_Filter.c ****             CapSense_InitializeALPInternal(ptrFilterHistObj, ptrSensor, (uint32)ptrWidget->wdgtType
 720:Generated_Source\PSoC4/CapSense_Filter.c ****         #endif
 721:Generated_Source\PSoC4/CapSense_Filter.c **** 
 722:Generated_Source\PSoC4/CapSense_Filter.c ****         #if (0u != (CapSense_CSD_AUTOTUNE & CapSense_CSD_SS_TH_EN))
 723:Generated_Source\PSoC4/CapSense_Filter.c ****             if (CapSense_SENSE_METHOD_CSD_E ==
 724:Generated_Source\PSoC4/CapSense_Filter.c ****                 CapSense_GET_SENSE_METHOD(&CapSense_dsFlash.wdgtArray[widgetId]))
 725:Generated_Source\PSoC4/CapSense_Filter.c ****             {
 726:Generated_Source\PSoC4/CapSense_Filter.c ****                 SmartSense_InitializeNoiseEnvelope(ptrSensor->raw[0u], ptrWidgetRam->sigPFC, ptrNoi
 727:Generated_Source\PSoC4/CapSense_Filter.c ****             }
ARM GAS  C:\Users\ash750\AppData\Local\Temp\ccFe1BVg.s 			page 19


 728:Generated_Source\PSoC4/CapSense_Filter.c ****         #endif /* (0u != (CapSense_CSD_AUTOTUNE & CapSense_CSD_SS_TH_EN)) */
 729:Generated_Source\PSoC4/CapSense_Filter.c ****     }
 730:Generated_Source\PSoC4/CapSense_Filter.c **** }
 731:Generated_Source\PSoC4/CapSense_Filter.c **** #endif /* ((CapSense_ENABLE == CapSense_RC_FILTER_EN) || \
 732:Generated_Source\PSoC4/CapSense_Filter.c ****            (0u != (CapSense_CSD_AUTOTUNE & CapSense_CSD_SS_TH_EN))) */
 733:Generated_Source\PSoC4/CapSense_Filter.c **** 
 734:Generated_Source\PSoC4/CapSense_Filter.c **** #if (CapSense_REGULAR_RC_IIR_FILTER_EN || CapSense_PROX_RC_IIR_FILTER_EN)
 735:Generated_Source\PSoC4/CapSense_Filter.c **** /*******************************************************************************
 736:Generated_Source\PSoC4/CapSense_Filter.c **** * Function Name: CapSense_InitializeIIR
 737:Generated_Source\PSoC4/CapSense_Filter.c **** ****************************************************************************//**
 738:Generated_Source\PSoC4/CapSense_Filter.c **** *
 739:Generated_Source\PSoC4/CapSense_Filter.c **** * \brief
 740:Generated_Source\PSoC4/CapSense_Filter.c **** *  Initialize the IIR filter history.
 741:Generated_Source\PSoC4/CapSense_Filter.c **** *
 742:Generated_Source\PSoC4/CapSense_Filter.c **** * \details
 743:Generated_Source\PSoC4/CapSense_Filter.c **** *  Initialize the IIR filter history.
 744:Generated_Source\PSoC4/CapSense_Filter.c **** *
 745:Generated_Source\PSoC4/CapSense_Filter.c **** * \param widgetId
 746:Generated_Source\PSoC4/CapSense_Filter.c **** *  Specifies the ID number of the widget.
 747:Generated_Source\PSoC4/CapSense_Filter.c **** *
 748:Generated_Source\PSoC4/CapSense_Filter.c **** * \param sensorId
 749:Generated_Source\PSoC4/CapSense_Filter.c **** *  Specifies the ID number of the sensor in the widget.
 750:Generated_Source\PSoC4/CapSense_Filter.c **** *
 751:Generated_Source\PSoC4/CapSense_Filter.c **** *******************************************************************************/
 752:Generated_Source\PSoC4/CapSense_Filter.c **** void CapSense_InitializeIIR(uint32 widgetId, uint32 sensorId)
 753:Generated_Source\PSoC4/CapSense_Filter.c **** {
 754:Generated_Source\PSoC4/CapSense_Filter.c ****     CapSense_FLASH_WD_STRUCT const *ptrWidget = &CapSense_dsFlash.wdgtArray[widgetId];
 755:Generated_Source\PSoC4/CapSense_Filter.c ****     CapSense_RAM_SNS_STRUCT *ptrSensor = NULL;
 756:Generated_Source\PSoC4/CapSense_Filter.c ****     CapSense_PTR_FILTER_VARIANT ptrFilterHistObj;
 757:Generated_Source\PSoC4/CapSense_Filter.c **** 
 758:Generated_Source\PSoC4/CapSense_Filter.c ****     /* Find pointer to specified sensor object */
 759:Generated_Source\PSoC4/CapSense_Filter.c ****     ptrSensor = ptrWidget->ptr2SnsRam;
 760:Generated_Source\PSoC4/CapSense_Filter.c ****     ptrSensor = &ptrSensor[sensorId];
 761:Generated_Source\PSoC4/CapSense_Filter.c **** 
 762:Generated_Source\PSoC4/CapSense_Filter.c ****     /* Find pointer to specified filter sensor object */
 763:Generated_Source\PSoC4/CapSense_Filter.c ****     ptrFilterHistObj.ptr = ptrWidget->ptr2FltrHistory;
 764:Generated_Source\PSoC4/CapSense_Filter.c **** 
 765:Generated_Source\PSoC4/CapSense_Filter.c ****     if ((CapSense_WD_TYPE_ENUM)ptrWidget->wdgtType != CapSense_WD_PROXIMITY_E)
 766:Generated_Source\PSoC4/CapSense_Filter.c ****     {
 767:Generated_Source\PSoC4/CapSense_Filter.c ****         #if (CapSense_REGULAR_SENSOR_EN)
 768:Generated_Source\PSoC4/CapSense_Filter.c ****             ptrFilterHistObj.ptrRegular = &ptrFilterHistObj.ptrRegular[sensorId];
 769:Generated_Source\PSoC4/CapSense_Filter.c ****         #endif /* (CapSense_REGULAR_SENSOR_EN) */
 770:Generated_Source\PSoC4/CapSense_Filter.c ****     }
 771:Generated_Source\PSoC4/CapSense_Filter.c ****     else
 772:Generated_Source\PSoC4/CapSense_Filter.c ****     {
 773:Generated_Source\PSoC4/CapSense_Filter.c ****         #if (CapSense_PROXIMITY_SENSOR_EN)
 774:Generated_Source\PSoC4/CapSense_Filter.c ****             ptrFilterHistObj.ptrProx = &ptrFilterHistObj.ptrProx[sensorId];
 775:Generated_Source\PSoC4/CapSense_Filter.c ****         #endif /* (CapSense_PROXIMITY_SENSOR_EN) */
 776:Generated_Source\PSoC4/CapSense_Filter.c ****     }
 777:Generated_Source\PSoC4/CapSense_Filter.c **** 
 778:Generated_Source\PSoC4/CapSense_Filter.c ****     CapSense_InitializeIIRInternal(ptrFilterHistObj, ptrSensor, (uint32)ptrWidget->wdgtType);
 779:Generated_Source\PSoC4/CapSense_Filter.c **** }
 780:Generated_Source\PSoC4/CapSense_Filter.c **** 
 781:Generated_Source\PSoC4/CapSense_Filter.c **** 
 782:Generated_Source\PSoC4/CapSense_Filter.c **** /*******************************************************************************
 783:Generated_Source\PSoC4/CapSense_Filter.c **** * Function Name: CapSense_RunIIR
 784:Generated_Source\PSoC4/CapSense_Filter.c **** ****************************************************************************//**
ARM GAS  C:\Users\ash750\AppData\Local\Temp\ccFe1BVg.s 			page 20


 785:Generated_Source\PSoC4/CapSense_Filter.c **** *
 786:Generated_Source\PSoC4/CapSense_Filter.c **** * \brief
 787:Generated_Source\PSoC4/CapSense_Filter.c **** *  Executes the IIR filter algorithm on a sensor indicated by an input
 788:Generated_Source\PSoC4/CapSense_Filter.c **** *  parameter.
 789:Generated_Source\PSoC4/CapSense_Filter.c **** *
 790:Generated_Source\PSoC4/CapSense_Filter.c **** * \details
 791:Generated_Source\PSoC4/CapSense_Filter.c **** *  Executes the IIR filter algorithm on a sensor indicated by an input
 792:Generated_Source\PSoC4/CapSense_Filter.c **** *  parameter.
 793:Generated_Source\PSoC4/CapSense_Filter.c **** *
 794:Generated_Source\PSoC4/CapSense_Filter.c **** * \param widgetId
 795:Generated_Source\PSoC4/CapSense_Filter.c **** *  Specifies the ID number of the widget.
 796:Generated_Source\PSoC4/CapSense_Filter.c **** *
 797:Generated_Source\PSoC4/CapSense_Filter.c **** * \param sensorId
 798:Generated_Source\PSoC4/CapSense_Filter.c **** *  Specifies the ID number of the sensor in the widget.
 799:Generated_Source\PSoC4/CapSense_Filter.c **** *
 800:Generated_Source\PSoC4/CapSense_Filter.c **** *******************************************************************************/
 801:Generated_Source\PSoC4/CapSense_Filter.c **** void CapSense_RunIIR(uint32 widgetId, uint32 sensorId)
 802:Generated_Source\PSoC4/CapSense_Filter.c **** {
 803:Generated_Source\PSoC4/CapSense_Filter.c ****     CapSense_FLASH_WD_STRUCT const *ptrWidget = &CapSense_dsFlash.wdgtArray[widgetId];
 804:Generated_Source\PSoC4/CapSense_Filter.c ****     CapSense_RAM_SNS_STRUCT *ptrSensor = NULL;
 805:Generated_Source\PSoC4/CapSense_Filter.c ****     CapSense_PTR_FILTER_VARIANT ptrFilterHistObj;
 806:Generated_Source\PSoC4/CapSense_Filter.c **** 
 807:Generated_Source\PSoC4/CapSense_Filter.c ****     /* Find pointer to specified sensor object */
 808:Generated_Source\PSoC4/CapSense_Filter.c ****     ptrSensor = ptrWidget->ptr2SnsRam;
 809:Generated_Source\PSoC4/CapSense_Filter.c ****     ptrSensor = &ptrSensor[sensorId];
 810:Generated_Source\PSoC4/CapSense_Filter.c **** 
 811:Generated_Source\PSoC4/CapSense_Filter.c ****     /* Find pointer to specified filter sensor object */
 812:Generated_Source\PSoC4/CapSense_Filter.c ****     ptrFilterHistObj.ptr = ptrWidget->ptr2FltrHistory;
 813:Generated_Source\PSoC4/CapSense_Filter.c **** 
 814:Generated_Source\PSoC4/CapSense_Filter.c ****     if ((CapSense_WD_TYPE_ENUM)ptrWidget->wdgtType != CapSense_WD_PROXIMITY_E)
 815:Generated_Source\PSoC4/CapSense_Filter.c ****     {
 816:Generated_Source\PSoC4/CapSense_Filter.c ****         #if (CapSense_REGULAR_SENSOR_EN)
 817:Generated_Source\PSoC4/CapSense_Filter.c ****             ptrFilterHistObj.ptrRegular = &ptrFilterHistObj.ptrRegular[sensorId];
 818:Generated_Source\PSoC4/CapSense_Filter.c ****         #endif /* (CapSense_REGULAR_SENSOR_EN) */
 819:Generated_Source\PSoC4/CapSense_Filter.c ****     }
 820:Generated_Source\PSoC4/CapSense_Filter.c ****     else
 821:Generated_Source\PSoC4/CapSense_Filter.c ****     {
 822:Generated_Source\PSoC4/CapSense_Filter.c ****         #if (CapSense_PROXIMITY_SENSOR_EN)
 823:Generated_Source\PSoC4/CapSense_Filter.c ****             ptrFilterHistObj.ptrProx = &ptrFilterHistObj.ptrProx[sensorId];
 824:Generated_Source\PSoC4/CapSense_Filter.c ****         #endif /* (CapSense_PROXIMITY_SENSOR_EN) */
 825:Generated_Source\PSoC4/CapSense_Filter.c ****     }
 826:Generated_Source\PSoC4/CapSense_Filter.c **** 
 827:Generated_Source\PSoC4/CapSense_Filter.c ****     CapSense_RunIIRInternal(ptrFilterHistObj, ptrSensor, (uint32)ptrWidget->wdgtType);
 828:Generated_Source\PSoC4/CapSense_Filter.c **** }
 829:Generated_Source\PSoC4/CapSense_Filter.c **** 
 830:Generated_Source\PSoC4/CapSense_Filter.c **** /*******************************************************************************
 831:Generated_Source\PSoC4/CapSense_Filter.c **** * Function Name: CapSense_InitializeIIRInternal
 832:Generated_Source\PSoC4/CapSense_Filter.c **** ****************************************************************************//**
 833:Generated_Source\PSoC4/CapSense_Filter.c **** *
 834:Generated_Source\PSoC4/CapSense_Filter.c **** * \brief
 835:Generated_Source\PSoC4/CapSense_Filter.c **** *  Initializes the IIR filter history.
 836:Generated_Source\PSoC4/CapSense_Filter.c **** *
 837:Generated_Source\PSoC4/CapSense_Filter.c **** * \details
 838:Generated_Source\PSoC4/CapSense_Filter.c **** *  Initializes the IIR filter history.
 839:Generated_Source\PSoC4/CapSense_Filter.c **** *
 840:Generated_Source\PSoC4/CapSense_Filter.c **** * \param ptrFilterHistObj
 841:Generated_Source\PSoC4/CapSense_Filter.c **** *  The pointer to the filter RAM object of the sensor.
ARM GAS  C:\Users\ash750\AppData\Local\Temp\ccFe1BVg.s 			page 21


 842:Generated_Source\PSoC4/CapSense_Filter.c **** *
 843:Generated_Source\PSoC4/CapSense_Filter.c **** * \param ptrSensorObj
 844:Generated_Source\PSoC4/CapSense_Filter.c **** *  The pointer to the sensor RAM object of the sensor.
 845:Generated_Source\PSoC4/CapSense_Filter.c **** *
 846:Generated_Source\PSoC4/CapSense_Filter.c **** * \param wdType
 847:Generated_Source\PSoC4/CapSense_Filter.c **** *  Specifies the type of a widget.
 848:Generated_Source\PSoC4/CapSense_Filter.c **** *
 849:Generated_Source\PSoC4/CapSense_Filter.c **** *******************************************************************************/
 850:Generated_Source\PSoC4/CapSense_Filter.c **** void CapSense_InitializeIIRInternal(CapSense_PTR_FILTER_VARIANT ptrFilterHistObj,
 851:Generated_Source\PSoC4/CapSense_Filter.c ****                                             CapSense_RAM_SNS_STRUCT *ptrSensorObj, uint32 wdType)
 852:Generated_Source\PSoC4/CapSense_Filter.c **** {
 276              		.loc 1 852 0
 277              		.cfi_startproc
 278              		@ args = 0, pretend = 0, frame = 0
 279              		@ frame_needed = 0, uses_anonymous_args = 0
 280              	.LVL36:
 281 0000 30B5     		push	{r4, r5, lr}
 282              		.cfi_def_cfa_offset 12
 283              		.cfi_offset 4, -12
 284              		.cfi_offset 5, -8
 285              		.cfi_offset 14, -4
 286              	.LVL37:
 853:Generated_Source\PSoC4/CapSense_Filter.c ****     uint32 freqChannel;
 854:Generated_Source\PSoC4/CapSense_Filter.c **** 
 855:Generated_Source\PSoC4/CapSense_Filter.c ****     for(freqChannel = CapSense_NUM_SCAN_FREQS; freqChannel-- > 0u;)
 287              		.loc 1 855 0
 288 0002 0123     		movs	r3, #1
 289 0004 07E0     		b	.L18
 290              	.LVL38:
 291              	.L20:
 856:Generated_Source\PSoC4/CapSense_Filter.c ****     {
 857:Generated_Source\PSoC4/CapSense_Filter.c ****         if ((CapSense_WD_TYPE_ENUM)wdType != CapSense_WD_PROXIMITY_E)
 292              		.loc 1 857 0
 293 0006 FF23     		movs	r3, #255
 294 0008 1340     		ands	r3, r2
 295 000a 062B     		cmp	r3, #6
 296 000c 02D0     		beq	.L19
 858:Generated_Source\PSoC4/CapSense_Filter.c ****         {
 859:Generated_Source\PSoC4/CapSense_Filter.c ****             #if (CapSense_REGULAR_SENSOR_EN && CapSense_REGULAR_RC_IIR_FILTER_EN)
 860:Generated_Source\PSoC4/CapSense_Filter.c ****                 #if (CapSense_REGULAR_IIR_RC_TYPE == CapSense_IIR_FILTER_PERFORMANCE)
 861:Generated_Source\PSoC4/CapSense_Filter.c ****                     ptrFilterHistObj.ptrRegular->regularChannel[freqChannel].iirHistory = ptrSensor
 862:Generated_Source\PSoC4/CapSense_Filter.c ****                     ptrFilterHistObj.ptrRegular->regularChannel[freqChannel].iirHistoryLow = 0u;
 863:Generated_Source\PSoC4/CapSense_Filter.c ****                 #else
 864:Generated_Source\PSoC4/CapSense_Filter.c ****                     ptrFilterHistObj.ptrRegular->regularChannel[freqChannel].iirHistory = ptrSensor
 297              		.loc 1 864 0
 298 000e 6300     		lsls	r3, r4, #1
 299 0010 5D5A     		ldrh	r5, [r3, r1]
 300 0012 1D52     		strh	r5, [r3, r0]
 301              	.L19:
 852:Generated_Source\PSoC4/CapSense_Filter.c ****     uint32 freqChannel;
 302              		.loc 1 852 0 discriminator 1
 303 0014 2300     		movs	r3, r4
 304              	.LVL39:
 305              	.L18:
 855:Generated_Source\PSoC4/CapSense_Filter.c ****     {
 306              		.loc 1 855 0 discriminator 1
 307 0016 5C1E     		subs	r4, r3, #1
ARM GAS  C:\Users\ash750\AppData\Local\Temp\ccFe1BVg.s 			page 22


 308              	.LVL40:
 309 0018 002B     		cmp	r3, #0
 310 001a F4D1     		bne	.L20
 865:Generated_Source\PSoC4/CapSense_Filter.c ****                 #endif /* (CapSense_REGULAR_IIR_RC_TYPE == CapSense_IIR_FILTER_PERFORMANCE) */
 866:Generated_Source\PSoC4/CapSense_Filter.c ****             #endif /* (CapSense_REGULAR_SENSOR_EN) */
 867:Generated_Source\PSoC4/CapSense_Filter.c ****         }
 868:Generated_Source\PSoC4/CapSense_Filter.c ****         else
 869:Generated_Source\PSoC4/CapSense_Filter.c ****         {
 870:Generated_Source\PSoC4/CapSense_Filter.c ****             #if (CapSense_PROXIMITY_SENSOR_EN && CapSense_PROX_RC_IIR_FILTER_EN)
 871:Generated_Source\PSoC4/CapSense_Filter.c ****                 #if (CapSense_PROX_IIR_RC_TYPE == CapSense_IIR_FILTER_PERFORMANCE)
 872:Generated_Source\PSoC4/CapSense_Filter.c ****                     ptrFilterHistObj.ptrProx->proxChannel[freqChannel].iirHistory = ptrSensorObj->r
 873:Generated_Source\PSoC4/CapSense_Filter.c ****                     ptrFilterHistObj.ptrProx->proxChannel[freqChannel].iirHistoryLow = 0u;
 874:Generated_Source\PSoC4/CapSense_Filter.c ****                 #else
 875:Generated_Source\PSoC4/CapSense_Filter.c ****                     ptrFilterHistObj.ptrProx->proxChannel[freqChannel].iirHistory = ptrSensorObj->r
 876:Generated_Source\PSoC4/CapSense_Filter.c ****                 #endif /* (CapSense_PROX_IIR_RC_TYPE == CapSense_IIR_FILTER_PERFORMANCE) */
 877:Generated_Source\PSoC4/CapSense_Filter.c ****             #endif /* (CapSense_PROX_SENSOR_EN) */
 878:Generated_Source\PSoC4/CapSense_Filter.c ****         }
 879:Generated_Source\PSoC4/CapSense_Filter.c ****     }
 880:Generated_Source\PSoC4/CapSense_Filter.c **** }
 311              		.loc 1 880 0
 312              		@ sp needed
 313              	.LVL41:
 314 001c 30BD     		pop	{r4, r5, pc}
 315              		.cfi_endproc
 316              	.LFE14:
 317              		.size	CapSense_InitializeIIRInternal, .-CapSense_InitializeIIRInternal
 318 001e C046     		.section	.text.CapSense_InitializeWidgetFilter,"ax",%progbits
 319              		.align	2
 320              		.global	CapSense_InitializeWidgetFilter
 321              		.code	16
 322              		.thumb_func
 323              		.type	CapSense_InitializeWidgetFilter, %function
 324              	CapSense_InitializeWidgetFilter:
 325              	.LFB11:
 648:Generated_Source\PSoC4/CapSense_Filter.c ****     uint32 sensorId;
 326              		.loc 1 648 0
 327              		.cfi_startproc
 328              		@ args = 0, pretend = 0, frame = 0
 329              		@ frame_needed = 0, uses_anonymous_args = 0
 330              	.LVL42:
 331 0000 70B5     		push	{r4, r5, r6, lr}
 332              		.cfi_def_cfa_offset 16
 333              		.cfi_offset 4, -16
 334              		.cfi_offset 5, -12
 335              		.cfi_offset 6, -8
 336              		.cfi_offset 14, -4
 337 0002 0500     		movs	r5, r0
 338              	.LVL43:
 670:Generated_Source\PSoC4/CapSense_Filter.c **** 
 339              		.loc 1 670 0
 340 0004 C200     		lsls	r2, r0, #3
 341 0006 1218     		adds	r2, r2, r0
 342 0008 9300     		lsls	r3, r2, #2
 343 000a 0E4A     		ldr	r2, .L25
 344 000c D318     		adds	r3, r2, r3
 345 000e 1B8B     		ldrh	r3, [r3, #24]
 346              	.LVL44:
ARM GAS  C:\Users\ash750\AppData\Local\Temp\ccFe1BVg.s 			page 23


 672:Generated_Source\PSoC4/CapSense_Filter.c ****     {
 347              		.loc 1 672 0
 348 0010 14E0     		b	.L22
 349              	.LVL45:
 350              	.L24:
 675:Generated_Source\PSoC4/CapSense_Filter.c ****         ptrSensor = &ptrSensor[sensorId];
 351              		.loc 1 675 0
 352 0012 EA00     		lsls	r2, r5, #3
 353 0014 5219     		adds	r2, r2, r5
 354 0016 9300     		lsls	r3, r2, #2
 355 0018 0A4A     		ldr	r2, .L25
 356              	.LVL46:
 357 001a D318     		adds	r3, r2, r3
 358              	.LVL47:
 676:Generated_Source\PSoC4/CapSense_Filter.c **** 
 359              		.loc 1 676 0
 360 001c 6200     		lsls	r2, r4, #1
 361              	.LVL48:
 362 001e 1219     		adds	r2, r2, r4
 363 0020 9100     		lsls	r1, r2, #2
 364 0022 9A68     		ldr	r2, [r3, #8]
 365 0024 9446     		mov	ip, r2
 366 0026 6144     		add	r1, r1, ip
 367              	.LVL49:
 680:Generated_Source\PSoC4/CapSense_Filter.c ****         #endif
 368              		.loc 1 680 0
 369 0028 DE68     		ldr	r6, [r3, #12]
 370 002a 3000     		movs	r0, r6
 371              	.LVL50:
 689:Generated_Source\PSoC4/CapSense_Filter.c ****         {
 372              		.loc 1 689 0
 373 002c 9A7E     		ldrb	r2, [r3, #26]
 374 002e 062A     		cmp	r2, #6
 375 0030 01D0     		beq	.L23
 694:Generated_Source\PSoC4/CapSense_Filter.c ****             #endif
 376              		.loc 1 694 0
 377 0032 6000     		lsls	r0, r4, #1
 378 0034 3018     		adds	r0, r6, r0
 379              	.L23:
 707:Generated_Source\PSoC4/CapSense_Filter.c ****         #endif /* (CapSense_REGULAR_RC_IIR_FILTER_EN || CapSense_PROX_RC_IIR_FILTER_EN) */
 380              		.loc 1 707 0
 381 0036 FFF7FEFF 		bl	CapSense_InitializeIIRInternal
 382              	.LVL51:
 672:Generated_Source\PSoC4/CapSense_Filter.c ****     {
 383              		.loc 1 672 0
 384 003a 2300     		movs	r3, r4
 385              	.LVL52:
 386              	.L22:
 672:Generated_Source\PSoC4/CapSense_Filter.c ****     {
 387              		.loc 1 672 0 is_stmt 0 discriminator 1
 388 003c 5C1E     		subs	r4, r3, #1
 389              	.LVL53:
 390 003e 002B     		cmp	r3, #0
 391 0040 E7D1     		bne	.L24
 730:Generated_Source\PSoC4/CapSense_Filter.c **** #endif /* ((CapSense_ENABLE == CapSense_RC_FILTER_EN) || \
 392              		.loc 1 730 0 is_stmt 1
 393              		@ sp needed
ARM GAS  C:\Users\ash750\AppData\Local\Temp\ccFe1BVg.s 			page 24


 394              	.LVL54:
 395              	.LVL55:
 396 0042 70BD     		pop	{r4, r5, r6, pc}
 397              	.L26:
 398              		.align	2
 399              	.L25:
 400 0044 00000000 		.word	CapSense_dsFlash
 401              		.cfi_endproc
 402              	.LFE11:
 403              		.size	CapSense_InitializeWidgetFilter, .-CapSense_InitializeWidgetFilter
 404              		.section	.text.CapSense_InitializeAllFilters,"ax",%progbits
 405              		.align	2
 406              		.global	CapSense_InitializeAllFilters
 407              		.code	16
 408              		.thumb_func
 409              		.type	CapSense_InitializeAllFilters, %function
 410              	CapSense_InitializeAllFilters:
 411              	.LFB10:
 618:Generated_Source\PSoC4/CapSense_Filter.c ****     uint32 widgetId;
 412              		.loc 1 618 0
 413              		.cfi_startproc
 414              		@ args = 0, pretend = 0, frame = 0
 415              		@ frame_needed = 0, uses_anonymous_args = 0
 416 0000 10B5     		push	{r4, lr}
 417              		.cfi_def_cfa_offset 8
 418              		.cfi_offset 4, -8
 419              		.cfi_offset 14, -4
 420              	.LVL56:
 621:Generated_Source\PSoC4/CapSense_Filter.c ****     {
 421              		.loc 1 621 0
 422 0002 0623     		movs	r3, #6
 423 0004 03E0     		b	.L28
 424              	.LVL57:
 425              	.L29:
 623:Generated_Source\PSoC4/CapSense_Filter.c ****     }
 426              		.loc 1 623 0
 427 0006 2000     		movs	r0, r4
 428 0008 FFF7FEFF 		bl	CapSense_InitializeWidgetFilter
 429              	.LVL58:
 621:Generated_Source\PSoC4/CapSense_Filter.c ****     {
 430              		.loc 1 621 0
 431 000c 2300     		movs	r3, r4
 432              	.LVL59:
 433              	.L28:
 621:Generated_Source\PSoC4/CapSense_Filter.c ****     {
 434              		.loc 1 621 0 is_stmt 0 discriminator 1
 435 000e 5C1E     		subs	r4, r3, #1
 436              	.LVL60:
 437 0010 002B     		cmp	r3, #0
 438 0012 F8D1     		bne	.L29
 625:Generated_Source\PSoC4/CapSense_Filter.c **** 
 439              		.loc 1 625 0 is_stmt 1
 440              		@ sp needed
 441              	.LVL61:
 442 0014 10BD     		pop	{r4, pc}
 443              		.cfi_endproc
 444              	.LFE10:
ARM GAS  C:\Users\ash750\AppData\Local\Temp\ccFe1BVg.s 			page 25


 445              		.size	CapSense_InitializeAllFilters, .-CapSense_InitializeAllFilters
 446 0016 C046     		.section	.text.CapSense_FtInitialize,"ax",%progbits
 447              		.align	2
 448              		.global	CapSense_FtInitialize
 449              		.code	16
 450              		.thumb_func
 451              		.type	CapSense_FtInitialize, %function
 452              	CapSense_FtInitialize:
 453              	.LFB0:
  63:Generated_Source\PSoC4/CapSense_Filter.c ****     #if ((CapSense_ENABLE == CapSense_RC_FILTER_EN) || \
 454              		.loc 1 63 0
 455              		.cfi_startproc
 456              		@ args = 0, pretend = 0, frame = 0
 457              		@ frame_needed = 0, uses_anonymous_args = 0
 458 0000 10B5     		push	{r4, lr}
 459              		.cfi_def_cfa_offset 8
 460              		.cfi_offset 4, -8
 461              		.cfi_offset 14, -4
  66:Generated_Source\PSoC4/CapSense_Filter.c ****     #endif /* ((CapSense_ENABLE == CapSense_RC_FILTER_EN) || \
 462              		.loc 1 66 0
 463 0002 FFF7FEFF 		bl	CapSense_InitializeAllFilters
 464              	.LVL62:
  69:Generated_Source\PSoC4/CapSense_Filter.c **** 
 465              		.loc 1 69 0
 466              		@ sp needed
 467 0006 10BD     		pop	{r4, pc}
 468              		.cfi_endproc
 469              	.LFE0:
 470              		.size	CapSense_FtInitialize, .-CapSense_FtInitialize
 471              		.section	.text.CapSense_InitializeIIR,"ax",%progbits
 472              		.align	2
 473              		.global	CapSense_InitializeIIR
 474              		.code	16
 475              		.thumb_func
 476              		.type	CapSense_InitializeIIR, %function
 477              	CapSense_InitializeIIR:
 478              	.LFB12:
 753:Generated_Source\PSoC4/CapSense_Filter.c ****     CapSense_FLASH_WD_STRUCT const *ptrWidget = &CapSense_dsFlash.wdgtArray[widgetId];
 479              		.loc 1 753 0
 480              		.cfi_startproc
 481              		@ args = 0, pretend = 0, frame = 8
 482              		@ frame_needed = 0, uses_anonymous_args = 0
 483              	.LVL63:
 484 0000 F0B5     		push	{r4, r5, r6, r7, lr}
 485              		.cfi_def_cfa_offset 20
 486              		.cfi_offset 4, -20
 487              		.cfi_offset 5, -16
 488              		.cfi_offset 6, -12
 489              		.cfi_offset 7, -8
 490              		.cfi_offset 14, -4
 491 0002 83B0     		sub	sp, sp, #12
 492              		.cfi_def_cfa_offset 32
 493 0004 0C00     		movs	r4, r1
 494              	.LVL64:
 759:Generated_Source\PSoC4/CapSense_Filter.c ****     ptrSensor = &ptrSensor[sensorId];
 495              		.loc 1 759 0
 496 0006 0D4F     		ldr	r7, .L33
ARM GAS  C:\Users\ash750\AppData\Local\Temp\ccFe1BVg.s 			page 26


 497 0008 C600     		lsls	r6, r0, #3
 498 000a 3218     		adds	r2, r6, r0
 499 000c 9300     		lsls	r3, r2, #2
 500 000e FB18     		adds	r3, r7, r3
 501              	.LVL65:
 760:Generated_Source\PSoC4/CapSense_Filter.c **** 
 502              		.loc 1 760 0
 503 0010 4A00     		lsls	r2, r1, #1
 504 0012 5218     		adds	r2, r2, r1
 505 0014 9100     		lsls	r1, r2, #2
 506              	.LVL66:
 507 0016 9A68     		ldr	r2, [r3, #8]
 508 0018 9446     		mov	ip, r2
 509 001a 6144     		add	r1, r1, ip
 510              	.LVL67:
 763:Generated_Source\PSoC4/CapSense_Filter.c **** 
 511              		.loc 1 763 0
 512 001c DD68     		ldr	r5, [r3, #12]
 513 001e 0195     		str	r5, [sp, #4]
 765:Generated_Source\PSoC4/CapSense_Filter.c ****     {
 514              		.loc 1 765 0
 515 0020 3018     		adds	r0, r6, r0
 516              	.LVL68:
 517 0022 8300     		lsls	r3, r0, #2
 518 0024 FB18     		adds	r3, r7, r3
 519 0026 9A7E     		ldrb	r2, [r3, #26]
 520 0028 062A     		cmp	r2, #6
 521 002a 02D0     		beq	.L32
 768:Generated_Source\PSoC4/CapSense_Filter.c ****         #endif /* (CapSense_REGULAR_SENSOR_EN) */
 522              		.loc 1 768 0
 523 002c 6400     		lsls	r4, r4, #1
 524              	.LVL69:
 525 002e 2B19     		adds	r3, r5, r4
 526              	.LVL70:
 527 0030 0193     		str	r3, [sp, #4]
 528              	.L32:
 778:Generated_Source\PSoC4/CapSense_Filter.c **** }
 529              		.loc 1 778 0
 530 0032 0198     		ldr	r0, [sp, #4]
 531 0034 FFF7FEFF 		bl	CapSense_InitializeIIRInternal
 532              	.LVL71:
 779:Generated_Source\PSoC4/CapSense_Filter.c **** 
 533              		.loc 1 779 0
 534 0038 03B0     		add	sp, sp, #12
 535              		@ sp needed
 536              	.LVL72:
 537              	.LVL73:
 538 003a F0BD     		pop	{r4, r5, r6, r7, pc}
 539              	.L34:
 540              		.align	2
 541              	.L33:
 542 003c 00000000 		.word	CapSense_dsFlash
 543              		.cfi_endproc
 544              	.LFE12:
 545              		.size	CapSense_InitializeIIR, .-CapSense_InitializeIIR
 546              		.section	.text.CapSense_FtIIR1stOrder,"ax",%progbits
 547              		.align	2
ARM GAS  C:\Users\ash750\AppData\Local\Temp\ccFe1BVg.s 			page 27


 548              		.global	CapSense_FtIIR1stOrder
 549              		.code	16
 550              		.thumb_func
 551              		.type	CapSense_FtIIR1stOrder, %function
 552              	CapSense_FtIIR1stOrder:
 553              	.LFB18:
 881:Generated_Source\PSoC4/CapSense_Filter.c **** 
 882:Generated_Source\PSoC4/CapSense_Filter.c **** 
 883:Generated_Source\PSoC4/CapSense_Filter.c **** /*******************************************************************************
 884:Generated_Source\PSoC4/CapSense_Filter.c **** * Function Name: CapSense_RunIIRInternal
 885:Generated_Source\PSoC4/CapSense_Filter.c **** ****************************************************************************//**
 886:Generated_Source\PSoC4/CapSense_Filter.c **** *
 887:Generated_Source\PSoC4/CapSense_Filter.c **** * \brief
 888:Generated_Source\PSoC4/CapSense_Filter.c **** *  Run the IIR filter.
 889:Generated_Source\PSoC4/CapSense_Filter.c **** *
 890:Generated_Source\PSoC4/CapSense_Filter.c **** * \details
 891:Generated_Source\PSoC4/CapSense_Filter.c **** *  Run the IIR filter.
 892:Generated_Source\PSoC4/CapSense_Filter.c **** *
 893:Generated_Source\PSoC4/CapSense_Filter.c **** * \param ptrFilterHistObj
 894:Generated_Source\PSoC4/CapSense_Filter.c **** *  The pointer to the filter RAM object of the sensor.
 895:Generated_Source\PSoC4/CapSense_Filter.c **** *
 896:Generated_Source\PSoC4/CapSense_Filter.c **** * \param ptrSensorObj
 897:Generated_Source\PSoC4/CapSense_Filter.c **** *  The pointer to the sensor RAM object of the sensor.
 898:Generated_Source\PSoC4/CapSense_Filter.c **** *
 899:Generated_Source\PSoC4/CapSense_Filter.c **** * \param wdType
 900:Generated_Source\PSoC4/CapSense_Filter.c **** *  Specifies the type of a widget.
 901:Generated_Source\PSoC4/CapSense_Filter.c **** *
 902:Generated_Source\PSoC4/CapSense_Filter.c **** *******************************************************************************/
 903:Generated_Source\PSoC4/CapSense_Filter.c **** void CapSense_RunIIRInternal(CapSense_PTR_FILTER_VARIANT ptrFilterHistObj,
 904:Generated_Source\PSoC4/CapSense_Filter.c ****                                      CapSense_RAM_SNS_STRUCT *ptrSensorObj, uint32 wdType)
 905:Generated_Source\PSoC4/CapSense_Filter.c **** {
 906:Generated_Source\PSoC4/CapSense_Filter.c ****     uint32 freqChannel;
 907:Generated_Source\PSoC4/CapSense_Filter.c ****     uint32 temp;
 908:Generated_Source\PSoC4/CapSense_Filter.c **** 
 909:Generated_Source\PSoC4/CapSense_Filter.c ****     for(freqChannel = CapSense_NUM_SCAN_FREQS; freqChannel-- > 0u;)
 910:Generated_Source\PSoC4/CapSense_Filter.c ****     {
 911:Generated_Source\PSoC4/CapSense_Filter.c ****         if ((CapSense_WD_TYPE_ENUM)wdType != CapSense_WD_PROXIMITY_E)
 912:Generated_Source\PSoC4/CapSense_Filter.c ****         {
 913:Generated_Source\PSoC4/CapSense_Filter.c ****             #if (CapSense_REGULAR_SENSOR_EN && CapSense_REGULAR_RC_IIR_FILTER_EN)
 914:Generated_Source\PSoC4/CapSense_Filter.c ****                 #if (CapSense_REGULAR_IIR_RC_TYPE == CapSense_IIR_FILTER_PERFORMANCE)
 915:Generated_Source\PSoC4/CapSense_Filter.c ****                     temp = ((uint32)ptrFilterHistObj.ptrRegular->regularChannel[freqChannel].iirHis
 916:Generated_Source\PSoC4/CapSense_Filter.c ****                     temp |= ptrFilterHistObj.ptrRegular->regularChannel[freqChannel].iirHistoryLow;
 917:Generated_Source\PSoC4/CapSense_Filter.c ****                     temp = CapSense_FtIIR1stOrder((uint32)ptrSensorObj->raw[freqChannel],
 918:Generated_Source\PSoC4/CapSense_Filter.c ****                                                         temp,
 919:Generated_Source\PSoC4/CapSense_Filter.c ****                                                         CapSense_REGULAR_IIR_RC_N,
 920:Generated_Source\PSoC4/CapSense_Filter.c ****                                                         CapSense_REGULAR_IIR_RC_SHIFT);
 921:Generated_Source\PSoC4/CapSense_Filter.c ****                     ptrFilterHistObj.ptrRegular->regularChannel[freqChannel].iirHistory = LO16(temp
 922:Generated_Source\PSoC4/CapSense_Filter.c ****                     ptrFilterHistObj.ptrRegular->regularChannel[freqChannel].iirHistoryLow = LO8(te
 923:Generated_Source\PSoC4/CapSense_Filter.c ****                     ptrSensorObj->raw[freqChannel] = LO16(temp >>CapSense_REGULAR_IIR_RC_SHIFT);
 924:Generated_Source\PSoC4/CapSense_Filter.c ****                 #else
 925:Generated_Source\PSoC4/CapSense_Filter.c ****                     temp =CapSense_FtIIR1stOrder((uint32)ptrSensorObj->raw[freqChannel],
 926:Generated_Source\PSoC4/CapSense_Filter.c ****                                                         (uint32)ptrFilterHistObj.ptrRegular->regula
 927:Generated_Source\PSoC4/CapSense_Filter.c ****                                                         CapSense_REGULAR_IIR_RC_N,
 928:Generated_Source\PSoC4/CapSense_Filter.c ****                                                         CapSense_REGULAR_IIR_RC_SHIFT);
 929:Generated_Source\PSoC4/CapSense_Filter.c ****                     ptrFilterHistObj.ptrRegular->regularChannel[freqChannel].iirHistory = LO16(temp
 930:Generated_Source\PSoC4/CapSense_Filter.c ****                     ptrSensorObj->raw[freqChannel] = LO16(temp >>CapSense_REGULAR_IIR_RC_SHIFT);
 931:Generated_Source\PSoC4/CapSense_Filter.c ****                 #endif /* (CapSense_REGULAR_IIR_RC_TYPE == CapSense_IIR_FILTER_PERFORMANCE) */
ARM GAS  C:\Users\ash750\AppData\Local\Temp\ccFe1BVg.s 			page 28


 932:Generated_Source\PSoC4/CapSense_Filter.c ****             #endif /* (CapSense_REGULAR_SENSOR_EN) */
 933:Generated_Source\PSoC4/CapSense_Filter.c ****         }
 934:Generated_Source\PSoC4/CapSense_Filter.c ****         else
 935:Generated_Source\PSoC4/CapSense_Filter.c ****         {
 936:Generated_Source\PSoC4/CapSense_Filter.c ****             #if (CapSense_PROXIMITY_SENSOR_EN && CapSense_PROX_RC_IIR_FILTER_EN)
 937:Generated_Source\PSoC4/CapSense_Filter.c ****                 #if (CapSense_PROX_IIR_RC_TYPE == CapSense_IIR_FILTER_PERFORMANCE)
 938:Generated_Source\PSoC4/CapSense_Filter.c ****                     temp =  ptrFilterHistObj.ptrProx->proxChannel[freqChannel].iirHistory << CapSen
 939:Generated_Source\PSoC4/CapSense_Filter.c ****                     temp |= ptrFilterHistObj.ptrProx->proxChannel[freqChannel].iirHistoryLow;
 940:Generated_Source\PSoC4/CapSense_Filter.c ****                     temp =CapSense_FtIIR1stOrder((uint32)ptrSensorObj->raw[freqChannel],
 941:Generated_Source\PSoC4/CapSense_Filter.c ****                                                         temp,
 942:Generated_Source\PSoC4/CapSense_Filter.c ****                                                         CapSense_PROX_IIR_RC_N,
 943:Generated_Source\PSoC4/CapSense_Filter.c ****                                                         CapSense_PROX_IIR_RC_SHIFT);
 944:Generated_Source\PSoC4/CapSense_Filter.c ****                     ptrFilterHistObj.ptrProx->proxChannel[freqChannel].iirHistory = LO16(temp >>Cap
 945:Generated_Source\PSoC4/CapSense_Filter.c ****                     ptrFilterHistObj.ptrProx->proxChannel[freqChannel].iirHistoryLow = LO8(temp);
 946:Generated_Source\PSoC4/CapSense_Filter.c ****                     ptrSensorObj->raw[freqChannel] = LO16(temp >>CapSense_PROX_IIR_RC_SHIFT);
 947:Generated_Source\PSoC4/CapSense_Filter.c ****                 #else
 948:Generated_Source\PSoC4/CapSense_Filter.c ****                     temp =CapSense_FtIIR1stOrder((uint32)ptrSensorObj->raw[freqChannel],
 949:Generated_Source\PSoC4/CapSense_Filter.c ****                                                         (uint32)ptrFilterHistObj.ptrProx->proxChann
 950:Generated_Source\PSoC4/CapSense_Filter.c ****                                                         CapSense_PROX_IIR_RC_N,
 951:Generated_Source\PSoC4/CapSense_Filter.c ****                                                         CapSense_PROX_IIR_RC_SHIFT);
 952:Generated_Source\PSoC4/CapSense_Filter.c ****                     ptrFilterHistObj.ptrProx->proxChannel[freqChannel].iirHistory = LO16(temp);
 953:Generated_Source\PSoC4/CapSense_Filter.c ****                     ptrSensorObj->raw[freqChannel] = LO16(temp >>CapSense_PROX_IIR_RC_SHIFT);
 954:Generated_Source\PSoC4/CapSense_Filter.c ****                 #endif /* (CapSense_PROX_IIR_RC_TYPE == CapSense_IIR_FILTER_PERFORMANCE) */
 955:Generated_Source\PSoC4/CapSense_Filter.c ****             #endif /* (CapSense_PROX_SENSOR_EN) */
 956:Generated_Source\PSoC4/CapSense_Filter.c ****         }
 957:Generated_Source\PSoC4/CapSense_Filter.c ****     }
 958:Generated_Source\PSoC4/CapSense_Filter.c **** }
 959:Generated_Source\PSoC4/CapSense_Filter.c **** #endif /* #if (CapSense_REGULAR_RC_IIR_FILTER_EN || CapSense_PROX_RC_IIR_FILTER_EN) */
 960:Generated_Source\PSoC4/CapSense_Filter.c **** 
 961:Generated_Source\PSoC4/CapSense_Filter.c **** 
 962:Generated_Source\PSoC4/CapSense_Filter.c **** #if (CapSense_REGULAR_RC_MEDIAN_FILTER_EN || CapSense_PROX_RC_MEDIAN_FILTER_EN)
 963:Generated_Source\PSoC4/CapSense_Filter.c **** 
 964:Generated_Source\PSoC4/CapSense_Filter.c **** /*******************************************************************************
 965:Generated_Source\PSoC4/CapSense_Filter.c **** * Function Name: CapSense_InitializeMedian
 966:Generated_Source\PSoC4/CapSense_Filter.c **** ****************************************************************************//**
 967:Generated_Source\PSoC4/CapSense_Filter.c **** *
 968:Generated_Source\PSoC4/CapSense_Filter.c **** * \brief
 969:Generated_Source\PSoC4/CapSense_Filter.c **** *  Initializes the Median filter history.
 970:Generated_Source\PSoC4/CapSense_Filter.c **** *
 971:Generated_Source\PSoC4/CapSense_Filter.c **** * \details
 972:Generated_Source\PSoC4/CapSense_Filter.c **** *  Initializes the Median filter history.
 973:Generated_Source\PSoC4/CapSense_Filter.c **** *
 974:Generated_Source\PSoC4/CapSense_Filter.c **** * \param widgetId
 975:Generated_Source\PSoC4/CapSense_Filter.c **** *  Specifies the ID number of the widget.
 976:Generated_Source\PSoC4/CapSense_Filter.c **** *
 977:Generated_Source\PSoC4/CapSense_Filter.c **** * \param sensorId
 978:Generated_Source\PSoC4/CapSense_Filter.c **** *  Specifies the ID number of the sensor in the widget.
 979:Generated_Source\PSoC4/CapSense_Filter.c **** *
 980:Generated_Source\PSoC4/CapSense_Filter.c **** *******************************************************************************/
 981:Generated_Source\PSoC4/CapSense_Filter.c **** void CapSense_InitializeMedian(uint32 widgetId, uint32 sensorId)
 982:Generated_Source\PSoC4/CapSense_Filter.c **** {
 983:Generated_Source\PSoC4/CapSense_Filter.c ****     CapSense_FLASH_WD_STRUCT const *ptrWidget = &CapSense_dsFlash.wdgtArray[widgetId];
 984:Generated_Source\PSoC4/CapSense_Filter.c ****     CapSense_RAM_SNS_STRUCT *ptrSensor = NULL;
 985:Generated_Source\PSoC4/CapSense_Filter.c ****     CapSense_PTR_FILTER_VARIANT ptrFilterHistObj;
 986:Generated_Source\PSoC4/CapSense_Filter.c **** 
 987:Generated_Source\PSoC4/CapSense_Filter.c ****     /* Find pointer to specified sensor object */
 988:Generated_Source\PSoC4/CapSense_Filter.c ****     ptrSensor = ptrWidget->ptr2SnsRam;
ARM GAS  C:\Users\ash750\AppData\Local\Temp\ccFe1BVg.s 			page 29


 989:Generated_Source\PSoC4/CapSense_Filter.c ****     ptrSensor = &ptrSensor[sensorId];
 990:Generated_Source\PSoC4/CapSense_Filter.c **** 
 991:Generated_Source\PSoC4/CapSense_Filter.c ****     /* Find pointer to specified filter sensor object */
 992:Generated_Source\PSoC4/CapSense_Filter.c ****     ptrFilterHistObj.ptr = ptrWidget->ptr2FltrHistory;
 993:Generated_Source\PSoC4/CapSense_Filter.c **** 
 994:Generated_Source\PSoC4/CapSense_Filter.c ****     if ((CapSense_WD_TYPE_ENUM)ptrWidget->wdgtType != CapSense_WD_PROXIMITY_E)
 995:Generated_Source\PSoC4/CapSense_Filter.c ****     {
 996:Generated_Source\PSoC4/CapSense_Filter.c ****         #if (CapSense_REGULAR_SENSOR_EN)
 997:Generated_Source\PSoC4/CapSense_Filter.c ****             ptrFilterHistObj.ptrRegular = &ptrFilterHistObj.ptrRegular[sensorId];
 998:Generated_Source\PSoC4/CapSense_Filter.c ****         #endif /* (CapSense_REGULAR_SENSOR_EN) */
 999:Generated_Source\PSoC4/CapSense_Filter.c ****     }
1000:Generated_Source\PSoC4/CapSense_Filter.c ****     else
1001:Generated_Source\PSoC4/CapSense_Filter.c ****     {
1002:Generated_Source\PSoC4/CapSense_Filter.c ****         #if (CapSense_PROXIMITY_SENSOR_EN)
1003:Generated_Source\PSoC4/CapSense_Filter.c ****             ptrFilterHistObj.ptrProx = &ptrFilterHistObj.ptrProx[sensorId];
1004:Generated_Source\PSoC4/CapSense_Filter.c ****         #endif /* (CapSense_PROXIMITY_SENSOR_EN) */
1005:Generated_Source\PSoC4/CapSense_Filter.c ****     }
1006:Generated_Source\PSoC4/CapSense_Filter.c **** 
1007:Generated_Source\PSoC4/CapSense_Filter.c ****     CapSense_InitializeMedianInternal(ptrFilterHistObj, ptrSensor, (uint32)ptrWidget->wdgtType);
1008:Generated_Source\PSoC4/CapSense_Filter.c **** }
1009:Generated_Source\PSoC4/CapSense_Filter.c **** 
1010:Generated_Source\PSoC4/CapSense_Filter.c **** 
1011:Generated_Source\PSoC4/CapSense_Filter.c **** /*******************************************************************************
1012:Generated_Source\PSoC4/CapSense_Filter.c **** * Function Name: CapSense_RunMedian
1013:Generated_Source\PSoC4/CapSense_Filter.c **** ****************************************************************************//**
1014:Generated_Source\PSoC4/CapSense_Filter.c **** *
1015:Generated_Source\PSoC4/CapSense_Filter.c **** * \brief
1016:Generated_Source\PSoC4/CapSense_Filter.c **** *  Executes the Median filter algorithm on a sensor indicated by an input
1017:Generated_Source\PSoC4/CapSense_Filter.c **** *  parameter.
1018:Generated_Source\PSoC4/CapSense_Filter.c **** *
1019:Generated_Source\PSoC4/CapSense_Filter.c **** * \details
1020:Generated_Source\PSoC4/CapSense_Filter.c **** *  Executes the Median filter algorithm on a sensor indicated by an input
1021:Generated_Source\PSoC4/CapSense_Filter.c **** *  parameter.
1022:Generated_Source\PSoC4/CapSense_Filter.c **** *
1023:Generated_Source\PSoC4/CapSense_Filter.c **** * \param widgetId
1024:Generated_Source\PSoC4/CapSense_Filter.c **** *  Specifies the ID number of the widget.
1025:Generated_Source\PSoC4/CapSense_Filter.c **** *
1026:Generated_Source\PSoC4/CapSense_Filter.c **** * \param sensorId
1027:Generated_Source\PSoC4/CapSense_Filter.c **** *  Specifies the ID number of the sensor in the widget.
1028:Generated_Source\PSoC4/CapSense_Filter.c **** *
1029:Generated_Source\PSoC4/CapSense_Filter.c **** *******************************************************************************/
1030:Generated_Source\PSoC4/CapSense_Filter.c **** void CapSense_RunMedian(uint32 widgetId, uint32 sensorId)
1031:Generated_Source\PSoC4/CapSense_Filter.c **** {
1032:Generated_Source\PSoC4/CapSense_Filter.c ****     CapSense_FLASH_WD_STRUCT const *ptrWidget = &CapSense_dsFlash.wdgtArray[widgetId];
1033:Generated_Source\PSoC4/CapSense_Filter.c ****     CapSense_RAM_SNS_STRUCT *ptrSensor = NULL;
1034:Generated_Source\PSoC4/CapSense_Filter.c ****     CapSense_PTR_FILTER_VARIANT ptrFilterHistObj;
1035:Generated_Source\PSoC4/CapSense_Filter.c **** 
1036:Generated_Source\PSoC4/CapSense_Filter.c ****     /* Find pointer to specified sensor object */
1037:Generated_Source\PSoC4/CapSense_Filter.c ****     ptrSensor = ptrWidget->ptr2SnsRam;
1038:Generated_Source\PSoC4/CapSense_Filter.c ****     ptrSensor = &ptrSensor[sensorId];
1039:Generated_Source\PSoC4/CapSense_Filter.c **** 
1040:Generated_Source\PSoC4/CapSense_Filter.c ****     /* Find pointer to specified filter sensor object */
1041:Generated_Source\PSoC4/CapSense_Filter.c ****     ptrFilterHistObj.ptr = ptrWidget->ptr2FltrHistory;
1042:Generated_Source\PSoC4/CapSense_Filter.c **** 
1043:Generated_Source\PSoC4/CapSense_Filter.c ****     if ((CapSense_WD_TYPE_ENUM)ptrWidget->wdgtType != CapSense_WD_PROXIMITY_E)
1044:Generated_Source\PSoC4/CapSense_Filter.c ****     {
1045:Generated_Source\PSoC4/CapSense_Filter.c ****         #if (CapSense_REGULAR_SENSOR_EN)
ARM GAS  C:\Users\ash750\AppData\Local\Temp\ccFe1BVg.s 			page 30


1046:Generated_Source\PSoC4/CapSense_Filter.c ****             ptrFilterHistObj.ptrRegular = &ptrFilterHistObj.ptrRegular[sensorId];
1047:Generated_Source\PSoC4/CapSense_Filter.c ****         #endif /* (CapSense_REGULAR_SENSOR_EN) */
1048:Generated_Source\PSoC4/CapSense_Filter.c ****     }
1049:Generated_Source\PSoC4/CapSense_Filter.c ****     else
1050:Generated_Source\PSoC4/CapSense_Filter.c ****     {
1051:Generated_Source\PSoC4/CapSense_Filter.c ****         #if (CapSense_PROXIMITY_SENSOR_EN)
1052:Generated_Source\PSoC4/CapSense_Filter.c ****             ptrFilterHistObj.ptrProx = &ptrFilterHistObj.ptrProx[sensorId];
1053:Generated_Source\PSoC4/CapSense_Filter.c ****         #endif /* (CapSense_PROXIMITY_SENSOR_EN) */
1054:Generated_Source\PSoC4/CapSense_Filter.c ****     }
1055:Generated_Source\PSoC4/CapSense_Filter.c **** 
1056:Generated_Source\PSoC4/CapSense_Filter.c ****     CapSense_RunMedianInternal(ptrFilterHistObj, ptrSensor, (uint32)ptrWidget->wdgtType);
1057:Generated_Source\PSoC4/CapSense_Filter.c **** }
1058:Generated_Source\PSoC4/CapSense_Filter.c **** 
1059:Generated_Source\PSoC4/CapSense_Filter.c **** 
1060:Generated_Source\PSoC4/CapSense_Filter.c **** /*******************************************************************************
1061:Generated_Source\PSoC4/CapSense_Filter.c **** * Function Name: CapSense_InitializeMedianInternal
1062:Generated_Source\PSoC4/CapSense_Filter.c **** ****************************************************************************//**
1063:Generated_Source\PSoC4/CapSense_Filter.c **** *
1064:Generated_Source\PSoC4/CapSense_Filter.c **** * \brief
1065:Generated_Source\PSoC4/CapSense_Filter.c **** *  Initializes the Median filter.
1066:Generated_Source\PSoC4/CapSense_Filter.c **** *
1067:Generated_Source\PSoC4/CapSense_Filter.c **** * \details
1068:Generated_Source\PSoC4/CapSense_Filter.c **** *  Initializes the Median filter.
1069:Generated_Source\PSoC4/CapSense_Filter.c **** *
1070:Generated_Source\PSoC4/CapSense_Filter.c **** * \param ptrFilterHistObj
1071:Generated_Source\PSoC4/CapSense_Filter.c **** *  The pointer to the filter RAM object of the sensor.
1072:Generated_Source\PSoC4/CapSense_Filter.c **** *
1073:Generated_Source\PSoC4/CapSense_Filter.c **** * \param ptrSensorObj
1074:Generated_Source\PSoC4/CapSense_Filter.c **** *  The pointer to the sensor RAM object of the sensor.
1075:Generated_Source\PSoC4/CapSense_Filter.c **** *
1076:Generated_Source\PSoC4/CapSense_Filter.c **** * \param wdType
1077:Generated_Source\PSoC4/CapSense_Filter.c **** *  Specifies the type of a widget.
1078:Generated_Source\PSoC4/CapSense_Filter.c **** *
1079:Generated_Source\PSoC4/CapSense_Filter.c **** *******************************************************************************/
1080:Generated_Source\PSoC4/CapSense_Filter.c **** void CapSense_InitializeMedianInternal(CapSense_PTR_FILTER_VARIANT ptrFilterHistObj,
1081:Generated_Source\PSoC4/CapSense_Filter.c ****                                                CapSense_RAM_SNS_STRUCT *ptrSensorObj, uint32 wdType
1082:Generated_Source\PSoC4/CapSense_Filter.c **** {
1083:Generated_Source\PSoC4/CapSense_Filter.c ****     uint32 freqChannel;
1084:Generated_Source\PSoC4/CapSense_Filter.c **** 
1085:Generated_Source\PSoC4/CapSense_Filter.c ****     for(freqChannel = CapSense_NUM_SCAN_FREQS; freqChannel-- > 0u;)
1086:Generated_Source\PSoC4/CapSense_Filter.c ****     {
1087:Generated_Source\PSoC4/CapSense_Filter.c ****         if ((CapSense_WD_TYPE_ENUM)wdType != CapSense_WD_PROXIMITY_E)
1088:Generated_Source\PSoC4/CapSense_Filter.c ****         {
1089:Generated_Source\PSoC4/CapSense_Filter.c ****             #if (CapSense_REGULAR_SENSOR_EN && CapSense_REGULAR_RC_MEDIAN_FILTER_EN)
1090:Generated_Source\PSoC4/CapSense_Filter.c ****                 ptrFilterHistObj.ptrRegular->regularChannel[freqChannel].medHistory[0u] = ptrSensor
1091:Generated_Source\PSoC4/CapSense_Filter.c ****                 ptrFilterHistObj.ptrRegular->regularChannel[freqChannel].medHistory[1u] = ptrSensor
1092:Generated_Source\PSoC4/CapSense_Filter.c ****             #endif /* (CapSense_REGULAR_SENSOR_EN) */
1093:Generated_Source\PSoC4/CapSense_Filter.c ****         }
1094:Generated_Source\PSoC4/CapSense_Filter.c ****         else
1095:Generated_Source\PSoC4/CapSense_Filter.c ****         {
1096:Generated_Source\PSoC4/CapSense_Filter.c ****             #if (CapSense_PROXIMITY_SENSOR_EN && CapSense_PROX_RC_MEDIAN_FILTER_EN)
1097:Generated_Source\PSoC4/CapSense_Filter.c ****                 ptrFilterHistObj.ptrProx->proxChannel[freqChannel].medHistory[0u] = ptrSensorObj->r
1098:Generated_Source\PSoC4/CapSense_Filter.c ****                 ptrFilterHistObj.ptrProx->proxChannel[freqChannel].medHistory[1u] = ptrSensorObj->r
1099:Generated_Source\PSoC4/CapSense_Filter.c ****             #endif /* (CapSense_PROXIMITY_SENSOR_EN) */
1100:Generated_Source\PSoC4/CapSense_Filter.c ****         }
1101:Generated_Source\PSoC4/CapSense_Filter.c ****     }
1102:Generated_Source\PSoC4/CapSense_Filter.c **** }
ARM GAS  C:\Users\ash750\AppData\Local\Temp\ccFe1BVg.s 			page 31


1103:Generated_Source\PSoC4/CapSense_Filter.c **** 
1104:Generated_Source\PSoC4/CapSense_Filter.c **** 
1105:Generated_Source\PSoC4/CapSense_Filter.c **** /*******************************************************************************
1106:Generated_Source\PSoC4/CapSense_Filter.c **** * Function Name: CapSense_RunMedianInternal
1107:Generated_Source\PSoC4/CapSense_Filter.c **** ****************************************************************************//**
1108:Generated_Source\PSoC4/CapSense_Filter.c **** *
1109:Generated_Source\PSoC4/CapSense_Filter.c **** * \brief
1110:Generated_Source\PSoC4/CapSense_Filter.c **** *  Runs the Median filter.
1111:Generated_Source\PSoC4/CapSense_Filter.c **** *
1112:Generated_Source\PSoC4/CapSense_Filter.c **** * \details
1113:Generated_Source\PSoC4/CapSense_Filter.c **** *  Runs the Median filter.
1114:Generated_Source\PSoC4/CapSense_Filter.c **** *
1115:Generated_Source\PSoC4/CapSense_Filter.c **** * \param ptrFilterHistObj
1116:Generated_Source\PSoC4/CapSense_Filter.c **** *  The pointer to the filter RAM object of the sensor.
1117:Generated_Source\PSoC4/CapSense_Filter.c **** *
1118:Generated_Source\PSoC4/CapSense_Filter.c **** * \param ptrSensorObj
1119:Generated_Source\PSoC4/CapSense_Filter.c **** *  The pointer to the sensor RAM object of the sensor.
1120:Generated_Source\PSoC4/CapSense_Filter.c **** *
1121:Generated_Source\PSoC4/CapSense_Filter.c **** * \param wdType
1122:Generated_Source\PSoC4/CapSense_Filter.c **** *  Specifies the type of a widget.
1123:Generated_Source\PSoC4/CapSense_Filter.c **** *
1124:Generated_Source\PSoC4/CapSense_Filter.c **** *******************************************************************************/
1125:Generated_Source\PSoC4/CapSense_Filter.c **** void CapSense_RunMedianInternal(CapSense_PTR_FILTER_VARIANT ptrFilterHistObj,
1126:Generated_Source\PSoC4/CapSense_Filter.c ****                                         CapSense_RAM_SNS_STRUCT *ptrSensorObj, uint32 wdType)
1127:Generated_Source\PSoC4/CapSense_Filter.c **** {
1128:Generated_Source\PSoC4/CapSense_Filter.c ****     uint32 freqChannel;
1129:Generated_Source\PSoC4/CapSense_Filter.c **** 
1130:Generated_Source\PSoC4/CapSense_Filter.c ****     #if ((CapSense_REGULAR_SENSOR_EN && CapSense_REGULAR_RC_MEDIAN_FILTER_EN) || \
1131:Generated_Source\PSoC4/CapSense_Filter.c ****          (CapSense_PROXIMITY_SENSOR_EN && CapSense_PROX_RC_MEDIAN_FILTER_EN))
1132:Generated_Source\PSoC4/CapSense_Filter.c ****         uint32 temp;
1133:Generated_Source\PSoC4/CapSense_Filter.c ****     #endif
1134:Generated_Source\PSoC4/CapSense_Filter.c **** 
1135:Generated_Source\PSoC4/CapSense_Filter.c ****     for(freqChannel = CapSense_NUM_SCAN_FREQS; freqChannel-- > 0u;)
1136:Generated_Source\PSoC4/CapSense_Filter.c ****     {
1137:Generated_Source\PSoC4/CapSense_Filter.c ****         if ((CapSense_WD_TYPE_ENUM)wdType != CapSense_WD_PROXIMITY_E)
1138:Generated_Source\PSoC4/CapSense_Filter.c ****         {
1139:Generated_Source\PSoC4/CapSense_Filter.c ****             #if (CapSense_REGULAR_SENSOR_EN && CapSense_REGULAR_RC_MEDIAN_FILTER_EN)
1140:Generated_Source\PSoC4/CapSense_Filter.c ****                 temp = CapSense_FtMedian((uint32)ptrSensorObj->raw[freqChannel],\
1141:Generated_Source\PSoC4/CapSense_Filter.c ****                                                  (uint32)ptrFilterHistObj.ptrRegular->regularChanne
1142:Generated_Source\PSoC4/CapSense_Filter.c ****                                                  (uint32)ptrFilterHistObj.ptrRegular->regularChanne
1143:Generated_Source\PSoC4/CapSense_Filter.c ****                 ptrFilterHistObj.ptrRegular->regularChannel[freqChannel].medHistory[1u] = \
1144:Generated_Source\PSoC4/CapSense_Filter.c ****                 ptrFilterHistObj.ptrRegular->regularChannel[freqChannel].medHistory[0u];
1145:Generated_Source\PSoC4/CapSense_Filter.c ****                 ptrFilterHistObj.ptrRegular->regularChannel[freqChannel].medHistory[0u] = ptrSensor
1146:Generated_Source\PSoC4/CapSense_Filter.c ****                 ptrSensorObj->raw[freqChannel] = LO16(temp);
1147:Generated_Source\PSoC4/CapSense_Filter.c ****             #endif /* (CapSense_REGULAR_SENSOR_EN) */
1148:Generated_Source\PSoC4/CapSense_Filter.c ****         }
1149:Generated_Source\PSoC4/CapSense_Filter.c ****         else
1150:Generated_Source\PSoC4/CapSense_Filter.c ****         {
1151:Generated_Source\PSoC4/CapSense_Filter.c ****             #if (CapSense_PROXIMITY_SENSOR_EN && CapSense_PROX_RC_MEDIAN_FILTER_EN)
1152:Generated_Source\PSoC4/CapSense_Filter.c ****                 temp = CapSense_FtMedian((uint32)ptrSensorObj->raw[freqChannel],\
1153:Generated_Source\PSoC4/CapSense_Filter.c ****                                                  (uint32)ptrFilterHistObj.ptrProx->proxChannel[freq
1154:Generated_Source\PSoC4/CapSense_Filter.c ****                                                  (uint32)ptrFilterHistObj.ptrProx->proxChannel[freq
1155:Generated_Source\PSoC4/CapSense_Filter.c ****                 ptrFilterHistObj.ptrProx->proxChannel[freqChannel].medHistory[1u] = \
1156:Generated_Source\PSoC4/CapSense_Filter.c ****                 ptrFilterHistObj.ptrProx->proxChannel[freqChannel].medHistory[0u];
1157:Generated_Source\PSoC4/CapSense_Filter.c ****                 ptrFilterHistObj.ptrProx->proxChannel[freqChannel].medHistory[0u] = ptrSensorObj->r
1158:Generated_Source\PSoC4/CapSense_Filter.c ****                 ptrSensorObj->raw[freqChannel] = LO16(temp);
1159:Generated_Source\PSoC4/CapSense_Filter.c ****             #endif /* (CapSense_PROXIMITY_SENSOR_EN) */
ARM GAS  C:\Users\ash750\AppData\Local\Temp\ccFe1BVg.s 			page 32


1160:Generated_Source\PSoC4/CapSense_Filter.c ****         }
1161:Generated_Source\PSoC4/CapSense_Filter.c ****     }
1162:Generated_Source\PSoC4/CapSense_Filter.c **** }
1163:Generated_Source\PSoC4/CapSense_Filter.c **** #endif /* (CapSense_REGULAR_RC_MEDIAN_FILTER_EN || CapSense_PROX_RC_MEDIAN_FILTER_EN) */
1164:Generated_Source\PSoC4/CapSense_Filter.c **** 
1165:Generated_Source\PSoC4/CapSense_Filter.c **** 
1166:Generated_Source\PSoC4/CapSense_Filter.c **** #if (CapSense_REGULAR_RC_AVERAGE_FILTER_EN || CapSense_PROX_RC_AVERAGE_FILTER_EN)
1167:Generated_Source\PSoC4/CapSense_Filter.c **** 
1168:Generated_Source\PSoC4/CapSense_Filter.c **** /*******************************************************************************
1169:Generated_Source\PSoC4/CapSense_Filter.c **** * Function Name: CapSense_InitializeAverage
1170:Generated_Source\PSoC4/CapSense_Filter.c **** ****************************************************************************//**
1171:Generated_Source\PSoC4/CapSense_Filter.c **** *
1172:Generated_Source\PSoC4/CapSense_Filter.c **** * \brief
1173:Generated_Source\PSoC4/CapSense_Filter.c **** *  Initializes the average filter history.
1174:Generated_Source\PSoC4/CapSense_Filter.c **** *
1175:Generated_Source\PSoC4/CapSense_Filter.c **** * \details
1176:Generated_Source\PSoC4/CapSense_Filter.c **** *  Initializes the average filter history.
1177:Generated_Source\PSoC4/CapSense_Filter.c **** *
1178:Generated_Source\PSoC4/CapSense_Filter.c **** * \param widgetId
1179:Generated_Source\PSoC4/CapSense_Filter.c **** *  Specifies the ID number of the widget.
1180:Generated_Source\PSoC4/CapSense_Filter.c **** *
1181:Generated_Source\PSoC4/CapSense_Filter.c **** * \param sensorId
1182:Generated_Source\PSoC4/CapSense_Filter.c **** *  Specifies the ID number of the sensor in the widget.
1183:Generated_Source\PSoC4/CapSense_Filter.c **** *
1184:Generated_Source\PSoC4/CapSense_Filter.c **** *******************************************************************************/
1185:Generated_Source\PSoC4/CapSense_Filter.c **** void CapSense_InitializeAverage(uint32 widgetId, uint32 sensorId)
1186:Generated_Source\PSoC4/CapSense_Filter.c **** {
1187:Generated_Source\PSoC4/CapSense_Filter.c ****     CapSense_FLASH_WD_STRUCT const *ptrWidget = &CapSense_dsFlash.wdgtArray[widgetId];
1188:Generated_Source\PSoC4/CapSense_Filter.c ****     CapSense_RAM_SNS_STRUCT *ptrSensor = NULL;
1189:Generated_Source\PSoC4/CapSense_Filter.c ****     CapSense_PTR_FILTER_VARIANT ptrFilterHistObj;
1190:Generated_Source\PSoC4/CapSense_Filter.c **** 
1191:Generated_Source\PSoC4/CapSense_Filter.c ****     /* Find pointer to specified sensor object */
1192:Generated_Source\PSoC4/CapSense_Filter.c ****     ptrSensor = ptrWidget->ptr2SnsRam;
1193:Generated_Source\PSoC4/CapSense_Filter.c ****     ptrSensor = &ptrSensor[sensorId];
1194:Generated_Source\PSoC4/CapSense_Filter.c **** 
1195:Generated_Source\PSoC4/CapSense_Filter.c ****     /* Find pointer to specified filter sensor object */
1196:Generated_Source\PSoC4/CapSense_Filter.c ****     ptrFilterHistObj.ptr = ptrWidget->ptr2FltrHistory;
1197:Generated_Source\PSoC4/CapSense_Filter.c **** 
1198:Generated_Source\PSoC4/CapSense_Filter.c ****     if ((CapSense_WD_TYPE_ENUM)ptrWidget->wdgtType != CapSense_WD_PROXIMITY_E)
1199:Generated_Source\PSoC4/CapSense_Filter.c ****     {
1200:Generated_Source\PSoC4/CapSense_Filter.c ****         #if (CapSense_REGULAR_SENSOR_EN)
1201:Generated_Source\PSoC4/CapSense_Filter.c ****             ptrFilterHistObj.ptrRegular = &ptrFilterHistObj.ptrRegular[sensorId];
1202:Generated_Source\PSoC4/CapSense_Filter.c ****         #endif /* (CapSense_REGULAR_SENSOR_EN) */
1203:Generated_Source\PSoC4/CapSense_Filter.c ****     }
1204:Generated_Source\PSoC4/CapSense_Filter.c ****     else
1205:Generated_Source\PSoC4/CapSense_Filter.c ****     {
1206:Generated_Source\PSoC4/CapSense_Filter.c ****         #if (CapSense_PROXIMITY_SENSOR_EN)
1207:Generated_Source\PSoC4/CapSense_Filter.c ****             ptrFilterHistObj.ptrProx = &ptrFilterHistObj.ptrProx[sensorId];
1208:Generated_Source\PSoC4/CapSense_Filter.c ****         #endif /* (CapSense_PROXIMITY_SENSOR_EN) */
1209:Generated_Source\PSoC4/CapSense_Filter.c ****     }
1210:Generated_Source\PSoC4/CapSense_Filter.c **** 
1211:Generated_Source\PSoC4/CapSense_Filter.c ****     CapSense_InitializeAverageInternal(ptrFilterHistObj, ptrSensor, (uint32)ptrWidget->wdgtType);
1212:Generated_Source\PSoC4/CapSense_Filter.c **** }
1213:Generated_Source\PSoC4/CapSense_Filter.c **** 
1214:Generated_Source\PSoC4/CapSense_Filter.c **** 
1215:Generated_Source\PSoC4/CapSense_Filter.c **** /*******************************************************************************
1216:Generated_Source\PSoC4/CapSense_Filter.c **** * Function Name: CapSense_RunAverage
ARM GAS  C:\Users\ash750\AppData\Local\Temp\ccFe1BVg.s 			page 33


1217:Generated_Source\PSoC4/CapSense_Filter.c **** ****************************************************************************//**
1218:Generated_Source\PSoC4/CapSense_Filter.c **** *
1219:Generated_Source\PSoC4/CapSense_Filter.c **** * \brief
1220:Generated_Source\PSoC4/CapSense_Filter.c **** *  Executes the average filter algorithm on a sensor indicated by an input
1221:Generated_Source\PSoC4/CapSense_Filter.c **** *  parameter.
1222:Generated_Source\PSoC4/CapSense_Filter.c **** *
1223:Generated_Source\PSoC4/CapSense_Filter.c **** * \details
1224:Generated_Source\PSoC4/CapSense_Filter.c **** *  Executes the average filter algorithm on a sensor indicated by an input
1225:Generated_Source\PSoC4/CapSense_Filter.c **** *  parameter.
1226:Generated_Source\PSoC4/CapSense_Filter.c **** *
1227:Generated_Source\PSoC4/CapSense_Filter.c **** * \param widgetId
1228:Generated_Source\PSoC4/CapSense_Filter.c **** *  Specifies the ID number of the widget.
1229:Generated_Source\PSoC4/CapSense_Filter.c **** *
1230:Generated_Source\PSoC4/CapSense_Filter.c **** * \param sensorId
1231:Generated_Source\PSoC4/CapSense_Filter.c **** *  Specifies the ID number of the sensor in the widget.
1232:Generated_Source\PSoC4/CapSense_Filter.c **** *
1233:Generated_Source\PSoC4/CapSense_Filter.c **** *******************************************************************************/
1234:Generated_Source\PSoC4/CapSense_Filter.c **** void CapSense_RunAverage(uint32 widgetId, uint32 sensorId)
1235:Generated_Source\PSoC4/CapSense_Filter.c **** {
1236:Generated_Source\PSoC4/CapSense_Filter.c ****     CapSense_FLASH_WD_STRUCT const *ptrWidget = &CapSense_dsFlash.wdgtArray[widgetId];
1237:Generated_Source\PSoC4/CapSense_Filter.c ****     CapSense_RAM_SNS_STRUCT *ptrSensor = NULL;
1238:Generated_Source\PSoC4/CapSense_Filter.c ****     CapSense_PTR_FILTER_VARIANT ptrFilterHistObj;
1239:Generated_Source\PSoC4/CapSense_Filter.c **** 
1240:Generated_Source\PSoC4/CapSense_Filter.c ****     /* Find pointer to specified sensor object */
1241:Generated_Source\PSoC4/CapSense_Filter.c ****     ptrSensor = ptrWidget->ptr2SnsRam;
1242:Generated_Source\PSoC4/CapSense_Filter.c ****     ptrSensor = &ptrSensor[sensorId];
1243:Generated_Source\PSoC4/CapSense_Filter.c **** 
1244:Generated_Source\PSoC4/CapSense_Filter.c ****     /* Find pointer to specified filter sensor object */
1245:Generated_Source\PSoC4/CapSense_Filter.c ****     ptrFilterHistObj.ptr = ptrWidget->ptr2FltrHistory;
1246:Generated_Source\PSoC4/CapSense_Filter.c **** 
1247:Generated_Source\PSoC4/CapSense_Filter.c ****     if ((CapSense_WD_TYPE_ENUM)ptrWidget->wdgtType != CapSense_WD_PROXIMITY_E)
1248:Generated_Source\PSoC4/CapSense_Filter.c ****     {
1249:Generated_Source\PSoC4/CapSense_Filter.c ****         #if (CapSense_REGULAR_SENSOR_EN)
1250:Generated_Source\PSoC4/CapSense_Filter.c ****             ptrFilterHistObj.ptrRegular = &ptrFilterHistObj.ptrRegular[sensorId];
1251:Generated_Source\PSoC4/CapSense_Filter.c ****         #endif /* (CapSense_REGULAR_SENSOR_EN) */
1252:Generated_Source\PSoC4/CapSense_Filter.c ****     }
1253:Generated_Source\PSoC4/CapSense_Filter.c ****     else
1254:Generated_Source\PSoC4/CapSense_Filter.c ****     {
1255:Generated_Source\PSoC4/CapSense_Filter.c ****         #if (CapSense_PROXIMITY_SENSOR_EN)
1256:Generated_Source\PSoC4/CapSense_Filter.c ****             ptrFilterHistObj.ptrProx = &ptrFilterHistObj.ptrProx[sensorId];
1257:Generated_Source\PSoC4/CapSense_Filter.c ****         #endif /* (CapSense_PROXIMITY_SENSOR_EN) */
1258:Generated_Source\PSoC4/CapSense_Filter.c ****     }
1259:Generated_Source\PSoC4/CapSense_Filter.c **** 
1260:Generated_Source\PSoC4/CapSense_Filter.c ****     CapSense_RunAverageInternal(ptrFilterHistObj, ptrSensor, (uint32)ptrWidget->wdgtType);
1261:Generated_Source\PSoC4/CapSense_Filter.c **** }
1262:Generated_Source\PSoC4/CapSense_Filter.c **** 
1263:Generated_Source\PSoC4/CapSense_Filter.c **** 
1264:Generated_Source\PSoC4/CapSense_Filter.c **** /*******************************************************************************
1265:Generated_Source\PSoC4/CapSense_Filter.c **** * Function Name: CapSense_InitializeAverageInternal
1266:Generated_Source\PSoC4/CapSense_Filter.c **** ****************************************************************************//**
1267:Generated_Source\PSoC4/CapSense_Filter.c **** *
1268:Generated_Source\PSoC4/CapSense_Filter.c **** * \brief
1269:Generated_Source\PSoC4/CapSense_Filter.c **** *  Initializes the average filter.
1270:Generated_Source\PSoC4/CapSense_Filter.c **** *
1271:Generated_Source\PSoC4/CapSense_Filter.c **** * \details
1272:Generated_Source\PSoC4/CapSense_Filter.c **** *  Initializes the average filter.
1273:Generated_Source\PSoC4/CapSense_Filter.c **** *
ARM GAS  C:\Users\ash750\AppData\Local\Temp\ccFe1BVg.s 			page 34


1274:Generated_Source\PSoC4/CapSense_Filter.c **** * \param ptrFilterHistObj
1275:Generated_Source\PSoC4/CapSense_Filter.c **** *  The pointer to the filter RAM object of the sensor.
1276:Generated_Source\PSoC4/CapSense_Filter.c **** *
1277:Generated_Source\PSoC4/CapSense_Filter.c **** * \param ptrSensorObj
1278:Generated_Source\PSoC4/CapSense_Filter.c **** *  The pointer to the sensor RAM object of the sensor.
1279:Generated_Source\PSoC4/CapSense_Filter.c **** *
1280:Generated_Source\PSoC4/CapSense_Filter.c **** * \param wdType
1281:Generated_Source\PSoC4/CapSense_Filter.c **** *  Specifies the type of a widget.
1282:Generated_Source\PSoC4/CapSense_Filter.c **** *
1283:Generated_Source\PSoC4/CapSense_Filter.c **** *******************************************************************************/
1284:Generated_Source\PSoC4/CapSense_Filter.c **** void CapSense_InitializeAverageInternal(CapSense_PTR_FILTER_VARIANT ptrFilterHistObj,\
1285:Generated_Source\PSoC4/CapSense_Filter.c ****                                                   CapSense_RAM_SNS_STRUCT *ptrSensorObj, uint32 wdT
1286:Generated_Source\PSoC4/CapSense_Filter.c **** {
1287:Generated_Source\PSoC4/CapSense_Filter.c ****     uint32 freqChannel;
1288:Generated_Source\PSoC4/CapSense_Filter.c **** 
1289:Generated_Source\PSoC4/CapSense_Filter.c ****     for(freqChannel = CapSense_NUM_SCAN_FREQS; freqChannel-- > 0u;)
1290:Generated_Source\PSoC4/CapSense_Filter.c ****     {
1291:Generated_Source\PSoC4/CapSense_Filter.c ****         if ((CapSense_WD_TYPE_ENUM)wdType != CapSense_WD_PROXIMITY_E)
1292:Generated_Source\PSoC4/CapSense_Filter.c ****         {
1293:Generated_Source\PSoC4/CapSense_Filter.c ****             #if (CapSense_REGULAR_SENSOR_EN && CapSense_REGULAR_RC_AVERAGE_FILTER_EN)
1294:Generated_Source\PSoC4/CapSense_Filter.c ****                 ptrFilterHistObj.ptrRegular->regularChannel[freqChannel].avgHistory[0] = ptrSensorO
1295:Generated_Source\PSoC4/CapSense_Filter.c ****                 #if (CapSense_REGULAR_AVERAGE_LEN == CapSense_AVERAGE_FILTER_LEN_4)
1296:Generated_Source\PSoC4/CapSense_Filter.c ****                     ptrFilterHistObj.ptrRegular->regularChannel[freqChannel].avgHistory[1u] = ptrSe
1297:Generated_Source\PSoC4/CapSense_Filter.c ****                     ptrFilterHistObj.ptrRegular->regularChannel[freqChannel].avgHistory[2u] = ptrSe
1298:Generated_Source\PSoC4/CapSense_Filter.c ****                 #endif /* CapSense_REGULAR_AVERAGE_LEN == CapSense_AVERAGE_FILTER_LEN_4 */
1299:Generated_Source\PSoC4/CapSense_Filter.c ****             #endif /* (CapSense_REGULAR_SENSOR_EN) */
1300:Generated_Source\PSoC4/CapSense_Filter.c ****         }
1301:Generated_Source\PSoC4/CapSense_Filter.c ****         else
1302:Generated_Source\PSoC4/CapSense_Filter.c ****         {
1303:Generated_Source\PSoC4/CapSense_Filter.c ****             #if (CapSense_PROXIMITY_SENSOR_EN && CapSense_PROX_RC_AVERAGE_FILTER_EN)
1304:Generated_Source\PSoC4/CapSense_Filter.c ****                 ptrFilterHistObj.ptrProx->proxChannel[freqChannel].avgHistory[0] = ptrSensorObj->ra
1305:Generated_Source\PSoC4/CapSense_Filter.c ****                     #if (CapSense_PROX_AVERAGE_LEN == CapSense_AVERAGE_FILTER_LEN_4)
1306:Generated_Source\PSoC4/CapSense_Filter.c ****                         ptrFilterHistObj.ptrProx->proxChannel[freqChannel].avgHistory[1u] = ptrSens
1307:Generated_Source\PSoC4/CapSense_Filter.c ****                         ptrFilterHistObj.ptrProx->proxChannel[freqChannel].avgHistory[2u] = ptrSens
1308:Generated_Source\PSoC4/CapSense_Filter.c ****                     #endif /* CapSense_REGULAR_AVERAGE_LEN == CapSense_AVERAGE_FILTER_LEN_4 */
1309:Generated_Source\PSoC4/CapSense_Filter.c ****             #endif /* (CapSense_PROXIMITY_SENSOR_EN) */
1310:Generated_Source\PSoC4/CapSense_Filter.c ****         }
1311:Generated_Source\PSoC4/CapSense_Filter.c ****     }
1312:Generated_Source\PSoC4/CapSense_Filter.c **** }
1313:Generated_Source\PSoC4/CapSense_Filter.c **** 
1314:Generated_Source\PSoC4/CapSense_Filter.c **** 
1315:Generated_Source\PSoC4/CapSense_Filter.c **** /*******************************************************************************
1316:Generated_Source\PSoC4/CapSense_Filter.c **** * Function Name: CapSense_RunAverageInternal
1317:Generated_Source\PSoC4/CapSense_Filter.c **** ****************************************************************************//**
1318:Generated_Source\PSoC4/CapSense_Filter.c **** *
1319:Generated_Source\PSoC4/CapSense_Filter.c **** * \brief
1320:Generated_Source\PSoC4/CapSense_Filter.c **** *  Runs the average filter.
1321:Generated_Source\PSoC4/CapSense_Filter.c **** *
1322:Generated_Source\PSoC4/CapSense_Filter.c **** * \details
1323:Generated_Source\PSoC4/CapSense_Filter.c **** *  Runs the average filter.
1324:Generated_Source\PSoC4/CapSense_Filter.c **** *
1325:Generated_Source\PSoC4/CapSense_Filter.c **** * \param ptrFilterHistObj
1326:Generated_Source\PSoC4/CapSense_Filter.c **** *  The pointer to the filter RAM object of the sensor.
1327:Generated_Source\PSoC4/CapSense_Filter.c **** *
1328:Generated_Source\PSoC4/CapSense_Filter.c **** * \param ptrSensorObj
1329:Generated_Source\PSoC4/CapSense_Filter.c **** *  The pointer to the sensor RAM object of the sensor.
1330:Generated_Source\PSoC4/CapSense_Filter.c **** *
ARM GAS  C:\Users\ash750\AppData\Local\Temp\ccFe1BVg.s 			page 35


1331:Generated_Source\PSoC4/CapSense_Filter.c **** * \param wdType
1332:Generated_Source\PSoC4/CapSense_Filter.c **** *  Specifies the type of a widget.
1333:Generated_Source\PSoC4/CapSense_Filter.c **** *
1334:Generated_Source\PSoC4/CapSense_Filter.c **** *******************************************************************************/
1335:Generated_Source\PSoC4/CapSense_Filter.c **** void CapSense_RunAverageInternal(CapSense_PTR_FILTER_VARIANT ptrFilterHistObj,\
1336:Generated_Source\PSoC4/CapSense_Filter.c ****                                            CapSense_RAM_SNS_STRUCT *ptrSensorObj, uint32 wdType)
1337:Generated_Source\PSoC4/CapSense_Filter.c **** {
1338:Generated_Source\PSoC4/CapSense_Filter.c ****     uint32 freqChannel;
1339:Generated_Source\PSoC4/CapSense_Filter.c ****     uint32 temp;
1340:Generated_Source\PSoC4/CapSense_Filter.c **** 
1341:Generated_Source\PSoC4/CapSense_Filter.c ****     for(freqChannel = CapSense_NUM_SCAN_FREQS; freqChannel-- > 0u;)
1342:Generated_Source\PSoC4/CapSense_Filter.c ****     {
1343:Generated_Source\PSoC4/CapSense_Filter.c ****         if ((CapSense_WD_TYPE_ENUM)wdType != CapSense_WD_PROXIMITY_E)
1344:Generated_Source\PSoC4/CapSense_Filter.c ****         {
1345:Generated_Source\PSoC4/CapSense_Filter.c ****             #if (CapSense_REGULAR_SENSOR_EN && CapSense_REGULAR_RC_AVERAGE_FILTER_EN)
1346:Generated_Source\PSoC4/CapSense_Filter.c ****                 #if (CapSense_REGULAR_AVERAGE_LEN == CapSense_AVERAGE_FILTER_LEN_2)
1347:Generated_Source\PSoC4/CapSense_Filter.c ****                     temp = ((uint32)ptrSensorObj->raw[freqChannel] +
1348:Generated_Source\PSoC4/CapSense_Filter.c ****                             (uint32)ptrFilterHistObj.ptrRegular->regularChannel[freqChannel].avgHis
1349:Generated_Source\PSoC4/CapSense_Filter.c ****                     ptrFilterHistObj.ptrRegular->regularChannel[freqChannel].avgHistory[0] = ptrSen
1350:Generated_Source\PSoC4/CapSense_Filter.c ****                     ptrSensorObj->raw[freqChannel] = LO16(temp);
1351:Generated_Source\PSoC4/CapSense_Filter.c ****                 #else
1352:Generated_Source\PSoC4/CapSense_Filter.c ****                     temp = ((uint32)ptrSensorObj->raw[freqChannel] +
1353:Generated_Source\PSoC4/CapSense_Filter.c ****                             (uint32)ptrFilterHistObj.ptrRegular->regularChannel[freqChannel].avgHis
1354:Generated_Source\PSoC4/CapSense_Filter.c ****                             (uint32)ptrFilterHistObj.ptrRegular->regularChannel[freqChannel].avgHis
1355:Generated_Source\PSoC4/CapSense_Filter.c ****                             (uint32)ptrFilterHistObj.ptrRegular->regularChannel[freqChannel].avgHis
1356:Generated_Source\PSoC4/CapSense_Filter.c **** 
1357:Generated_Source\PSoC4/CapSense_Filter.c ****                     ptrFilterHistObj.ptrRegular->regularChannel[freqChannel].avgHistory[2u] =
1358:Generated_Source\PSoC4/CapSense_Filter.c ****                     ptrFilterHistObj.ptrRegular->regularChannel[freqChannel].avgHistory[1u];
1359:Generated_Source\PSoC4/CapSense_Filter.c ****                     ptrFilterHistObj.ptrRegular->regularChannel[freqChannel].avgHistory[1u] =
1360:Generated_Source\PSoC4/CapSense_Filter.c ****                     ptrFilterHistObj.ptrRegular->regularChannel[freqChannel].avgHistory[0];
1361:Generated_Source\PSoC4/CapSense_Filter.c ****                     ptrFilterHistObj.ptrRegular->regularChannel[freqChannel].avgHistory[0] = ptrSen
1362:Generated_Source\PSoC4/CapSense_Filter.c ****                     ptrSensorObj->raw[freqChannel] = LO16(temp);
1363:Generated_Source\PSoC4/CapSense_Filter.c ****                 #endif /* CapSense_REGULAR_AVERAGE_LEN == CapSense_AVERAGE_FILTER_LEN_4 */
1364:Generated_Source\PSoC4/CapSense_Filter.c ****             #endif /* (CapSense_REGULAR_SENSOR_EN) */
1365:Generated_Source\PSoC4/CapSense_Filter.c ****         }
1366:Generated_Source\PSoC4/CapSense_Filter.c ****         else
1367:Generated_Source\PSoC4/CapSense_Filter.c ****         {
1368:Generated_Source\PSoC4/CapSense_Filter.c ****             #if (CapSense_PROXIMITY_SENSOR_EN && CapSense_PROX_RC_AVERAGE_FILTER_EN)
1369:Generated_Source\PSoC4/CapSense_Filter.c ****                 #if (CapSense_PROX_AVERAGE_LEN == CapSense_AVERAGE_FILTER_LEN_2)
1370:Generated_Source\PSoC4/CapSense_Filter.c ****                     temp = ((uint32)ptrSensorObj->raw[freqChannel] +
1371:Generated_Source\PSoC4/CapSense_Filter.c ****                             (uint32)ptrFilterHistObj.ptrProx->proxChannel[freqChannel].avgHistory[0
1372:Generated_Source\PSoC4/CapSense_Filter.c ****                     ptrFilterHistObj.ptrProx->proxChannel[freqChannel].avgHistory[0] = ptrSensorObj
1373:Generated_Source\PSoC4/CapSense_Filter.c ****                     ptrSensorObj->raw[freqChannel] = LO16(temp);
1374:Generated_Source\PSoC4/CapSense_Filter.c ****                 #else
1375:Generated_Source\PSoC4/CapSense_Filter.c ****                     temp = ((uint32)ptrSensorObj->raw[freqChannel] +
1376:Generated_Source\PSoC4/CapSense_Filter.c ****                             (uint32)ptrFilterHistObj.ptrProx->proxChannel[freqChannel].avgHistory[0
1377:Generated_Source\PSoC4/CapSense_Filter.c ****                             (uint32)ptrFilterHistObj.ptrProx->proxChannel[freqChannel].avgHistory[1
1378:Generated_Source\PSoC4/CapSense_Filter.c ****                             (uint32)ptrFilterHistObj.ptrProx->proxChannel[freqChannel].avgHistory[2
1379:Generated_Source\PSoC4/CapSense_Filter.c **** 
1380:Generated_Source\PSoC4/CapSense_Filter.c ****                     ptrFilterHistObj.ptrProx->proxChannel[freqChannel].avgHistory[2u] =
1381:Generated_Source\PSoC4/CapSense_Filter.c ****                     ptrFilterHistObj.ptrProx->proxChannel[freqChannel].avgHistory[1u];
1382:Generated_Source\PSoC4/CapSense_Filter.c ****                     ptrFilterHistObj.ptrProx->proxChannel[freqChannel].avgHistory[1u] =
1383:Generated_Source\PSoC4/CapSense_Filter.c ****                     ptrFilterHistObj.ptrProx->proxChannel[freqChannel].avgHistory[0];
1384:Generated_Source\PSoC4/CapSense_Filter.c ****                     ptrFilterHistObj.ptrProx->proxChannel[freqChannel].avgHistory[0] = ptrSensorObj
1385:Generated_Source\PSoC4/CapSense_Filter.c ****                     ptrSensorObj->raw[freqChannel] = LO16(temp);
1386:Generated_Source\PSoC4/CapSense_Filter.c ****                 #endif /* CapSense_PROX_AVERAGE_LEN == CapSense_AVERAGE_FILTER_LEN_4 */
1387:Generated_Source\PSoC4/CapSense_Filter.c ****             #endif /* (CapSense_PROXIMITY_SENSOR_EN) */
ARM GAS  C:\Users\ash750\AppData\Local\Temp\ccFe1BVg.s 			page 36


1388:Generated_Source\PSoC4/CapSense_Filter.c ****         }
1389:Generated_Source\PSoC4/CapSense_Filter.c ****     }
1390:Generated_Source\PSoC4/CapSense_Filter.c **** }
1391:Generated_Source\PSoC4/CapSense_Filter.c **** #endif /* (CapSense_REGULAR_RC_AVERAGE_FILTER_EN || CapSense_PROX_RC_AVERAGE_FILTER_EN) */
1392:Generated_Source\PSoC4/CapSense_Filter.c **** 
1393:Generated_Source\PSoC4/CapSense_Filter.c **** #if (CapSense_ENABLE == CapSense_ALP_FILTER_EN)
1394:Generated_Source\PSoC4/CapSense_Filter.c **** /*******************************************************************************
1395:Generated_Source\PSoC4/CapSense_Filter.c **** * Function Name: CapSense_InitializeALP
1396:Generated_Source\PSoC4/CapSense_Filter.c **** ****************************************************************************//**
1397:Generated_Source\PSoC4/CapSense_Filter.c **** *
1398:Generated_Source\PSoC4/CapSense_Filter.c **** * \brief
1399:Generated_Source\PSoC4/CapSense_Filter.c **** *  Initializes the ALP filter history.
1400:Generated_Source\PSoC4/CapSense_Filter.c **** *
1401:Generated_Source\PSoC4/CapSense_Filter.c **** * \details
1402:Generated_Source\PSoC4/CapSense_Filter.c **** *  Initializes the ALP filter history.
1403:Generated_Source\PSoC4/CapSense_Filter.c **** *
1404:Generated_Source\PSoC4/CapSense_Filter.c **** * \param widgetId
1405:Generated_Source\PSoC4/CapSense_Filter.c **** *  Specifies the ID number of the widget.
1406:Generated_Source\PSoC4/CapSense_Filter.c **** *
1407:Generated_Source\PSoC4/CapSense_Filter.c **** * \param sensorId
1408:Generated_Source\PSoC4/CapSense_Filter.c **** *  Specifies the ID number of the sensor in the widget.
1409:Generated_Source\PSoC4/CapSense_Filter.c **** *
1410:Generated_Source\PSoC4/CapSense_Filter.c **** *******************************************************************************/
1411:Generated_Source\PSoC4/CapSense_Filter.c **** void CapSense_InitializeALP(uint32 widgetId, uint32 sensorId)
1412:Generated_Source\PSoC4/CapSense_Filter.c **** {
1413:Generated_Source\PSoC4/CapSense_Filter.c ****     CapSense_FLASH_WD_STRUCT const *ptrWidget = &CapSense_dsFlash.wdgtArray[widgetId];
1414:Generated_Source\PSoC4/CapSense_Filter.c ****     CapSense_RAM_SNS_STRUCT *ptrSensor = NULL;
1415:Generated_Source\PSoC4/CapSense_Filter.c ****     CapSense_PTR_FILTER_VARIANT ptrFilterHistObj;
1416:Generated_Source\PSoC4/CapSense_Filter.c **** 
1417:Generated_Source\PSoC4/CapSense_Filter.c ****     /* Find pointer to specified sensor object */
1418:Generated_Source\PSoC4/CapSense_Filter.c ****     ptrSensor = ptrWidget->ptr2SnsRam;
1419:Generated_Source\PSoC4/CapSense_Filter.c ****     ptrSensor = &ptrSensor[sensorId];
1420:Generated_Source\PSoC4/CapSense_Filter.c **** 
1421:Generated_Source\PSoC4/CapSense_Filter.c ****     /* Find pointer to specified filter sensor object */
1422:Generated_Source\PSoC4/CapSense_Filter.c ****     ptrFilterHistObj.ptr = ptrWidget->ptr2FltrHistory;
1423:Generated_Source\PSoC4/CapSense_Filter.c ****     ptrFilterHistObj.ptrAlp = &ptrFilterHistObj.ptrAlp[sensorId];
1424:Generated_Source\PSoC4/CapSense_Filter.c ****     CapSense_InitializeALPInternal(ptrFilterHistObj, ptrSensor, (uint32)ptrWidget->wdgtType);
1425:Generated_Source\PSoC4/CapSense_Filter.c **** }
1426:Generated_Source\PSoC4/CapSense_Filter.c **** 
1427:Generated_Source\PSoC4/CapSense_Filter.c **** 
1428:Generated_Source\PSoC4/CapSense_Filter.c **** /*******************************************************************************
1429:Generated_Source\PSoC4/CapSense_Filter.c **** * Function Name: CapSense_RunALP
1430:Generated_Source\PSoC4/CapSense_Filter.c **** ****************************************************************************//**
1431:Generated_Source\PSoC4/CapSense_Filter.c **** *
1432:Generated_Source\PSoC4/CapSense_Filter.c **** * \brief
1433:Generated_Source\PSoC4/CapSense_Filter.c **** *  Executes the ALP filter algorithm on a sensor indicated by an input
1434:Generated_Source\PSoC4/CapSense_Filter.c **** *  parameter.
1435:Generated_Source\PSoC4/CapSense_Filter.c **** *
1436:Generated_Source\PSoC4/CapSense_Filter.c **** * \details
1437:Generated_Source\PSoC4/CapSense_Filter.c **** *  Executes the ALP filter algorithm on a sensor indicated by an input
1438:Generated_Source\PSoC4/CapSense_Filter.c **** *  parameter.
1439:Generated_Source\PSoC4/CapSense_Filter.c **** *
1440:Generated_Source\PSoC4/CapSense_Filter.c **** * \param widgetId
1441:Generated_Source\PSoC4/CapSense_Filter.c **** *  Specifies the ID number of the widget.
1442:Generated_Source\PSoC4/CapSense_Filter.c **** *
1443:Generated_Source\PSoC4/CapSense_Filter.c **** * \param sensorId
1444:Generated_Source\PSoC4/CapSense_Filter.c **** *  Specifies the ID number of the sensor in the widget.
ARM GAS  C:\Users\ash750\AppData\Local\Temp\ccFe1BVg.s 			page 37


1445:Generated_Source\PSoC4/CapSense_Filter.c **** *
1446:Generated_Source\PSoC4/CapSense_Filter.c **** *******************************************************************************/
1447:Generated_Source\PSoC4/CapSense_Filter.c **** void CapSense_RunALP(uint32 widgetId, uint32 sensorId)
1448:Generated_Source\PSoC4/CapSense_Filter.c **** {
1449:Generated_Source\PSoC4/CapSense_Filter.c ****     CapSense_FLASH_WD_STRUCT const *ptrWidget = &CapSense_dsFlash.wdgtArray[widgetId];
1450:Generated_Source\PSoC4/CapSense_Filter.c ****     CapSense_RAM_SNS_STRUCT *ptrSensor = NULL;
1451:Generated_Source\PSoC4/CapSense_Filter.c ****     CapSense_PTR_FILTER_VARIANT ptrFilterHistObj;
1452:Generated_Source\PSoC4/CapSense_Filter.c ****     ALP_FLTR_CONFIG_STRUCT alpFilterConfig;
1453:Generated_Source\PSoC4/CapSense_Filter.c ****     ALP_FLTR_CONFIG_STRUCT *ptrAlpFilterConfig = &alpFilterConfig;
1454:Generated_Source\PSoC4/CapSense_Filter.c ****     CapSense_RAM_WD_BASE_STRUCT *ptrRamWidget = ptrWidget->ptr2WdgtRam;
1455:Generated_Source\PSoC4/CapSense_Filter.c **** 
1456:Generated_Source\PSoC4/CapSense_Filter.c ****     /* Find pointer to specified sensor object */
1457:Generated_Source\PSoC4/CapSense_Filter.c ****     ptrSensor = ptrWidget->ptr2SnsRam;
1458:Generated_Source\PSoC4/CapSense_Filter.c ****     ptrSensor = &ptrSensor[sensorId];
1459:Generated_Source\PSoC4/CapSense_Filter.c **** 
1460:Generated_Source\PSoC4/CapSense_Filter.c ****     ptrAlpFilterConfig->configParam0 = ptrRamWidget->alpOnTh;
1461:Generated_Source\PSoC4/CapSense_Filter.c ****     ptrAlpFilterConfig->configParam1 = ptrRamWidget->alpOffTh;
1462:Generated_Source\PSoC4/CapSense_Filter.c ****     ptrAlpFilterConfig->configParam2 = ptrRamWidget->fingerTh;
1463:Generated_Source\PSoC4/CapSense_Filter.c ****     ptrAlpFilterConfig->configParam3 = ptrRamWidget->noiseTh;
1464:Generated_Source\PSoC4/CapSense_Filter.c ****     ptrAlpFilterConfig->configParam4 = ptrRamWidget->hysteresis;
1465:Generated_Source\PSoC4/CapSense_Filter.c **** 
1466:Generated_Source\PSoC4/CapSense_Filter.c ****     /* Find pointer to specified filter sensor object */
1467:Generated_Source\PSoC4/CapSense_Filter.c ****     ptrFilterHistObj.ptr = ptrWidget->ptr2FltrHistory;
1468:Generated_Source\PSoC4/CapSense_Filter.c ****     ptrFilterHistObj.ptrAlp = &ptrFilterHistObj.ptrAlp[sensorId];
1469:Generated_Source\PSoC4/CapSense_Filter.c **** 
1470:Generated_Source\PSoC4/CapSense_Filter.c ****     if ((CapSense_WD_TYPE_ENUM)ptrWidget->wdgtType != CapSense_WD_PROXIMITY_E)
1471:Generated_Source\PSoC4/CapSense_Filter.c ****     {
1472:Generated_Source\PSoC4/CapSense_Filter.c ****         #if (CapSense_REGULAR_SENSOR_EN)
1473:Generated_Source\PSoC4/CapSense_Filter.c ****             ptrAlpFilterConfig->configParam5 = CapSense_REGULAR_RC_ALP_FILTER_COEFF;
1474:Generated_Source\PSoC4/CapSense_Filter.c ****         #endif /* (CapSense_REGULAR_SENSOR_EN) */
1475:Generated_Source\PSoC4/CapSense_Filter.c ****     }
1476:Generated_Source\PSoC4/CapSense_Filter.c ****     else
1477:Generated_Source\PSoC4/CapSense_Filter.c ****     {
1478:Generated_Source\PSoC4/CapSense_Filter.c ****         #if (CapSense_PROXIMITY_SENSOR_EN)
1479:Generated_Source\PSoC4/CapSense_Filter.c ****             ptrAlpFilterConfig->configParam5 = CapSense_PROX_RC_ALP_FILTER_COEFF;
1480:Generated_Source\PSoC4/CapSense_Filter.c ****         #endif /* (CapSense_PROXIMITY_SENSOR_EN) */
1481:Generated_Source\PSoC4/CapSense_Filter.c ****     }
1482:Generated_Source\PSoC4/CapSense_Filter.c ****     CapSense_RunALPInternal(ptrFilterHistObj, ptrAlpFilterConfig, ptrSensor, (uint32)ptrWidget->wdg
1483:Generated_Source\PSoC4/CapSense_Filter.c **** }
1484:Generated_Source\PSoC4/CapSense_Filter.c **** 
1485:Generated_Source\PSoC4/CapSense_Filter.c **** 
1486:Generated_Source\PSoC4/CapSense_Filter.c **** /*******************************************************************************
1487:Generated_Source\PSoC4/CapSense_Filter.c **** * Function Name: CapSense_InitializeALPInternal
1488:Generated_Source\PSoC4/CapSense_Filter.c **** ****************************************************************************//**
1489:Generated_Source\PSoC4/CapSense_Filter.c **** *
1490:Generated_Source\PSoC4/CapSense_Filter.c **** * \brief
1491:Generated_Source\PSoC4/CapSense_Filter.c **** *  Initializes the ALP filter.
1492:Generated_Source\PSoC4/CapSense_Filter.c **** *
1493:Generated_Source\PSoC4/CapSense_Filter.c **** * \details
1494:Generated_Source\PSoC4/CapSense_Filter.c **** *  Initializes the ALP filter.
1495:Generated_Source\PSoC4/CapSense_Filter.c **** *
1496:Generated_Source\PSoC4/CapSense_Filter.c **** * \param ptrFilterHistObj
1497:Generated_Source\PSoC4/CapSense_Filter.c **** *  The pointer to the filter RAM object of the sensor.
1498:Generated_Source\PSoC4/CapSense_Filter.c **** *
1499:Generated_Source\PSoC4/CapSense_Filter.c **** * \param ptrSensorObj
1500:Generated_Source\PSoC4/CapSense_Filter.c **** *  The pointer to the sensor RAM object of the sensor.
1501:Generated_Source\PSoC4/CapSense_Filter.c **** *
ARM GAS  C:\Users\ash750\AppData\Local\Temp\ccFe1BVg.s 			page 38


1502:Generated_Source\PSoC4/CapSense_Filter.c **** * \param wdType
1503:Generated_Source\PSoC4/CapSense_Filter.c **** *  Specifies the type of a widget.
1504:Generated_Source\PSoC4/CapSense_Filter.c **** *
1505:Generated_Source\PSoC4/CapSense_Filter.c **** *
1506:Generated_Source\PSoC4/CapSense_Filter.c **** *******************************************************************************/
1507:Generated_Source\PSoC4/CapSense_Filter.c **** void CapSense_InitializeALPInternal(CapSense_PTR_FILTER_VARIANT ptrFilterHistObj,
1508:Generated_Source\PSoC4/CapSense_Filter.c ****                                             CapSense_RAM_SNS_STRUCT *ptrSensorObj,
1509:Generated_Source\PSoC4/CapSense_Filter.c ****                                             uint32 wdType)
1510:Generated_Source\PSoC4/CapSense_Filter.c **** {
1511:Generated_Source\PSoC4/CapSense_Filter.c ****     uint32 freqChannel;
1512:Generated_Source\PSoC4/CapSense_Filter.c **** 
1513:Generated_Source\PSoC4/CapSense_Filter.c ****     for(freqChannel = CapSense_NUM_SCAN_FREQS; freqChannel-- > 0u;)
1514:Generated_Source\PSoC4/CapSense_Filter.c ****     {
1515:Generated_Source\PSoC4/CapSense_Filter.c ****         if ((CapSense_WD_TYPE_ENUM)wdType != CapSense_WD_PROXIMITY_E)
1516:Generated_Source\PSoC4/CapSense_Filter.c ****         {
1517:Generated_Source\PSoC4/CapSense_Filter.c ****             #if (CapSense_REGULAR_SENSOR_EN && CapSense_REGULAR_RC_ALP_FILTER_EN)
1518:Generated_Source\PSoC4/CapSense_Filter.c ****                 ALP_Initialize(&ptrFilterHistObj.ptrAlp->channel[freqChannel], &ptrSensorObj->raw[f
1519:Generated_Source\PSoC4/CapSense_Filter.c ****             #endif
1520:Generated_Source\PSoC4/CapSense_Filter.c ****         }
1521:Generated_Source\PSoC4/CapSense_Filter.c ****         else
1522:Generated_Source\PSoC4/CapSense_Filter.c ****         {
1523:Generated_Source\PSoC4/CapSense_Filter.c ****             #if (CapSense_PROXIMITY_SENSOR_EN && CapSense_PROX_RC_ALP_FILTER_EN)
1524:Generated_Source\PSoC4/CapSense_Filter.c ****                 ALP_Initialize(&ptrFilterHistObj.ptrAlp->channel[freqChannel], &ptrSensorObj->raw[f
1525:Generated_Source\PSoC4/CapSense_Filter.c ****             #endif
1526:Generated_Source\PSoC4/CapSense_Filter.c ****         }
1527:Generated_Source\PSoC4/CapSense_Filter.c ****     }
1528:Generated_Source\PSoC4/CapSense_Filter.c **** }
1529:Generated_Source\PSoC4/CapSense_Filter.c **** 
1530:Generated_Source\PSoC4/CapSense_Filter.c **** /*******************************************************************************
1531:Generated_Source\PSoC4/CapSense_Filter.c **** * Function Name: CapSense_ConfigRunALPInternal
1532:Generated_Source\PSoC4/CapSense_Filter.c **** ****************************************************************************//**
1533:Generated_Source\PSoC4/CapSense_Filter.c **** *
1534:Generated_Source\PSoC4/CapSense_Filter.c **** * \brief
1535:Generated_Source\PSoC4/CapSense_Filter.c **** *  Prepares ALP configuration structure and runs the filter.
1536:Generated_Source\PSoC4/CapSense_Filter.c **** *
1537:Generated_Source\PSoC4/CapSense_Filter.c **** * \details
1538:Generated_Source\PSoC4/CapSense_Filter.c **** *  Prepares ALP configuration structure and runs the filter.
1539:Generated_Source\PSoC4/CapSense_Filter.c **** *
1540:Generated_Source\PSoC4/CapSense_Filter.c **** * \param ptrFilterHistObj
1541:Generated_Source\PSoC4/CapSense_Filter.c **** *  The pointer to the filter RAM object of the sensor.
1542:Generated_Source\PSoC4/CapSense_Filter.c **** *
1543:Generated_Source\PSoC4/CapSense_Filter.c **** * \param ptrRamWdgt
1544:Generated_Source\PSoC4/CapSense_Filter.c **** *  The pointer to the RAM widget object.
1545:Generated_Source\PSoC4/CapSense_Filter.c **** *
1546:Generated_Source\PSoC4/CapSense_Filter.c **** * \param ptrSensorObj
1547:Generated_Source\PSoC4/CapSense_Filter.c **** *  The pointer to the sensor RAM object of the sensor.
1548:Generated_Source\PSoC4/CapSense_Filter.c **** *
1549:Generated_Source\PSoC4/CapSense_Filter.c **** * \param wdType
1550:Generated_Source\PSoC4/CapSense_Filter.c **** *  Specifies the type of a widget.
1551:Generated_Source\PSoC4/CapSense_Filter.c **** *
1552:Generated_Source\PSoC4/CapSense_Filter.c **** *******************************************************************************/
1553:Generated_Source\PSoC4/CapSense_Filter.c **** void CapSense_ConfigRunALPInternal(CapSense_PTR_FILTER_VARIANT ptrFilterHistObj,
1554:Generated_Source\PSoC4/CapSense_Filter.c ****                                     CapSense_RAM_WD_BASE_STRUCT *ptrRamWdgt,
1555:Generated_Source\PSoC4/CapSense_Filter.c ****                                     CapSense_RAM_SNS_STRUCT *ptrSensorObj,
1556:Generated_Source\PSoC4/CapSense_Filter.c ****                                     uint32 wdType)
1557:Generated_Source\PSoC4/CapSense_Filter.c **** {
1558:Generated_Source\PSoC4/CapSense_Filter.c ****     ALP_FLTR_CONFIG_STRUCT alpFilterConfig;
ARM GAS  C:\Users\ash750\AppData\Local\Temp\ccFe1BVg.s 			page 39


1559:Generated_Source\PSoC4/CapSense_Filter.c **** 
1560:Generated_Source\PSoC4/CapSense_Filter.c ****     alpFilterConfig.configParam0 = ptrRamWdgt->alpOnTh;
1561:Generated_Source\PSoC4/CapSense_Filter.c ****     alpFilterConfig.configParam1 = ptrRamWdgt->alpOffTh;
1562:Generated_Source\PSoC4/CapSense_Filter.c ****     alpFilterConfig.configParam2 = ptrRamWdgt->fingerTh;
1563:Generated_Source\PSoC4/CapSense_Filter.c ****     alpFilterConfig.configParam3 = ptrRamWdgt->noiseTh;
1564:Generated_Source\PSoC4/CapSense_Filter.c ****     alpFilterConfig.configParam4 = ptrRamWdgt->hysteresis;
1565:Generated_Source\PSoC4/CapSense_Filter.c **** 
1566:Generated_Source\PSoC4/CapSense_Filter.c ****     CapSense_RunALPInternal(ptrFilterHistObj, &alpFilterConfig, ptrSensorObj, wdType);
1567:Generated_Source\PSoC4/CapSense_Filter.c **** }
1568:Generated_Source\PSoC4/CapSense_Filter.c **** 
1569:Generated_Source\PSoC4/CapSense_Filter.c **** /*******************************************************************************
1570:Generated_Source\PSoC4/CapSense_Filter.c **** * Function Name: CapSense_RunALPInternal
1571:Generated_Source\PSoC4/CapSense_Filter.c **** ****************************************************************************//**
1572:Generated_Source\PSoC4/CapSense_Filter.c **** *
1573:Generated_Source\PSoC4/CapSense_Filter.c **** * \brief
1574:Generated_Source\PSoC4/CapSense_Filter.c **** *  Runs the ALP filter.
1575:Generated_Source\PSoC4/CapSense_Filter.c **** *
1576:Generated_Source\PSoC4/CapSense_Filter.c **** * \details
1577:Generated_Source\PSoC4/CapSense_Filter.c **** *  Runs the ALP filter.
1578:Generated_Source\PSoC4/CapSense_Filter.c **** *
1579:Generated_Source\PSoC4/CapSense_Filter.c **** * \param ptrFilterHistObj
1580:Generated_Source\PSoC4/CapSense_Filter.c **** *  The pointer to the filter RAM object of the sensor.
1581:Generated_Source\PSoC4/CapSense_Filter.c **** *
1582:Generated_Source\PSoC4/CapSense_Filter.c **** * \param ptrAlpFilterConfig
1583:Generated_Source\PSoC4/CapSense_Filter.c **** *  The pointer to the filter configuration object of the sensor.
1584:Generated_Source\PSoC4/CapSense_Filter.c **** *
1585:Generated_Source\PSoC4/CapSense_Filter.c **** * \param ptrSensorObj
1586:Generated_Source\PSoC4/CapSense_Filter.c **** *  The pointer to the sensor RAM object of the sensor.
1587:Generated_Source\PSoC4/CapSense_Filter.c **** *
1588:Generated_Source\PSoC4/CapSense_Filter.c **** * \param wdType
1589:Generated_Source\PSoC4/CapSense_Filter.c **** *  Specifies the type of a widget.
1590:Generated_Source\PSoC4/CapSense_Filter.c **** *
1591:Generated_Source\PSoC4/CapSense_Filter.c **** *******************************************************************************/
1592:Generated_Source\PSoC4/CapSense_Filter.c **** void CapSense_RunALPInternal(CapSense_PTR_FILTER_VARIANT ptrFilterHistObj,
1593:Generated_Source\PSoC4/CapSense_Filter.c ****                                     ALP_FLTR_CONFIG_STRUCT *ptrAlpFilterConfig,
1594:Generated_Source\PSoC4/CapSense_Filter.c ****                                     CapSense_RAM_SNS_STRUCT *ptrSensorObj,
1595:Generated_Source\PSoC4/CapSense_Filter.c ****                                     uint32 wdType)
1596:Generated_Source\PSoC4/CapSense_Filter.c **** {
1597:Generated_Source\PSoC4/CapSense_Filter.c ****     uint32 freqChannel;
1598:Generated_Source\PSoC4/CapSense_Filter.c **** 
1599:Generated_Source\PSoC4/CapSense_Filter.c ****     for(freqChannel = CapSense_NUM_SCAN_FREQS; freqChannel-- > 0u;)
1600:Generated_Source\PSoC4/CapSense_Filter.c ****     {
1601:Generated_Source\PSoC4/CapSense_Filter.c ****         if ((CapSense_WD_TYPE_ENUM)wdType != CapSense_WD_PROXIMITY_E)
1602:Generated_Source\PSoC4/CapSense_Filter.c ****         {
1603:Generated_Source\PSoC4/CapSense_Filter.c ****             #if (CapSense_REGULAR_SENSOR_EN && CapSense_REGULAR_RC_ALP_FILTER_EN)
1604:Generated_Source\PSoC4/CapSense_Filter.c ****                 ptrAlpFilterConfig->configParam5 = CapSense_REGULAR_RC_ALP_FILTER_COEFF;
1605:Generated_Source\PSoC4/CapSense_Filter.c ****                 ALP_Run(&ptrFilterHistObj.ptrAlp->channel[freqChannel], ptrAlpFilterConfig, &ptrSen
1606:Generated_Source\PSoC4/CapSense_Filter.c ****             #endif
1607:Generated_Source\PSoC4/CapSense_Filter.c ****         }
1608:Generated_Source\PSoC4/CapSense_Filter.c ****         else
1609:Generated_Source\PSoC4/CapSense_Filter.c ****         {
1610:Generated_Source\PSoC4/CapSense_Filter.c ****             #if (CapSense_PROXIMITY_SENSOR_EN && CapSense_PROX_RC_ALP_FILTER_EN)
1611:Generated_Source\PSoC4/CapSense_Filter.c ****                 ptrAlpFilterConfig->configParam5 = CapSense_PROX_RC_ALP_FILTER_COEFF;
1612:Generated_Source\PSoC4/CapSense_Filter.c ****                 ALP_Run(&ptrFilterHistObj.ptrAlp->channel[freqChannel], ptrAlpFilterConfig, &ptrSen
1613:Generated_Source\PSoC4/CapSense_Filter.c ****             #endif
1614:Generated_Source\PSoC4/CapSense_Filter.c ****         }
1615:Generated_Source\PSoC4/CapSense_Filter.c ****     }
ARM GAS  C:\Users\ash750\AppData\Local\Temp\ccFe1BVg.s 			page 40


1616:Generated_Source\PSoC4/CapSense_Filter.c **** }
1617:Generated_Source\PSoC4/CapSense_Filter.c **** #endif /* (CapSense_ENABLE == CapSense_ALP_FILTER_EN) */
1618:Generated_Source\PSoC4/CapSense_Filter.c **** 
1619:Generated_Source\PSoC4/CapSense_Filter.c **** #if (CapSense_ENABLE == CapSense_RC_FILTER_EN)
1620:Generated_Source\PSoC4/CapSense_Filter.c **** /*******************************************************************************
1621:Generated_Source\PSoC4/CapSense_Filter.c **** * Function Name: CapSense_FtRunEnabledFilters
1622:Generated_Source\PSoC4/CapSense_Filter.c **** ****************************************************************************//**
1623:Generated_Source\PSoC4/CapSense_Filter.c **** *
1624:Generated_Source\PSoC4/CapSense_Filter.c **** * \brief
1625:Generated_Source\PSoC4/CapSense_Filter.c **** *  Runs all enabled filters.
1626:Generated_Source\PSoC4/CapSense_Filter.c **** *
1627:Generated_Source\PSoC4/CapSense_Filter.c **** * \details
1628:Generated_Source\PSoC4/CapSense_Filter.c **** *  Runs all enabled filters.
1629:Generated_Source\PSoC4/CapSense_Filter.c **** *
1630:Generated_Source\PSoC4/CapSense_Filter.c **** * \param widgetId
1631:Generated_Source\PSoC4/CapSense_Filter.c **** *  Specifies the ID number of a widget to update the IIR filter history.
1632:Generated_Source\PSoC4/CapSense_Filter.c **** *
1633:Generated_Source\PSoC4/CapSense_Filter.c **** * \param sensorId
1634:Generated_Source\PSoC4/CapSense_Filter.c **** *  Specifies the ID number of a sensor in the widget to update the IIR
1635:Generated_Source\PSoC4/CapSense_Filter.c **** *  filter history.
1636:Generated_Source\PSoC4/CapSense_Filter.c **** *
1637:Generated_Source\PSoC4/CapSense_Filter.c **** *******************************************************************************/
1638:Generated_Source\PSoC4/CapSense_Filter.c **** void CapSense_FtRunEnabledFilters(uint32 widgetId, uint32 sensorId)
1639:Generated_Source\PSoC4/CapSense_Filter.c **** {
1640:Generated_Source\PSoC4/CapSense_Filter.c ****     CapSense_FLASH_WD_STRUCT const *ptrWidget = &CapSense_dsFlash.wdgtArray[widgetId];
1641:Generated_Source\PSoC4/CapSense_Filter.c ****     CapSense_RAM_SNS_STRUCT *ptrSensor = NULL;
1642:Generated_Source\PSoC4/CapSense_Filter.c ****     CapSense_PTR_FILTER_VARIANT ptrFilterHistObj;
1643:Generated_Source\PSoC4/CapSense_Filter.c **** 
1644:Generated_Source\PSoC4/CapSense_Filter.c ****     /* Find pointer to specified sensor object */
1645:Generated_Source\PSoC4/CapSense_Filter.c ****     ptrSensor = ptrWidget->ptr2SnsRam;
1646:Generated_Source\PSoC4/CapSense_Filter.c ****     ptrSensor = &ptrSensor[sensorId];
1647:Generated_Source\PSoC4/CapSense_Filter.c **** 
1648:Generated_Source\PSoC4/CapSense_Filter.c ****     /* Find pointer to specified filter sensor object */
1649:Generated_Source\PSoC4/CapSense_Filter.c ****     ptrFilterHistObj.ptr = ptrWidget->ptr2FltrHistory;
1650:Generated_Source\PSoC4/CapSense_Filter.c **** 
1651:Generated_Source\PSoC4/CapSense_Filter.c ****     if ((CapSense_WD_TYPE_ENUM)ptrWidget->wdgtType != CapSense_WD_PROXIMITY_E)
1652:Generated_Source\PSoC4/CapSense_Filter.c ****     {
1653:Generated_Source\PSoC4/CapSense_Filter.c ****         #if (0u != CapSense_REGULAR_RC_ALP_FILTER_EN)
1654:Generated_Source\PSoC4/CapSense_Filter.c ****             ptrFilterHistObj.ptr = &ptrFilterHistObj.ptrAlp[sensorId];
1655:Generated_Source\PSoC4/CapSense_Filter.c ****         #elif (0u != CapSense_REGULAR_RC_FILTER_EN)
1656:Generated_Source\PSoC4/CapSense_Filter.c ****             ptrFilterHistObj.ptr = &ptrFilterHistObj.ptrRegular[sensorId];
1657:Generated_Source\PSoC4/CapSense_Filter.c ****         #endif
1658:Generated_Source\PSoC4/CapSense_Filter.c ****     }
1659:Generated_Source\PSoC4/CapSense_Filter.c ****     else
1660:Generated_Source\PSoC4/CapSense_Filter.c ****     {
1661:Generated_Source\PSoC4/CapSense_Filter.c ****         #if (0u != CapSense_PROX_RC_ALP_FILTER_EN)
1662:Generated_Source\PSoC4/CapSense_Filter.c ****             ptrFilterHistObj.ptr = &ptrFilterHistObj.ptrAlp[sensorId];
1663:Generated_Source\PSoC4/CapSense_Filter.c ****         #elif (0u != CapSense_PROX_RC_FILTER_EN)
1664:Generated_Source\PSoC4/CapSense_Filter.c ****             ptrFilterHistObj.ptr = &ptrFilterHistObj.ptrProx[sensorId];
1665:Generated_Source\PSoC4/CapSense_Filter.c ****         #endif
1666:Generated_Source\PSoC4/CapSense_Filter.c ****     }
1667:Generated_Source\PSoC4/CapSense_Filter.c **** 
1668:Generated_Source\PSoC4/CapSense_Filter.c ****     CapSense_FtRunEnabledFiltersInternal(ptrFilterHistObj, ptrSensor, (uint32)ptrWidget->wdgtType);
1669:Generated_Source\PSoC4/CapSense_Filter.c ****     #if (CapSense_ALP_FILTER_EN)
1670:Generated_Source\PSoC4/CapSense_Filter.c ****         CapSense_ConfigRunALPInternal(ptrFilterHistObj, ptrWidget->ptr2WdgtRam, ptrSensor, (uint32)
1671:Generated_Source\PSoC4/CapSense_Filter.c ****     #endif
1672:Generated_Source\PSoC4/CapSense_Filter.c **** }
ARM GAS  C:\Users\ash750\AppData\Local\Temp\ccFe1BVg.s 			page 41


1673:Generated_Source\PSoC4/CapSense_Filter.c **** 
1674:Generated_Source\PSoC4/CapSense_Filter.c **** 
1675:Generated_Source\PSoC4/CapSense_Filter.c **** /*******************************************************************************
1676:Generated_Source\PSoC4/CapSense_Filter.c **** * Function Name: CapSense_FtRunEnabledFiltersInternal
1677:Generated_Source\PSoC4/CapSense_Filter.c **** ****************************************************************************//**
1678:Generated_Source\PSoC4/CapSense_Filter.c **** *
1679:Generated_Source\PSoC4/CapSense_Filter.c **** * \brief
1680:Generated_Source\PSoC4/CapSense_Filter.c **** *  Runs all enabled filters.
1681:Generated_Source\PSoC4/CapSense_Filter.c **** *
1682:Generated_Source\PSoC4/CapSense_Filter.c **** * \details
1683:Generated_Source\PSoC4/CapSense_Filter.c **** *  Runs all enabled filters.
1684:Generated_Source\PSoC4/CapSense_Filter.c **** *
1685:Generated_Source\PSoC4/CapSense_Filter.c **** * \param ptrFilterHistObj
1686:Generated_Source\PSoC4/CapSense_Filter.c **** *  The pointer to the filter RAM object of the sensor.
1687:Generated_Source\PSoC4/CapSense_Filter.c **** *
1688:Generated_Source\PSoC4/CapSense_Filter.c **** * \param ptrSensorObj
1689:Generated_Source\PSoC4/CapSense_Filter.c **** *  The pointer to the sensor RAM object of the sensor.
1690:Generated_Source\PSoC4/CapSense_Filter.c **** *
1691:Generated_Source\PSoC4/CapSense_Filter.c **** * \param wdType
1692:Generated_Source\PSoC4/CapSense_Filter.c **** *  Specifies the type of a widget.
1693:Generated_Source\PSoC4/CapSense_Filter.c **** *
1694:Generated_Source\PSoC4/CapSense_Filter.c **** *******************************************************************************/
1695:Generated_Source\PSoC4/CapSense_Filter.c **** void CapSense_FtRunEnabledFiltersInternal(CapSense_PTR_FILTER_VARIANT ptrFilterHistObj,
1696:Generated_Source\PSoC4/CapSense_Filter.c ****                                                   CapSense_RAM_SNS_STRUCT *ptrSensorObj, uint32 wdT
1697:Generated_Source\PSoC4/CapSense_Filter.c **** {
1698:Generated_Source\PSoC4/CapSense_Filter.c ****     #if (CapSense_REGULAR_RC_MEDIAN_FILTER_EN || CapSense_PROX_RC_MEDIAN_FILTER_EN)
1699:Generated_Source\PSoC4/CapSense_Filter.c ****         CapSense_RunMedianInternal(ptrFilterHistObj, ptrSensorObj, wdType);
1700:Generated_Source\PSoC4/CapSense_Filter.c ****     #endif /* (CapSense_REGULAR_RC_MEDIAN_FILTER_EN || CapSense_PROX_RC_MEDIAN_FILTER_EN) */
1701:Generated_Source\PSoC4/CapSense_Filter.c **** 
1702:Generated_Source\PSoC4/CapSense_Filter.c ****     #if (CapSense_REGULAR_RC_IIR_FILTER_EN || CapSense_PROX_RC_IIR_FILTER_EN)
1703:Generated_Source\PSoC4/CapSense_Filter.c ****         CapSense_RunIIRInternal(ptrFilterHistObj, ptrSensorObj, wdType);
1704:Generated_Source\PSoC4/CapSense_Filter.c ****     #endif /* (CapSense_REGULAR_RC_IIR_FILTER_EN || CapSense_PROX_RC_IIR_FILTER_EN) */
1705:Generated_Source\PSoC4/CapSense_Filter.c **** 
1706:Generated_Source\PSoC4/CapSense_Filter.c ****     #if (CapSense_REGULAR_RC_AVERAGE_FILTER_EN || CapSense_PROX_RC_AVERAGE_FILTER_EN)
1707:Generated_Source\PSoC4/CapSense_Filter.c ****         CapSense_RunAverageInternal(ptrFilterHistObj, ptrSensorObj, wdType);
1708:Generated_Source\PSoC4/CapSense_Filter.c ****     #endif /* (CapSense_REGULAR_RC_AVERAGE_FILTER_EN || CapSense_PROX_RC_AVERAGE_FILTER_EN) */
1709:Generated_Source\PSoC4/CapSense_Filter.c **** }
1710:Generated_Source\PSoC4/CapSense_Filter.c **** #endif /* (CapSense_ENABLE == CapSense_RC_FILTER_EN) */
1711:Generated_Source\PSoC4/CapSense_Filter.c **** 
1712:Generated_Source\PSoC4/CapSense_Filter.c **** 
1713:Generated_Source\PSoC4/CapSense_Filter.c **** #if (0u != (CapSense_CSD_AUTOTUNE & CapSense_CSD_SS_TH_EN))
1714:Generated_Source\PSoC4/CapSense_Filter.c **** /*******************************************************************************
1715:Generated_Source\PSoC4/CapSense_Filter.c **** * Function Name: CapSense_RunNoiseEnvelope
1716:Generated_Source\PSoC4/CapSense_Filter.c **** ****************************************************************************//**
1717:Generated_Source\PSoC4/CapSense_Filter.c **** *
1718:Generated_Source\PSoC4/CapSense_Filter.c **** * \brief
1719:Generated_Source\PSoC4/CapSense_Filter.c **** *  Executes the noise envelope  filter algorithm on a sensor indicated by
1720:Generated_Source\PSoC4/CapSense_Filter.c **** *  an input parameter to measure the pk-to-pk noise in the sensor raw count.
1721:Generated_Source\PSoC4/CapSense_Filter.c **** *
1722:Generated_Source\PSoC4/CapSense_Filter.c **** * \details
1723:Generated_Source\PSoC4/CapSense_Filter.c **** *  Executes the noise envelope  filter algorithm on a sensor indicated by
1724:Generated_Source\PSoC4/CapSense_Filter.c **** *  an input parameter to measure the pk-to-pk noise in the sensor raw count.
1725:Generated_Source\PSoC4/CapSense_Filter.c **** *
1726:Generated_Source\PSoC4/CapSense_Filter.c **** * \param widgetId
1727:Generated_Source\PSoC4/CapSense_Filter.c **** *  Specifies the ID number of the widget.
1728:Generated_Source\PSoC4/CapSense_Filter.c **** *
1729:Generated_Source\PSoC4/CapSense_Filter.c **** * \param sensorId
ARM GAS  C:\Users\ash750\AppData\Local\Temp\ccFe1BVg.s 			page 42


1730:Generated_Source\PSoC4/CapSense_Filter.c **** *  Specifies the ID number of the sensor in the widget.
1731:Generated_Source\PSoC4/CapSense_Filter.c **** *
1732:Generated_Source\PSoC4/CapSense_Filter.c **** *******************************************************************************/
1733:Generated_Source\PSoC4/CapSense_Filter.c **** void CapSense_RunNoiseEnvelope(uint32 widgetId, uint32 sensorId)
1734:Generated_Source\PSoC4/CapSense_Filter.c **** {
1735:Generated_Source\PSoC4/CapSense_Filter.c ****     CapSense_FLASH_WD_STRUCT const *ptrWidget = &CapSense_dsFlash.wdgtArray[widgetId];
1736:Generated_Source\PSoC4/CapSense_Filter.c ****     CapSense_RAM_WD_BASE_STRUCT *ptrWidgetRam = ptrWidget->ptr2WdgtRam;
1737:Generated_Source\PSoC4/CapSense_Filter.c ****     CapSense_RAM_SNS_STRUCT *ptrSensor = NULL;
1738:Generated_Source\PSoC4/CapSense_Filter.c ****     SMARTSENSE_CSD_NOISE_ENVELOPE_STRUCT *ptrNoiseEnvelope = NULL;
1739:Generated_Source\PSoC4/CapSense_Filter.c **** 
1740:Generated_Source\PSoC4/CapSense_Filter.c ****     /* Find pointer to specified sensor object */
1741:Generated_Source\PSoC4/CapSense_Filter.c ****     ptrSensor = ptrWidget->ptr2SnsRam;
1742:Generated_Source\PSoC4/CapSense_Filter.c ****     ptrSensor = &ptrSensor[sensorId];
1743:Generated_Source\PSoC4/CapSense_Filter.c **** 
1744:Generated_Source\PSoC4/CapSense_Filter.c ****     /* Find pointer to specified filter sensor object */
1745:Generated_Source\PSoC4/CapSense_Filter.c ****     ptrNoiseEnvelope = ptrWidget->ptr2NoiseEnvlp;
1746:Generated_Source\PSoC4/CapSense_Filter.c ****     ptrNoiseEnvelope = &ptrNoiseEnvelope[sensorId];
1747:Generated_Source\PSoC4/CapSense_Filter.c **** 
1748:Generated_Source\PSoC4/CapSense_Filter.c ****     SmartSense_RunNoiseEnvelope(ptrSensor->raw[0u], ptrWidgetRam->sigPFC, ptrNoiseEnvelope);
1749:Generated_Source\PSoC4/CapSense_Filter.c **** }
1750:Generated_Source\PSoC4/CapSense_Filter.c **** 
1751:Generated_Source\PSoC4/CapSense_Filter.c **** 
1752:Generated_Source\PSoC4/CapSense_Filter.c **** /*******************************************************************************
1753:Generated_Source\PSoC4/CapSense_Filter.c **** * Function Name: CapSense_InitializeNoiseEnvelope
1754:Generated_Source\PSoC4/CapSense_Filter.c **** ****************************************************************************//**
1755:Generated_Source\PSoC4/CapSense_Filter.c **** *
1756:Generated_Source\PSoC4/CapSense_Filter.c **** * \brief
1757:Generated_Source\PSoC4/CapSense_Filter.c **** *  Initializes the noise-envelope filter
1758:Generated_Source\PSoC4/CapSense_Filter.c **** *
1759:Generated_Source\PSoC4/CapSense_Filter.c **** * \details
1760:Generated_Source\PSoC4/CapSense_Filter.c **** *  Initializes the noise-envelope filter
1761:Generated_Source\PSoC4/CapSense_Filter.c **** *
1762:Generated_Source\PSoC4/CapSense_Filter.c **** * \param widgetId
1763:Generated_Source\PSoC4/CapSense_Filter.c **** *  Specifies the ID number of the widget.
1764:Generated_Source\PSoC4/CapSense_Filter.c **** *
1765:Generated_Source\PSoC4/CapSense_Filter.c **** * \param sensorId
1766:Generated_Source\PSoC4/CapSense_Filter.c **** *  Specifies the ID number of the sensor in the widget.
1767:Generated_Source\PSoC4/CapSense_Filter.c **** *
1768:Generated_Source\PSoC4/CapSense_Filter.c **** *******************************************************************************/
1769:Generated_Source\PSoC4/CapSense_Filter.c **** void CapSense_InitializeNoiseEnvelope(uint32 widgetId, uint32 sensorId)
1770:Generated_Source\PSoC4/CapSense_Filter.c **** {
1771:Generated_Source\PSoC4/CapSense_Filter.c ****     CapSense_FLASH_WD_STRUCT const *ptrWidget = &CapSense_dsFlash.wdgtArray[widgetId];
1772:Generated_Source\PSoC4/CapSense_Filter.c ****     CapSense_RAM_WD_BASE_STRUCT *ptrWidgetRam = ptrWidget->ptr2WdgtRam;
1773:Generated_Source\PSoC4/CapSense_Filter.c ****     CapSense_RAM_SNS_STRUCT *ptrSensor = NULL;
1774:Generated_Source\PSoC4/CapSense_Filter.c ****     SMARTSENSE_CSD_NOISE_ENVELOPE_STRUCT *ptrNoiseEnvelope = NULL;
1775:Generated_Source\PSoC4/CapSense_Filter.c **** 
1776:Generated_Source\PSoC4/CapSense_Filter.c ****     /* Find pointer to specified sensor object */
1777:Generated_Source\PSoC4/CapSense_Filter.c ****     ptrSensor = ptrWidget->ptr2SnsRam;
1778:Generated_Source\PSoC4/CapSense_Filter.c ****     ptrSensor = &ptrSensor[sensorId];
1779:Generated_Source\PSoC4/CapSense_Filter.c **** 
1780:Generated_Source\PSoC4/CapSense_Filter.c ****     /* Find pointer to specified filter sensor object */
1781:Generated_Source\PSoC4/CapSense_Filter.c ****     ptrNoiseEnvelope = ptrWidget->ptr2NoiseEnvlp;
1782:Generated_Source\PSoC4/CapSense_Filter.c ****     ptrNoiseEnvelope = &ptrNoiseEnvelope[sensorId];
1783:Generated_Source\PSoC4/CapSense_Filter.c **** 
1784:Generated_Source\PSoC4/CapSense_Filter.c ****     SmartSense_InitializeNoiseEnvelope(ptrSensor->raw[0u], ptrWidgetRam->sigPFC, ptrNoiseEnvelope);
1785:Generated_Source\PSoC4/CapSense_Filter.c **** }
1786:Generated_Source\PSoC4/CapSense_Filter.c **** #endif /* (0u != (CapSense_CSD_AUTOTUNE & CapSense_CSD_SS_TH_EN)) */
ARM GAS  C:\Users\ash750\AppData\Local\Temp\ccFe1BVg.s 			page 43


1787:Generated_Source\PSoC4/CapSense_Filter.c **** 
1788:Generated_Source\PSoC4/CapSense_Filter.c **** 
1789:Generated_Source\PSoC4/CapSense_Filter.c **** #if (CapSense_POS_MEDIAN_FILTER_EN || CapSense_REGULAR_RC_MEDIAN_FILTER_EN || CapSense_PROX_RC_MEDI
1790:Generated_Source\PSoC4/CapSense_Filter.c **** /*******************************************************************************
1791:Generated_Source\PSoC4/CapSense_Filter.c **** * Function Name: CapSense_FtMedian
1792:Generated_Source\PSoC4/CapSense_Filter.c **** ****************************************************************************//**
1793:Generated_Source\PSoC4/CapSense_Filter.c **** *
1794:Generated_Source\PSoC4/CapSense_Filter.c **** * \brief
1795:Generated_Source\PSoC4/CapSense_Filter.c **** *  Return the median value from the three passed arguments.
1796:Generated_Source\PSoC4/CapSense_Filter.c **** *
1797:Generated_Source\PSoC4/CapSense_Filter.c **** * \details
1798:Generated_Source\PSoC4/CapSense_Filter.c **** *  Return the median value from the three passed arguments.
1799:Generated_Source\PSoC4/CapSense_Filter.c **** *
1800:Generated_Source\PSoC4/CapSense_Filter.c **** * \param x1
1801:Generated_Source\PSoC4/CapSense_Filter.c **** *  The first value to be compared.
1802:Generated_Source\PSoC4/CapSense_Filter.c **** *
1803:Generated_Source\PSoC4/CapSense_Filter.c **** * \param x2
1804:Generated_Source\PSoC4/CapSense_Filter.c **** *  The second value to be compared.
1805:Generated_Source\PSoC4/CapSense_Filter.c **** *
1806:Generated_Source\PSoC4/CapSense_Filter.c **** * \param x3
1807:Generated_Source\PSoC4/CapSense_Filter.c **** *  The third value to be compared.
1808:Generated_Source\PSoC4/CapSense_Filter.c **** *
1809:Generated_Source\PSoC4/CapSense_Filter.c **** * \return
1810:Generated_Source\PSoC4/CapSense_Filter.c **** *  Returns the median value of input arguments.
1811:Generated_Source\PSoC4/CapSense_Filter.c **** *
1812:Generated_Source\PSoC4/CapSense_Filter.c **** *******************************************************************************/
1813:Generated_Source\PSoC4/CapSense_Filter.c **** uint32 CapSense_FtMedian(uint32 x1, uint32 x2, uint32 x3)
1814:Generated_Source\PSoC4/CapSense_Filter.c **** {
1815:Generated_Source\PSoC4/CapSense_Filter.c ****     uint32 tmp;
1816:Generated_Source\PSoC4/CapSense_Filter.c **** 
1817:Generated_Source\PSoC4/CapSense_Filter.c ****     if (x1 > x2)
1818:Generated_Source\PSoC4/CapSense_Filter.c ****     {
1819:Generated_Source\PSoC4/CapSense_Filter.c ****         tmp = x2;
1820:Generated_Source\PSoC4/CapSense_Filter.c ****         x2 = x1;
1821:Generated_Source\PSoC4/CapSense_Filter.c ****         x1 = tmp;
1822:Generated_Source\PSoC4/CapSense_Filter.c ****     }
1823:Generated_Source\PSoC4/CapSense_Filter.c **** 
1824:Generated_Source\PSoC4/CapSense_Filter.c ****     if (x2 > x3)
1825:Generated_Source\PSoC4/CapSense_Filter.c ****     {
1826:Generated_Source\PSoC4/CapSense_Filter.c ****         x2 = x3;
1827:Generated_Source\PSoC4/CapSense_Filter.c ****     }
1828:Generated_Source\PSoC4/CapSense_Filter.c **** 
1829:Generated_Source\PSoC4/CapSense_Filter.c ****     return ((x1 > x2) ? x1 : x2);
1830:Generated_Source\PSoC4/CapSense_Filter.c **** }
1831:Generated_Source\PSoC4/CapSense_Filter.c **** #endif /*CapSense_POS_MEDIAN_FILTER_EN || CapSense_REGULAR_RC_MEDIAN_FILTER_EN || CapSense_PROX_RC_
1832:Generated_Source\PSoC4/CapSense_Filter.c **** 
1833:Generated_Source\PSoC4/CapSense_Filter.c **** 
1834:Generated_Source\PSoC4/CapSense_Filter.c **** /*******************************************************************************
1835:Generated_Source\PSoC4/CapSense_Filter.c **** * Function Name: CapSense_FtIIR1stOrder
1836:Generated_Source\PSoC4/CapSense_Filter.c **** ****************************************************************************//**
1837:Generated_Source\PSoC4/CapSense_Filter.c **** *
1838:Generated_Source\PSoC4/CapSense_Filter.c **** * \brief
1839:Generated_Source\PSoC4/CapSense_Filter.c **** *  Return the filtered data by the IIR 1-st order algorithm
1840:Generated_Source\PSoC4/CapSense_Filter.c **** *
1841:Generated_Source\PSoC4/CapSense_Filter.c **** * \details
1842:Generated_Source\PSoC4/CapSense_Filter.c **** *  Return the filtered data by the IIR 1-st order algorithm
1843:Generated_Source\PSoC4/CapSense_Filter.c **** *
ARM GAS  C:\Users\ash750\AppData\Local\Temp\ccFe1BVg.s 			page 44


1844:Generated_Source\PSoC4/CapSense_Filter.c **** * \param input
1845:Generated_Source\PSoC4/CapSense_Filter.c **** *  The data to be filtered.
1846:Generated_Source\PSoC4/CapSense_Filter.c **** *
1847:Generated_Source\PSoC4/CapSense_Filter.c **** * \param prevOutput
1848:Generated_Source\PSoC4/CapSense_Filter.c **** *  The previous filtered data.
1849:Generated_Source\PSoC4/CapSense_Filter.c **** *
1850:Generated_Source\PSoC4/CapSense_Filter.c **** * \param n
1851:Generated_Source\PSoC4/CapSense_Filter.c **** *  The IIR filter coefficient (n/256).
1852:Generated_Source\PSoC4/CapSense_Filter.c **** *
1853:Generated_Source\PSoC4/CapSense_Filter.c **** * \param shift
1854:Generated_Source\PSoC4/CapSense_Filter.c **** *  The parameter is used to shift input data to have free LSB
1855:Generated_Source\PSoC4/CapSense_Filter.c **** *  bits for a fraction storage of the filter output calculation.
1856:Generated_Source\PSoC4/CapSense_Filter.c **** *
1857:Generated_Source\PSoC4/CapSense_Filter.c **** * \return
1858:Generated_Source\PSoC4/CapSense_Filter.c **** *  Returns the filtered data.
1859:Generated_Source\PSoC4/CapSense_Filter.c **** *
1860:Generated_Source\PSoC4/CapSense_Filter.c **** *******************************************************************************/
1861:Generated_Source\PSoC4/CapSense_Filter.c **** uint32 CapSense_FtIIR1stOrder(uint32 input, uint32 prevOutput, uint32 n, uint32 shift)
1862:Generated_Source\PSoC4/CapSense_Filter.c **** {
 554              		.loc 1 1862 0
 555              		.cfi_startproc
 556              		@ args = 0, pretend = 0, frame = 0
 557              		@ frame_needed = 0, uses_anonymous_args = 0
 558              		@ link register save eliminated.
 559              	.LVL74:
1863:Generated_Source\PSoC4/CapSense_Filter.c ****     uint32 filteredOutput;
1864:Generated_Source\PSoC4/CapSense_Filter.c **** 
1865:Generated_Source\PSoC4/CapSense_Filter.c ****     /*
1866:Generated_Source\PSoC4/CapSense_Filter.c ****     * n - IIR filter coefficient (n/256)
1867:Generated_Source\PSoC4/CapSense_Filter.c ****     * shift - Used to shift input data to have free LSB bits
1868:Generated_Source\PSoC4/CapSense_Filter.c ****     * for fraction storage of filter output calculation
1869:Generated_Source\PSoC4/CapSense_Filter.c ****     */
1870:Generated_Source\PSoC4/CapSense_Filter.c ****     filteredOutput = ((n * (input << shift)) + ((CapSense_IIR_COEFFICIENT_K - n) * prevOutput)) >> 
 560              		.loc 1 1870 0
 561 0000 9840     		lsls	r0, r0, r3
 562              	.LVL75:
 563 0002 5043     		muls	r0, r2
 564 0004 8023     		movs	r3, #128
 565              	.LVL76:
 566 0006 5B00     		lsls	r3, r3, #1
 567 0008 9A1A     		subs	r2, r3, r2
 568              	.LVL77:
 569 000a 5143     		muls	r1, r2
 570              	.LVL78:
 571 000c 4018     		adds	r0, r0, r1
 572 000e 000A     		lsrs	r0, r0, #8
 573              	.LVL79:
1871:Generated_Source\PSoC4/CapSense_Filter.c **** 
1872:Generated_Source\PSoC4/CapSense_Filter.c ****     /* Shift operation of output will be done in upper level API if needed */
1873:Generated_Source\PSoC4/CapSense_Filter.c ****     return filteredOutput;
1874:Generated_Source\PSoC4/CapSense_Filter.c **** }
 574              		.loc 1 1874 0
 575              		@ sp needed
 576 0010 7047     		bx	lr
 577              		.cfi_endproc
 578              	.LFE18:
 579              		.size	CapSense_FtIIR1stOrder, .-CapSense_FtIIR1stOrder
ARM GAS  C:\Users\ash750\AppData\Local\Temp\ccFe1BVg.s 			page 45


 580 0012 C046     		.section	.text.CapSense_FtUpdateBaseline,"ax",%progbits
 581              		.align	2
 582              		.global	CapSense_FtUpdateBaseline
 583              		.code	16
 584              		.thumb_func
 585              		.type	CapSense_FtUpdateBaseline, %function
 586              	CapSense_FtUpdateBaseline:
 587              	.LFB4:
 259:Generated_Source\PSoC4/CapSense_Filter.c ****     uint32 sign;
 588              		.loc 1 259 0
 589              		.cfi_startproc
 590              		@ args = 0, pretend = 0, frame = 8
 591              		@ frame_needed = 0, uses_anonymous_args = 0
 592              	.LVL80:
 593 0000 F0B5     		push	{r4, r5, r6, r7, lr}
 594              		.cfi_def_cfa_offset 20
 595              		.cfi_offset 4, -20
 596              		.cfi_offset 5, -16
 597              		.cfi_offset 6, -12
 598              		.cfi_offset 7, -8
 599              		.cfi_offset 14, -4
 600 0002 4F46     		mov	r7, r9
 601 0004 80B4     		push	{r7}
 602              		.cfi_def_cfa_offset 24
 603              		.cfi_offset 9, -24
 604 0006 82B0     		sub	sp, sp, #8
 605              		.cfi_def_cfa_offset 32
 606 0008 0500     		movs	r5, r0
 607 000a 0E00     		movs	r6, r1
 608 000c 0192     		str	r2, [sp, #4]
 609              	.LVL81:
 264:Generated_Source\PSoC4/CapSense_Filter.c **** 
 610              		.loc 1 264 0
 611 000e 0024     		movs	r4, #0
 271:Generated_Source\PSoC4/CapSense_Filter.c ****     {
 612              		.loc 1 271 0
 613 0010 0123     		movs	r3, #1
 614 0012 4EE0     		b	.L37
 615              	.LVL82:
 616              	.L45:
 274:Generated_Source\PSoC4/CapSense_Filter.c ****             {
 617              		.loc 1 274 0
 618 0014 7B00     		lsls	r3, r7, #1
 619 0016 F318     		adds	r3, r6, r3
 620 0018 9A88     		ldrh	r2, [r3, #4]
 621 001a 5988     		ldrh	r1, [r3, #2]
 622 001c CB43     		mvns	r3, r1
 623 001e 9BB2     		uxth	r3, r3
 624 0020 9A42     		cmp	r2, r3
 625 0022 43D1     		bne	.L46
 283:Generated_Source\PSoC4/CapSense_Filter.c ****         {
 626              		.loc 1 283 0
 627 0024 7B00     		lsls	r3, r7, #1
 628 0026 985B     		ldrh	r0, [r3, r6]
 629 0028 8142     		cmp	r1, r0
 630 002a 06D8     		bhi	.L39
 285:Generated_Source\PSoC4/CapSense_Filter.c ****             sign = 1u;
ARM GAS  C:\Users\ash750\AppData\Local\Temp\ccFe1BVg.s 			page 46


 631              		.loc 1 285 0
 632 002c 431A     		subs	r3, r0, r1
 633 002e 9946     		mov	r9, r3
 634              	.LVL83:
 287:Generated_Source\PSoC4/CapSense_Filter.c ****         }
 635              		.loc 1 287 0
 636 0030 F219     		adds	r2, r6, r7
 637 0032 0023     		movs	r3, #0
 638              	.LVL84:
 639 0034 9372     		strb	r3, [r2, #10]
 286:Generated_Source\PSoC4/CapSense_Filter.c ****             ptrSensor->negBslnRstCnt[freqChannel] = 0u;
 640              		.loc 1 286 0
 641 0036 0122     		movs	r2, #1
 642 0038 02E0     		b	.L40
 643              	.LVL85:
 644              	.L39:
 291:Generated_Source\PSoC4/CapSense_Filter.c ****             sign = 0u;
 645              		.loc 1 291 0
 646 003a 0B1A     		subs	r3, r1, r0
 647 003c 9946     		mov	r9, r3
 648              	.LVL86:
 292:Generated_Source\PSoC4/CapSense_Filter.c ****         }
 649              		.loc 1 292 0
 650 003e 0022     		movs	r2, #0
 651              	.LVL87:
 652              	.L40:
 296:Generated_Source\PSoC4/CapSense_Filter.c ****         {
 653              		.loc 1 296 0
 654 0040 002A     		cmp	r2, #0
 655 0042 11D1     		bne	.L41
 296:Generated_Source\PSoC4/CapSense_Filter.c ****         {
 656              		.loc 1 296 0 is_stmt 0 discriminator 1
 657 0044 EB79     		ldrb	r3, [r5, #7]
 658 0046 9945     		cmp	r9, r3
 659 0048 0ED9     		bls	.L41
 298:Generated_Source\PSoC4/CapSense_Filter.c ****             {
 660              		.loc 1 298 0 is_stmt 1
 661 004a F319     		adds	r3, r6, r7
 662 004c 9B7A     		ldrb	r3, [r3, #10]
 663 004e AA7A     		ldrb	r2, [r5, #10]
 664              	.LVL88:
 665 0050 9342     		cmp	r3, r2
 666 0052 05D3     		bcc	.L42
 300:Generated_Source\PSoC4/CapSense_Filter.c ****             }
 667              		.loc 1 300 0
 668 0054 3A00     		movs	r2, r7
 669 0056 0199     		ldr	r1, [sp, #4]
 670 0058 3000     		movs	r0, r6
 671 005a FFF7FEFF 		bl	CapSense_FtInitializeBaselineChannel
 672              	.LVL89:
 673 005e 1FE0     		b	.L43
 674              	.L42:
 304:Generated_Source\PSoC4/CapSense_Filter.c ****             }
 675              		.loc 1 304 0
 676 0060 F219     		adds	r2, r6, r7
 677 0062 0133     		adds	r3, r3, #1
 678 0064 9372     		strb	r3, [r2, #10]
ARM GAS  C:\Users\ash750\AppData\Local\Temp\ccFe1BVg.s 			page 47


 679 0066 1BE0     		b	.L43
 680              	.LVL90:
 681              	.L41:
 311:Generated_Source\PSoC4/CapSense_Filter.c ****                     ((difference <= (uint32) ptrWidgetRam->nNoiseTh) && (sign == 0u)))
 682              		.loc 1 311 0
 683 0068 AB79     		ldrb	r3, [r5, #6]
 684 006a 9945     		cmp	r9, r3
 685 006c 04D9     		bls	.L44
 312:Generated_Source\PSoC4/CapSense_Filter.c ****                 {
 686              		.loc 1 312 0 discriminator 1
 687 006e EB79     		ldrb	r3, [r5, #7]
 311:Generated_Source\PSoC4/CapSense_Filter.c ****                     ((difference <= (uint32) ptrWidgetRam->nNoiseTh) && (sign == 0u)))
 688              		.loc 1 311 0 discriminator 1
 689 0070 9945     		cmp	r9, r3
 690 0072 15D8     		bhi	.L43
 312:Generated_Source\PSoC4/CapSense_Filter.c ****                 {
 691              		.loc 1 312 0
 692 0074 002A     		cmp	r2, #0
 693 0076 13D1     		bne	.L43
 694              	.L44:
 318:Generated_Source\PSoC4/CapSense_Filter.c ****                 {
 695              		.loc 1 318 0
 696 0078 FF23     		movs	r3, #255
 697 007a 019A     		ldr	r2, [sp, #4]
 698              	.LVL91:
 699 007c 1340     		ands	r3, r2
 700 007e 062B     		cmp	r3, #6
 701 0080 0ED0     		beq	.L43
 322:Generated_Source\PSoC4/CapSense_Filter.c ****                             history |= ptrSensor->bslnExt[freqChannel];
 702              		.loc 1 322 0
 703 0082 0902     		lsls	r1, r1, #8
 704              	.LVL92:
 323:Generated_Source\PSoC4/CapSense_Filter.c ****                         #else
 705              		.loc 1 323 0
 706 0084 F319     		adds	r3, r6, r7
 707 0086 9946     		mov	r9, r3
 708              	.LVL93:
 709 0088 9B79     		ldrb	r3, [r3, #6]
 710 008a 1943     		orrs	r1, r3
 711              	.LVL94:
 334:Generated_Source\PSoC4/CapSense_Filter.c ****                                         (uint32)ptrSensor->raw[freqChannel],
 712              		.loc 1 334 0
 713 008c 0823     		movs	r3, #8
 714 008e 0122     		movs	r2, #1
 715 0090 FFF7FEFF 		bl	CapSense_FtIIR1stOrder
 716              	.LVL95:
 340:Generated_Source\PSoC4/CapSense_Filter.c ****                             ptrSensor->bslnExt[freqChannel] = LO8(history);
 717              		.loc 1 340 0
 718 0094 020A     		lsrs	r2, r0, #8
 719 0096 7B00     		lsls	r3, r7, #1
 720 0098 F318     		adds	r3, r6, r3
 721 009a 5A80     		strh	r2, [r3, #2]
 341:Generated_Source\PSoC4/CapSense_Filter.c ****                         #else
 722              		.loc 1 341 0
 723 009c 4B46     		mov	r3, r9
 724 009e 9871     		strb	r0, [r3, #6]
 725              	.LVL96:
ARM GAS  C:\Users\ash750\AppData\Local\Temp\ccFe1BVg.s 			page 48


 726              	.L43:
 392:Generated_Source\PSoC4/CapSense_Filter.c ****             }
 727              		.loc 1 392 0
 728 00a0 7B00     		lsls	r3, r7, #1
 729 00a2 F318     		adds	r3, r6, r3
 730 00a4 5A88     		ldrh	r2, [r3, #2]
 731 00a6 D243     		mvns	r2, r2
 732 00a8 9A80     		strh	r2, [r3, #4]
 733 00aa 01E0     		b	.L38
 734              	.L46:
 276:Generated_Source\PSoC4/CapSense_Filter.c ****             }
 735              		.loc 1 276 0
 736 00ac 8024     		movs	r4, #128
 737              	.LVL97:
 738 00ae 2406     		lsls	r4, r4, #24
 739              	.L38:
 740 00b0 3B00     		movs	r3, r7
 741              	.LVL98:
 742              	.L37:
 271:Generated_Source\PSoC4/CapSense_Filter.c ****     {
 743              		.loc 1 271 0 discriminator 1
 744 00b2 5F1E     		subs	r7, r3, #1
 745              	.LVL99:
 746 00b4 002B     		cmp	r3, #0
 747 00b6 ADD1     		bne	.L45
 398:Generated_Source\PSoC4/CapSense_Filter.c **** 
 748              		.loc 1 398 0
 749 00b8 2000     		movs	r0, r4
 750 00ba 02B0     		add	sp, sp, #8
 751              		@ sp needed
 752              	.LVL100:
 753              	.LVL101:
 754              	.LVL102:
 755              	.LVL103:
 756 00bc 04BC     		pop	{r2}
 757 00be 9146     		mov	r9, r2
 758 00c0 F0BD     		pop	{r4, r5, r6, r7, pc}
 759              		.cfi_endproc
 760              	.LFE4:
 761              		.size	CapSense_FtUpdateBaseline, .-CapSense_FtUpdateBaseline
 762 00c2 C046     		.section	.text.CapSense_UpdateSensorBaseline,"ax",%progbits
 763              		.align	2
 764              		.global	CapSense_UpdateSensorBaseline
 765              		.code	16
 766              		.thumb_func
 767              		.type	CapSense_UpdateSensorBaseline, %function
 768              	CapSense_UpdateSensorBaseline:
 769              	.LFB3:
 201:Generated_Source\PSoC4/CapSense_Filter.c ****     uint32 result = CYRET_SUCCESS;
 770              		.loc 1 201 0
 771              		.cfi_startproc
 772              		@ args = 0, pretend = 0, frame = 0
 773              		@ frame_needed = 0, uses_anonymous_args = 0
 774              	.LVL104:
 775 0000 70B5     		push	{r4, r5, r6, lr}
 776              		.cfi_def_cfa_offset 16
 777              		.cfi_offset 4, -16
ARM GAS  C:\Users\ash750\AppData\Local\Temp\ccFe1BVg.s 			page 49


 778              		.cfi_offset 5, -12
 779              		.cfi_offset 6, -8
 780              		.cfi_offset 14, -4
 781 0002 0400     		movs	r4, r0
 782 0004 0D00     		movs	r5, r1
 783              	.LVL105:
 206:Generated_Source\PSoC4/CapSense_Filter.c **** 
 784              		.loc 1 206 0
 785 0006 C200     		lsls	r2, r0, #3
 786 0008 1218     		adds	r2, r2, r0
 787 000a 9300     		lsls	r3, r2, #2
 788 000c 094A     		ldr	r2, .L49
 789 000e D318     		adds	r3, r2, r3
 790 0010 5868     		ldr	r0, [r3, #4]
 791              	.LVL106:
 210:Generated_Source\PSoC4/CapSense_Filter.c ****     result = CapSense_FtUpdateBaseline(ptrWidgetRam, ptrSensor, (uint32)ptrWidget->wdgtType);
 792              		.loc 1 210 0
 793 0012 4A00     		lsls	r2, r1, #1
 794 0014 5218     		adds	r2, r2, r1
 795 0016 9100     		lsls	r1, r2, #2
 796              	.LVL107:
 797 0018 9A68     		ldr	r2, [r3, #8]
 798 001a 9446     		mov	ip, r2
 799 001c 6144     		add	r1, r1, ip
 800              	.LVL108:
 211:Generated_Source\PSoC4/CapSense_Filter.c **** 
 801              		.loc 1 211 0
 802 001e 9A7E     		ldrb	r2, [r3, #26]
 803 0020 FFF7FEFF 		bl	CapSense_FtUpdateBaseline
 804              	.LVL109:
 214:Generated_Source\PSoC4/CapSense_Filter.c ****         {
 805              		.loc 1 214 0
 806 0024 0028     		cmp	r0, #0
 807 0026 04D0     		beq	.L48
 808              	.LVL110:
 217:Generated_Source\PSoC4/CapSense_Filter.c ****         }
 809              		.loc 1 217 0
 810 0028 2900     		movs	r1, r5
 811 002a 2000     		movs	r0, r4
 812 002c FFF7FEFF 		bl	CapSense_UpdateTestResultBaselineDuplication
 813              	.LVL111:
 216:Generated_Source\PSoC4/CapSense_Filter.c ****             CapSense_UpdateTestResultBaselineDuplication(widgetId, sensorId);
 814              		.loc 1 216 0
 815 0030 0620     		movs	r0, #6
 816              	.LVL112:
 817              	.L48:
 222:Generated_Source\PSoC4/CapSense_Filter.c **** 
 818              		.loc 1 222 0
 819              		@ sp needed
 820              	.LVL113:
 821              	.LVL114:
 822 0032 70BD     		pop	{r4, r5, r6, pc}
 823              	.L50:
 824              		.align	2
 825              	.L49:
 826 0034 00000000 		.word	CapSense_dsFlash
 827              		.cfi_endproc
ARM GAS  C:\Users\ash750\AppData\Local\Temp\ccFe1BVg.s 			page 50


 828              	.LFE3:
 829              		.size	CapSense_UpdateSensorBaseline, .-CapSense_UpdateSensorBaseline
 830              		.section	.text.CapSense_UpdateWidgetBaseline,"ax",%progbits
 831              		.align	2
 832              		.global	CapSense_UpdateWidgetBaseline
 833              		.code	16
 834              		.thumb_func
 835              		.type	CapSense_UpdateWidgetBaseline, %function
 836              	CapSense_UpdateWidgetBaseline:
 837              	.LFB2:
 144:Generated_Source\PSoC4/CapSense_Filter.c ****     uint32 sensorId;
 838              		.loc 1 144 0
 839              		.cfi_startproc
 840              		@ args = 0, pretend = 0, frame = 0
 841              		@ frame_needed = 0, uses_anonymous_args = 0
 842              	.LVL115:
 843 0000 70B5     		push	{r4, r5, r6, lr}
 844              		.cfi_def_cfa_offset 16
 845              		.cfi_offset 4, -16
 846              		.cfi_offset 5, -12
 847              		.cfi_offset 6, -8
 848              		.cfi_offset 14, -4
 849 0002 0600     		movs	r6, r0
 850              	.LVL116:
 152:Generated_Source\PSoC4/CapSense_Filter.c **** 
 851              		.loc 1 152 0
 852 0004 C200     		lsls	r2, r0, #3
 853 0006 1218     		adds	r2, r2, r0
 854 0008 9300     		lsls	r3, r2, #2
 855 000a 084A     		ldr	r2, .L54
 856 000c D318     		adds	r3, r2, r3
 857 000e 1B8B     		ldrh	r3, [r3, #24]
 858              	.LVL117:
 149:Generated_Source\PSoC4/CapSense_Filter.c **** 
 859              		.loc 1 149 0
 860 0010 0025     		movs	r5, #0
 154:Generated_Source\PSoC4/CapSense_Filter.c ****     {
 861              		.loc 1 154 0
 862 0012 05E0     		b	.L52
 863              	.LVL118:
 864              	.L53:
 156:Generated_Source\PSoC4/CapSense_Filter.c ****     }
 865              		.loc 1 156 0
 866 0014 2100     		movs	r1, r4
 867 0016 3000     		movs	r0, r6
 868 0018 FFF7FEFF 		bl	CapSense_UpdateSensorBaseline
 869              	.LVL119:
 870 001c 0543     		orrs	r5, r0
 871              	.LVL120:
 154:Generated_Source\PSoC4/CapSense_Filter.c ****     {
 872              		.loc 1 154 0
 873 001e 2300     		movs	r3, r4
 874              	.LVL121:
 875              	.L52:
 154:Generated_Source\PSoC4/CapSense_Filter.c ****     {
 876              		.loc 1 154 0 is_stmt 0 discriminator 1
 877 0020 5C1E     		subs	r4, r3, #1
ARM GAS  C:\Users\ash750\AppData\Local\Temp\ccFe1BVg.s 			page 51


 878              	.LVL122:
 879 0022 002B     		cmp	r3, #0
 880 0024 F6D1     		bne	.L53
 160:Generated_Source\PSoC4/CapSense_Filter.c **** 
 881              		.loc 1 160 0 is_stmt 1
 882 0026 2800     		movs	r0, r5
 883              		@ sp needed
 884              	.LVL123:
 885              	.LVL124:
 886              	.LVL125:
 887 0028 70BD     		pop	{r4, r5, r6, pc}
 888              	.L55:
 889 002a C046     		.align	2
 890              	.L54:
 891 002c 00000000 		.word	CapSense_dsFlash
 892              		.cfi_endproc
 893              	.LFE2:
 894              		.size	CapSense_UpdateWidgetBaseline, .-CapSense_UpdateWidgetBaseline
 895              		.section	.text.CapSense_UpdateAllBaselines,"ax",%progbits
 896              		.align	2
 897              		.global	CapSense_UpdateAllBaselines
 898              		.code	16
 899              		.thumb_func
 900              		.type	CapSense_UpdateAllBaselines, %function
 901              	CapSense_UpdateAllBaselines:
 902              	.LFB1:
  98:Generated_Source\PSoC4/CapSense_Filter.c ****     uint32 widgetId;
 903              		.loc 1 98 0
 904              		.cfi_startproc
 905              		@ args = 0, pretend = 0, frame = 0
 906              		@ frame_needed = 0, uses_anonymous_args = 0
 907 0000 70B5     		push	{r4, r5, r6, lr}
 908              		.cfi_def_cfa_offset 16
 909              		.cfi_offset 4, -16
 910              		.cfi_offset 5, -12
 911              		.cfi_offset 6, -8
 912              		.cfi_offset 14, -4
 913              	.LVL126:
 100:Generated_Source\PSoC4/CapSense_Filter.c **** 
 914              		.loc 1 100 0
 915 0002 0025     		movs	r5, #0
 102:Generated_Source\PSoC4/CapSense_Filter.c ****     {
 916              		.loc 1 102 0
 917 0004 0623     		movs	r3, #6
 918 0006 04E0     		b	.L57
 919              	.LVL127:
 920              	.L58:
 104:Generated_Source\PSoC4/CapSense_Filter.c ****     }
 921              		.loc 1 104 0
 922 0008 2000     		movs	r0, r4
 923 000a FFF7FEFF 		bl	CapSense_UpdateWidgetBaseline
 924              	.LVL128:
 925 000e 0543     		orrs	r5, r0
 926              	.LVL129:
 102:Generated_Source\PSoC4/CapSense_Filter.c ****     {
 927              		.loc 1 102 0
 928 0010 2300     		movs	r3, r4
ARM GAS  C:\Users\ash750\AppData\Local\Temp\ccFe1BVg.s 			page 52


 929              	.LVL130:
 930              	.L57:
 102:Generated_Source\PSoC4/CapSense_Filter.c ****     {
 931              		.loc 1 102 0 is_stmt 0 discriminator 1
 932 0012 5C1E     		subs	r4, r3, #1
 933              	.LVL131:
 934 0014 002B     		cmp	r3, #0
 935 0016 F7D1     		bne	.L58
 108:Generated_Source\PSoC4/CapSense_Filter.c **** 
 936              		.loc 1 108 0 is_stmt 1
 937 0018 2800     		movs	r0, r5
 938              		@ sp needed
 939              	.LVL132:
 940              	.LVL133:
 941 001a 70BD     		pop	{r4, r5, r6, pc}
 942              		.cfi_endproc
 943              	.LFE1:
 944              		.size	CapSense_UpdateAllBaselines, .-CapSense_UpdateAllBaselines
 945              		.section	.text.CapSense_RunIIRInternal,"ax",%progbits
 946              		.align	2
 947              		.global	CapSense_RunIIRInternal
 948              		.code	16
 949              		.thumb_func
 950              		.type	CapSense_RunIIRInternal, %function
 951              	CapSense_RunIIRInternal:
 952              	.LFB15:
 905:Generated_Source\PSoC4/CapSense_Filter.c ****     uint32 freqChannel;
 953              		.loc 1 905 0
 954              		.cfi_startproc
 955              		@ args = 0, pretend = 0, frame = 0
 956              		@ frame_needed = 0, uses_anonymous_args = 0
 957              	.LVL134:
 958 0000 F0B5     		push	{r4, r5, r6, r7, lr}
 959              		.cfi_def_cfa_offset 20
 960              		.cfi_offset 4, -20
 961              		.cfi_offset 5, -16
 962              		.cfi_offset 6, -12
 963              		.cfi_offset 7, -8
 964              		.cfi_offset 14, -4
 965 0002 4746     		mov	r7, r8
 966 0004 80B4     		push	{r7}
 967              		.cfi_def_cfa_offset 24
 968              		.cfi_offset 8, -24
 969 0006 0700     		movs	r7, r0
 970 0008 0E00     		movs	r6, r1
 971 000a 9046     		mov	r8, r2
 972              	.LVL135:
 909:Generated_Source\PSoC4/CapSense_Filter.c ****     {
 973              		.loc 1 909 0
 974 000c 0123     		movs	r3, #1
 975 000e 0FE0     		b	.L60
 976              	.LVL136:
 977              	.L62:
 911:Generated_Source\PSoC4/CapSense_Filter.c ****         {
 978              		.loc 1 911 0
 979 0010 FF23     		movs	r3, #255
 980 0012 4246     		mov	r2, r8
ARM GAS  C:\Users\ash750\AppData\Local\Temp\ccFe1BVg.s 			page 53


 981 0014 1340     		ands	r3, r2
 982 0016 062B     		cmp	r3, #6
 983 0018 09D0     		beq	.L61
 984              	.LVL137:
 925:Generated_Source\PSoC4/CapSense_Filter.c ****                                                         (uint32)ptrFilterHistObj.ptrRegular->regula
 985              		.loc 1 925 0
 986 001a 6500     		lsls	r5, r4, #1
 987 001c A85B     		ldrh	r0, [r5, r6]
 988              	.LVL138:
 926:Generated_Source\PSoC4/CapSense_Filter.c ****                                                         CapSense_REGULAR_IIR_RC_N,
 989              		.loc 1 926 0
 990 001e E95B     		ldrh	r1, [r5, r7]
 925:Generated_Source\PSoC4/CapSense_Filter.c ****                                                         (uint32)ptrFilterHistObj.ptrRegular->regula
 991              		.loc 1 925 0
 992 0020 0023     		movs	r3, #0
 993 0022 8022     		movs	r2, #128
 994              	.LVL139:
 995 0024 FFF7FEFF 		bl	CapSense_FtIIR1stOrder
 996              	.LVL140:
 929:Generated_Source\PSoC4/CapSense_Filter.c ****                     ptrSensorObj->raw[freqChannel] = LO16(temp >>CapSense_REGULAR_IIR_RC_SHIFT);
 997              		.loc 1 929 0
 998 0028 80B2     		uxth	r0, r0
 999              	.LVL141:
 1000 002a E853     		strh	r0, [r5, r7]
 930:Generated_Source\PSoC4/CapSense_Filter.c ****                 #endif /* (CapSense_REGULAR_IIR_RC_TYPE == CapSense_IIR_FILTER_PERFORMANCE) */
 1001              		.loc 1 930 0
 1002 002c A853     		strh	r0, [r5, r6]
 1003              	.L61:
 905:Generated_Source\PSoC4/CapSense_Filter.c ****     uint32 freqChannel;
 1004              		.loc 1 905 0 discriminator 1
 1005 002e 2300     		movs	r3, r4
 1006              	.LVL142:
 1007              	.L60:
 909:Generated_Source\PSoC4/CapSense_Filter.c ****     {
 1008              		.loc 1 909 0 discriminator 1
 1009 0030 5C1E     		subs	r4, r3, #1
 1010              	.LVL143:
 1011 0032 002B     		cmp	r3, #0
 1012 0034 ECD1     		bne	.L62
 958:Generated_Source\PSoC4/CapSense_Filter.c **** #endif /* #if (CapSense_REGULAR_RC_IIR_FILTER_EN || CapSense_PROX_RC_IIR_FILTER_EN) */
 1013              		.loc 1 958 0
 1014              		@ sp needed
 1015              	.LVL144:
 1016              	.LVL145:
 1017              	.LVL146:
 1018 0036 04BC     		pop	{r2}
 1019 0038 9046     		mov	r8, r2
 1020 003a F0BD     		pop	{r4, r5, r6, r7, pc}
 1021              		.cfi_endproc
 1022              	.LFE15:
 1023              		.size	CapSense_RunIIRInternal, .-CapSense_RunIIRInternal
 1024              		.section	.text.CapSense_RunIIR,"ax",%progbits
 1025              		.align	2
 1026              		.global	CapSense_RunIIR
 1027              		.code	16
 1028              		.thumb_func
 1029              		.type	CapSense_RunIIR, %function
ARM GAS  C:\Users\ash750\AppData\Local\Temp\ccFe1BVg.s 			page 54


 1030              	CapSense_RunIIR:
 1031              	.LFB13:
 802:Generated_Source\PSoC4/CapSense_Filter.c ****     CapSense_FLASH_WD_STRUCT const *ptrWidget = &CapSense_dsFlash.wdgtArray[widgetId];
 1032              		.loc 1 802 0
 1033              		.cfi_startproc
 1034              		@ args = 0, pretend = 0, frame = 8
 1035              		@ frame_needed = 0, uses_anonymous_args = 0
 1036              	.LVL147:
 1037 0000 F0B5     		push	{r4, r5, r6, r7, lr}
 1038              		.cfi_def_cfa_offset 20
 1039              		.cfi_offset 4, -20
 1040              		.cfi_offset 5, -16
 1041              		.cfi_offset 6, -12
 1042              		.cfi_offset 7, -8
 1043              		.cfi_offset 14, -4
 1044 0002 83B0     		sub	sp, sp, #12
 1045              		.cfi_def_cfa_offset 32
 1046 0004 0C00     		movs	r4, r1
 1047              	.LVL148:
 808:Generated_Source\PSoC4/CapSense_Filter.c ****     ptrSensor = &ptrSensor[sensorId];
 1048              		.loc 1 808 0
 1049 0006 0D4F     		ldr	r7, .L65
 1050 0008 C600     		lsls	r6, r0, #3
 1051 000a 3218     		adds	r2, r6, r0
 1052 000c 9300     		lsls	r3, r2, #2
 1053 000e FB18     		adds	r3, r7, r3
 1054              	.LVL149:
 809:Generated_Source\PSoC4/CapSense_Filter.c **** 
 1055              		.loc 1 809 0
 1056 0010 4A00     		lsls	r2, r1, #1
 1057 0012 5218     		adds	r2, r2, r1
 1058 0014 9100     		lsls	r1, r2, #2
 1059              	.LVL150:
 1060 0016 9A68     		ldr	r2, [r3, #8]
 1061 0018 9446     		mov	ip, r2
 1062 001a 6144     		add	r1, r1, ip
 1063              	.LVL151:
 812:Generated_Source\PSoC4/CapSense_Filter.c **** 
 1064              		.loc 1 812 0
 1065 001c DD68     		ldr	r5, [r3, #12]
 1066 001e 0195     		str	r5, [sp, #4]
 814:Generated_Source\PSoC4/CapSense_Filter.c ****     {
 1067              		.loc 1 814 0
 1068 0020 3018     		adds	r0, r6, r0
 1069              	.LVL152:
 1070 0022 8300     		lsls	r3, r0, #2
 1071 0024 FB18     		adds	r3, r7, r3
 1072 0026 9A7E     		ldrb	r2, [r3, #26]
 1073 0028 062A     		cmp	r2, #6
 1074 002a 02D0     		beq	.L64
 817:Generated_Source\PSoC4/CapSense_Filter.c ****         #endif /* (CapSense_REGULAR_SENSOR_EN) */
 1075              		.loc 1 817 0
 1076 002c 6400     		lsls	r4, r4, #1
 1077              	.LVL153:
 1078 002e 2B19     		adds	r3, r5, r4
 1079              	.LVL154:
 1080 0030 0193     		str	r3, [sp, #4]
ARM GAS  C:\Users\ash750\AppData\Local\Temp\ccFe1BVg.s 			page 55


 1081              	.L64:
 827:Generated_Source\PSoC4/CapSense_Filter.c **** }
 1082              		.loc 1 827 0
 1083 0032 0198     		ldr	r0, [sp, #4]
 1084 0034 FFF7FEFF 		bl	CapSense_RunIIRInternal
 1085              	.LVL155:
 828:Generated_Source\PSoC4/CapSense_Filter.c **** 
 1086              		.loc 1 828 0
 1087 0038 03B0     		add	sp, sp, #12
 1088              		@ sp needed
 1089              	.LVL156:
 1090              	.LVL157:
 1091 003a F0BD     		pop	{r4, r5, r6, r7, pc}
 1092              	.L66:
 1093              		.align	2
 1094              	.L65:
 1095 003c 00000000 		.word	CapSense_dsFlash
 1096              		.cfi_endproc
 1097              	.LFE13:
 1098              		.size	CapSense_RunIIR, .-CapSense_RunIIR
 1099              		.section	.text.CapSense_FtRunEnabledFiltersInternal,"ax",%progbits
 1100              		.align	2
 1101              		.global	CapSense_FtRunEnabledFiltersInternal
 1102              		.code	16
 1103              		.thumb_func
 1104              		.type	CapSense_FtRunEnabledFiltersInternal, %function
 1105              	CapSense_FtRunEnabledFiltersInternal:
 1106              	.LFB17:
1697:Generated_Source\PSoC4/CapSense_Filter.c ****     #if (CapSense_REGULAR_RC_MEDIAN_FILTER_EN || CapSense_PROX_RC_MEDIAN_FILTER_EN)
 1107              		.loc 1 1697 0
 1108              		.cfi_startproc
 1109              		@ args = 0, pretend = 0, frame = 0
 1110              		@ frame_needed = 0, uses_anonymous_args = 0
 1111              	.LVL158:
 1112 0000 10B5     		push	{r4, lr}
 1113              		.cfi_def_cfa_offset 8
 1114              		.cfi_offset 4, -8
 1115              		.cfi_offset 14, -4
1703:Generated_Source\PSoC4/CapSense_Filter.c ****     #endif /* (CapSense_REGULAR_RC_IIR_FILTER_EN || CapSense_PROX_RC_IIR_FILTER_EN) */
 1116              		.loc 1 1703 0
 1117 0002 FFF7FEFF 		bl	CapSense_RunIIRInternal
 1118              	.LVL159:
1709:Generated_Source\PSoC4/CapSense_Filter.c **** #endif /* (CapSense_ENABLE == CapSense_RC_FILTER_EN) */
 1119              		.loc 1 1709 0
 1120              		@ sp needed
 1121 0006 10BD     		pop	{r4, pc}
 1122              		.cfi_endproc
 1123              	.LFE17:
 1124              		.size	CapSense_FtRunEnabledFiltersInternal, .-CapSense_FtRunEnabledFiltersInternal
 1125              		.section	.text.CapSense_FtRunEnabledFilters,"ax",%progbits
 1126              		.align	2
 1127              		.global	CapSense_FtRunEnabledFilters
 1128              		.code	16
 1129              		.thumb_func
 1130              		.type	CapSense_FtRunEnabledFilters, %function
 1131              	CapSense_FtRunEnabledFilters:
 1132              	.LFB16:
ARM GAS  C:\Users\ash750\AppData\Local\Temp\ccFe1BVg.s 			page 56


1639:Generated_Source\PSoC4/CapSense_Filter.c ****     CapSense_FLASH_WD_STRUCT const *ptrWidget = &CapSense_dsFlash.wdgtArray[widgetId];
 1133              		.loc 1 1639 0
 1134              		.cfi_startproc
 1135              		@ args = 0, pretend = 0, frame = 8
 1136              		@ frame_needed = 0, uses_anonymous_args = 0
 1137              	.LVL160:
 1138 0000 F0B5     		push	{r4, r5, r6, r7, lr}
 1139              		.cfi_def_cfa_offset 20
 1140              		.cfi_offset 4, -20
 1141              		.cfi_offset 5, -16
 1142              		.cfi_offset 6, -12
 1143              		.cfi_offset 7, -8
 1144              		.cfi_offset 14, -4
 1145 0002 83B0     		sub	sp, sp, #12
 1146              		.cfi_def_cfa_offset 32
 1147 0004 0C00     		movs	r4, r1
 1148              	.LVL161:
1645:Generated_Source\PSoC4/CapSense_Filter.c ****     ptrSensor = &ptrSensor[sensorId];
 1149              		.loc 1 1645 0
 1150 0006 0D4F     		ldr	r7, .L70
 1151 0008 C600     		lsls	r6, r0, #3
 1152 000a 3218     		adds	r2, r6, r0
 1153 000c 9300     		lsls	r3, r2, #2
 1154 000e FB18     		adds	r3, r7, r3
 1155              	.LVL162:
1646:Generated_Source\PSoC4/CapSense_Filter.c **** 
 1156              		.loc 1 1646 0
 1157 0010 4A00     		lsls	r2, r1, #1
 1158 0012 5218     		adds	r2, r2, r1
 1159 0014 9100     		lsls	r1, r2, #2
 1160              	.LVL163:
 1161 0016 9A68     		ldr	r2, [r3, #8]
 1162 0018 9446     		mov	ip, r2
 1163 001a 6144     		add	r1, r1, ip
 1164              	.LVL164:
1649:Generated_Source\PSoC4/CapSense_Filter.c **** 
 1165              		.loc 1 1649 0
 1166 001c DD68     		ldr	r5, [r3, #12]
 1167 001e 0195     		str	r5, [sp, #4]
1651:Generated_Source\PSoC4/CapSense_Filter.c ****     {
 1168              		.loc 1 1651 0
 1169 0020 3018     		adds	r0, r6, r0
 1170              	.LVL165:
 1171 0022 8300     		lsls	r3, r0, #2
 1172 0024 FB18     		adds	r3, r7, r3
 1173 0026 9A7E     		ldrb	r2, [r3, #26]
 1174 0028 062A     		cmp	r2, #6
 1175 002a 02D0     		beq	.L69
1656:Generated_Source\PSoC4/CapSense_Filter.c ****         #endif
 1176              		.loc 1 1656 0
 1177 002c 6400     		lsls	r4, r4, #1
 1178              	.LVL166:
 1179 002e 2B19     		adds	r3, r5, r4
 1180              	.LVL167:
 1181 0030 0193     		str	r3, [sp, #4]
 1182              	.L69:
1668:Generated_Source\PSoC4/CapSense_Filter.c ****     #if (CapSense_ALP_FILTER_EN)
ARM GAS  C:\Users\ash750\AppData\Local\Temp\ccFe1BVg.s 			page 57


 1183              		.loc 1 1668 0
 1184 0032 0198     		ldr	r0, [sp, #4]
 1185 0034 FFF7FEFF 		bl	CapSense_FtRunEnabledFiltersInternal
 1186              	.LVL168:
1672:Generated_Source\PSoC4/CapSense_Filter.c **** 
 1187              		.loc 1 1672 0
 1188 0038 03B0     		add	sp, sp, #12
 1189              		@ sp needed
 1190              	.LVL169:
 1191              	.LVL170:
 1192 003a F0BD     		pop	{r4, r5, r6, r7, pc}
 1193              	.L71:
 1194              		.align	2
 1195              	.L70:
 1196 003c 00000000 		.word	CapSense_dsFlash
 1197              		.cfi_endproc
 1198              	.LFE16:
 1199              		.size	CapSense_FtRunEnabledFilters, .-CapSense_FtRunEnabledFilters
 1200              		.text
 1201              	.Letext0:
 1202              		.file 2 "Generated_Source\\PSoC4\\cytypes.h"
 1203              		.file 3 "Generated_Source\\PSoC4\\CapSense_Configuration.h"
 1204              		.file 4 "Generated_Source\\PSoC4\\CapSense_Structure.h"
 1205              		.file 5 "Generated_Source\\PSoC4\\CapSense_SelfTest.h"