ARM GAS  C:\Users\ash750\AppData\Local\Temp\ccWC5bOe.s 			page 1


   1              		.syntax unified
   2              		.cpu cortex-m0
   3              		.fpu softvfp
   4              		.eabi_attribute 20, 1
   5              		.eabi_attribute 21, 1
   6              		.eabi_attribute 23, 3
   7              		.eabi_attribute 24, 1
   8              		.eabi_attribute 25, 1
   9              		.eabi_attribute 26, 1
  10              		.eabi_attribute 30, 1
  11              		.eabi_attribute 34, 0
  12              		.eabi_attribute 18, 4
  13              		.thumb
  14              		.syntax unified
  15              		.file	"main.c"
  16              		.text
  17              	.Ltext0:
  18              		.cfi_sections	.debug_frame
  19              		.section	.text.MY_ISR_TS,"ax",%progbits
  20              		.align	2
  21              		.global	MY_ISR_TS
  22              		.code	16
  23              		.thumb_func
  24              		.type	MY_ISR_TS, %function
  25              	MY_ISR_TS:
  26              	.LFB32:
  27              		.file 1 "main.c"
   1:main.c        **** 
   2:main.c        **** #include "project.h"
   3:main.c        **** 
   4:main.c        **** 
   5:main.c        **** #define TOTAL_RX_TX_PINS  CapSense_TOTAL_ELECTRODES
   6:main.c        **** 
   7:main.c        **** #define CAP_MEASUREMENT_RATE 5 //1 sec >= 5, timer tick rate is 0.2 second
   8:main.c        **** 
   9:main.c        **** volatile uint8 flag_sns = 0, flag_cp = 0;
  10:main.c        **** uint32 c;
  11:main.c        **** 
  12:main.c        **** //---------------------------
  13:main.c        **** // Uncomment only one
  14:main.c        **** //#define MATLAB_ONLY_SENSOR_VALUE_MEASUREMENT
  15:main.c        **** //#define MATLAB_ALL_DATA
  16:main.c        **** #define MATLAB_EXTENDED_SET_MEASUREMENT
  17:main.c        **** //#define MATLAB_CAPACITOR_MEASUREMENT
  18:main.c        **** //#define TUNER
  19:main.c        **** //---------------------------
  20:main.c        **** 
  21:main.c        **** #ifdef TUNER
  22:main.c        **** uint8 header[] = {0x0Du, 0x0Au};
  23:main.c        **** uint8 tail[] = {0x00u, 0xFFu, 0xFFu};
  24:main.c        **** #endif
  25:main.c        **** 
  26:main.c        **** #ifdef MATLAB_EXTENDED_SET_MEASUREMENT
  27:main.c        **** uint8 header[] = {0xffu, 0xffu};    
  28:main.c        **** uint8 tail[] = {0x00u, 0xFFu};
  29:main.c        **** 
  30:main.c        **** uint16 sns_value[CapSense_TOTAL_CSX_NODES];
ARM GAS  C:\Users\ash750\AppData\Local\Temp\ccWC5bOe.s 			page 2


  31:main.c        **** uint8 idac_comp[CapSense_TOTAL_CSX_NODES];
  32:main.c        **** uint32 sns_capacitance[CapSense_TOTAL_CSX_NODES];
  33:main.c        **** uint32 ext_capacitance[3]; // CMOD, CINTA, CINTB
  34:main.c        **** uint8 i;
  35:main.c        **** #endif
  36:main.c        **** 
  37:main.c        **** CY_ISR(MY_ISR_TS)
  38:main.c        **** {
  28              		.loc 1 38 0
  29              		.cfi_startproc
  30              		@ args = 0, pretend = 0, frame = 0
  31              		@ frame_needed = 0, uses_anonymous_args = 0
  32 0000 10B5     		push	{r4, lr}
  33              		.cfi_def_cfa_offset 8
  34              		.cfi_offset 4, -8
  35              		.cfi_offset 14, -4
  39:main.c        **** /* ISR Code here */
  40:main.c        ****     flag_sns++;
  36              		.loc 1 40 0
  37 0002 064A     		ldr	r2, .L2
  38 0004 1378     		ldrb	r3, [r2]
  39 0006 0133     		adds	r3, r3, #1
  40 0008 DBB2     		uxtb	r3, r3
  41 000a 1370     		strb	r3, [r2]
  41:main.c        ****     flag_cp++;
  42              		.loc 1 41 0
  43 000c 5378     		ldrb	r3, [r2, #1]
  44 000e 0133     		adds	r3, r3, #1
  45 0010 DBB2     		uxtb	r3, r3
  46 0012 5370     		strb	r3, [r2, #1]
  42:main.c        ****     isr_TS_ClearPending();
  47              		.loc 1 42 0
  48 0014 FFF7FEFF 		bl	isr_TS_ClearPending
  49              	.LVL0:
  43:main.c        **** }
  50              		.loc 1 43 0
  51              		@ sp needed
  52 0018 10BD     		pop	{r4, pc}
  53              	.L3:
  54 001a C046     		.align	2
  55              	.L2:
  56 001c 00000000 		.word	.LANCHOR0
  57              		.cfi_endproc
  58              	.LFE32:
  59              		.size	MY_ISR_TS, .-MY_ISR_TS
  60              		.section	.text.main,"ax",%progbits
  61              		.align	2
  62              		.global	main
  63              		.code	16
  64              		.thumb_func
  65              		.type	main, %function
  66              	main:
  67              	.LFB33:
  44:main.c        **** 
  45:main.c        **** int main()
  46:main.c        **** {
  68              		.loc 1 46 0
ARM GAS  C:\Users\ash750\AppData\Local\Temp\ccWC5bOe.s 			page 3


  69              		.cfi_startproc
  70              		@ args = 0, pretend = 0, frame = 8
  71              		@ frame_needed = 0, uses_anonymous_args = 0
  72 0000 70B5     		push	{r4, r5, r6, lr}
  73              		.cfi_def_cfa_offset 16
  74              		.cfi_offset 4, -16
  75              		.cfi_offset 5, -12
  76              		.cfi_offset 6, -8
  77              		.cfi_offset 14, -4
  78 0002 82B0     		sub	sp, sp, #8
  79              		.cfi_def_cfa_offset 24
  47:main.c        ****     uint32 *ptr32;
  48:main.c        ****     CapSense_TST_MEASUREMENT_STATUS_ENUM StatusPtr;
  49:main.c        ****     
  50:main.c        ****     CyGlobalIntEnable; /* Enable global interrupts. */
  80              		.loc 1 50 0
  81              		.syntax divided
  82              	@ 50 "main.c" 1
  83 0004 62B6     		CPSIE   i
  84              	@ 0 "" 2
  51:main.c        **** //    __enable_irq(); /* Enable global interrupts. */
  52:main.c        ****     UART_Start(); /* Start EZI2C Component */
  85              		.loc 1 52 0
  86              		.thumb
  87              		.syntax unified
  88 0006 FFF7FEFF 		bl	UART_Start
  89              	.LVL1:
  53:main.c        ****     L1_Write(0);
  90              		.loc 1 53 0
  91 000a 0020     		movs	r0, #0
  92 000c FFF7FEFF 		bl	L1_Write
  93              	.LVL2:
  54:main.c        ****     L2_Write(0);
  94              		.loc 1 54 0
  95 0010 0020     		movs	r0, #0
  96 0012 FFF7FEFF 		bl	L2_Write
  97              	.LVL3:
  55:main.c        ****     
  56:main.c        **** // Timer for Cap sensing    
  57:main.c        ****     isr_TS_StartEx(MY_ISR_TS);
  98              		.loc 1 57 0
  99 0016 4F48     		ldr	r0, .L15
 100 0018 FFF7FEFF 		bl	isr_TS_StartEx
 101              	.LVL4:
  58:main.c        ****     isr_TS_ClearPending();
 102              		.loc 1 58 0
 103 001c FFF7FEFF 		bl	isr_TS_ClearPending
 104              	.LVL5:
  59:main.c        ****     TSTimer_Start();
 105              		.loc 1 59 0
 106 0020 FFF7FEFF 		bl	TSTimer_Start
 107              	.LVL6:
  60:main.c        **** 
  61:main.c        **** // TIMER TEST
  62:main.c        **** //    while(1)
  63:main.c        **** //    {
  64:main.c        **** //        if (flag_sns > 0)
ARM GAS  C:\Users\ash750\AppData\Local\Temp\ccWC5bOe.s 			page 4


  65:main.c        **** //        {
  66:main.c        **** //            L2_Write(!L2_Read());
  67:main.c        **** //            flag_sns = 0;
  68:main.c        **** //        }
  69:main.c        **** //        if (flag_cp > 5)
  70:main.c        **** //        {
  71:main.c        **** //            L1_Write(!L1_Read());
  72:main.c        **** //            flag_cp = 0;
  73:main.c        **** //        } 
  74:main.c        **** //    }
  75:main.c        ****     
  76:main.c        ****     
  77:main.c        ****     
  78:main.c        ****  /* 
  79:main.c        ****  * Set up communication and initialize data buffer to CapSense data structure
  80:main.c        ****  * to use Tuner application
  81:main.c        ****  */
  82:main.c        **** // EZI2C_EzI2CSetBuffer1(sizeof(CapSense_dsRam), sizeof(CapSense_dsRam), (uint8_t *)&(CapSense_dsRa
  83:main.c        ****     CapSense_Start(); /* Initialize Component */
 108              		.loc 1 83 0
 109 0024 FFF7FEFF 		bl	CapSense_Start
 110              	.LVL7:
  84:main.c        ****     CapSense_ScanAllWidgets(); /* Scan all widgets */
 111              		.loc 1 84 0
 112 0028 FFF7FEFF 		bl	CapSense_ScanAllWidgets
 113              	.LVL8:
  85:main.c        ****     ptr32 = (uint32*)(&CapSense_dsRam) + 336;
 114              		.loc 1 85 0
 115 002c 4A4C     		ldr	r4, .L15+4
 116              	.LVL9:
 117              	.L5:
  86:main.c        ****      for(;;)
  87:main.c        ****      {
  88:main.c        ****      /* Do this only when a scan is done */
  89:main.c        ****          if(CapSense_NOT_BUSY == CapSense_IsBusy())
 118              		.loc 1 89 0
 119 002e FFF7FEFF 		bl	CapSense_IsBusy
 120              	.LVL10:
 121 0032 0028     		cmp	r0, #0
 122 0034 FBD1     		bne	.L5
  90:main.c        ****          {
  91:main.c        ****             CapSense_ProcessAllWidgets(); /* Process all widgets */
 123              		.loc 1 91 0
 124 0036 FFF7FEFF 		bl	CapSense_ProcessAllWidgets
 125              	.LVL11:
  92:main.c        ****             CapSense_RunTuner(); /* To sync with Tuner application */
 126              		.loc 1 92 0
 127 003a FFF7FEFF 		bl	CapSense_RunTuner
 128              	.LVL12:
  93:main.c        **** 
  94:main.c        **** #ifdef TUNER                        
  95:main.c        ****             UART_SpiUartPutArray((uint8 *)(&header), sizeof(header));
  96:main.c        ****             UART_SpiUartPutArray((uint8 *)(&CapSense_dsRam), sizeof(CapSense_dsRam));
  97:main.c        ****             UART_SpiUartPutArray((uint8 *)(&tail), sizeof(tail));
  98:main.c        **** #endif
  99:main.c        **** 
 100:main.c        ****     #ifdef MATLAB_EXTENDED_SET_MEASUREMENT
ARM GAS  C:\Users\ash750\AppData\Local\Temp\ccWC5bOe.s 			page 5


 101:main.c        ****             if (flag_sns > 0)
 129              		.loc 1 101 0
 130 003e 474B     		ldr	r3, .L15+8
 131 0040 1B78     		ldrb	r3, [r3]
 132 0042 002B     		cmp	r3, #0
 133 0044 36D0     		beq	.L6
 102:main.c        ****             {
 103:main.c        ****                 for (i = 0; i < CapSense_TOTAL_CSX_NODES; i++)
 134              		.loc 1 103 0
 135 0046 0022     		movs	r2, #0
 136 0048 454B     		ldr	r3, .L15+12
 137 004a 1A70     		strb	r2, [r3]
 138 004c 10E0     		b	.L7
 139              	.LVL13:
 140              	.L8:
 104:main.c        ****                 {
 105:main.c        ****                     sns_value[i] = CapSense_dsRam.snsList.button0[i].raw[0u];
 141              		.loc 1 105 0 discriminator 3
 142 004e 5900     		lsls	r1, r3, #1
 143 0050 C818     		adds	r0, r1, r3
 144 0052 8200     		lsls	r2, r0, #2
 145 0054 4348     		ldr	r0, .L15+16
 146 0056 8218     		adds	r2, r0, r2
 147 0058 1000     		movs	r0, r2
 148 005a 8830     		adds	r0, r0, #136
 149 005c 0488     		ldrh	r4, [r0]
 150 005e 4248     		ldr	r0, .L15+20
 151 0060 0C52     		strh	r4, [r1, r0]
 106:main.c        ****                     idac_comp[i] = CapSense_dsRam.snsList.button0[i].idacComp[0u];
 152              		.loc 1 106 0 discriminator 3
 153 0062 9332     		adds	r2, r2, #147
 154 0064 1178     		ldrb	r1, [r2]
 155 0066 414A     		ldr	r2, .L15+24
 156 0068 D154     		strb	r1, [r2, r3]
 103:main.c        ****                 {
 157              		.loc 1 103 0 discriminator 3
 158 006a 0133     		adds	r3, r3, #1
 159 006c 3C4A     		ldr	r2, .L15+12
 160 006e 1370     		strb	r3, [r2]
 161              	.L7:
 103:main.c        ****                 {
 162              		.loc 1 103 0 is_stmt 0 discriminator 1
 163 0070 3B4B     		ldr	r3, .L15+12
 164 0072 1B78     		ldrb	r3, [r3]
 165 0074 0B2B     		cmp	r3, #11
 166 0076 EAD9     		bls	.L8
 167              	.LVL14:
 107:main.c        ****                 }
 108:main.c        ****                 ptr32 = (uint32*)(&CapSense_dsRam) + 336;                     
 109:main.c        ****     //            UART_SpiUartPutArray((uint8 *)(&header), sizeof(header));
 110:main.c        ****                 UART_SpiUartPutArray((uint8 *)(&sns_value[0]), CapSense_TOTAL_CSX_NODES*sizeof(uint
 168              		.loc 1 110 0 is_stmt 1
 169 0078 1821     		movs	r1, #24
 170 007a 3B48     		ldr	r0, .L15+20
 171 007c FFF7FEFF 		bl	UART_SpiUartPutArray
 172              	.LVL15:
 111:main.c        ****                 UART_SpiUartPutArray((uint8 *)(&idac_comp[0]), CapSense_TOTAL_CSX_NODES*sizeof(uint
ARM GAS  C:\Users\ash750\AppData\Local\Temp\ccWC5bOe.s 			page 6


 173              		.loc 1 111 0
 174 0080 0C21     		movs	r1, #12
 175 0082 3A48     		ldr	r0, .L15+24
 176 0084 FFF7FEFF 		bl	UART_SpiUartPutArray
 177              	.LVL16:
 112:main.c        ****     //            UART_SpiUartPutArray((uint8 *)(&sns_capacitance[0]), TOTAL_RX_TX_PINS*sizeof(uint
 113:main.c        ****                 UART_SpiUartPutArray((uint8 *)(ptr32), TOTAL_RX_TX_PINS*sizeof(uint32));
 178              		.loc 1 113 0
 179 0088 334C     		ldr	r4, .L15+4
 180              	.LVL17:
 181 008a 4821     		movs	r1, #72
 182 008c 2000     		movs	r0, r4
 183 008e FFF7FEFF 		bl	UART_SpiUartPutArray
 184              	.LVL18:
 114:main.c        ****                 UART_SpiUartPutArray((uint8 *)(&ext_capacitance[0]), 3*sizeof(uint32));
 185              		.loc 1 114 0
 186 0092 0C21     		movs	r1, #12
 187 0094 3648     		ldr	r0, .L15+28
 188 0096 FFF7FEFF 		bl	UART_SpiUartPutArray
 189              	.LVL19:
 115:main.c        ****     //            UART_SpiUartPutArray((uint8 *)(&tail), sizeof(tail));
 116:main.c        ****                 UART_UartPutCRLF(0xff);
 190              		.loc 1 116 0
 191 009a FF20     		movs	r0, #255
 192 009c FFF7FEFF 		bl	UART_UartPutCRLF
 193              	.LVL20:
 117:main.c        ****                 L1_Write(!L1_Read());
 194              		.loc 1 117 0
 195 00a0 FFF7FEFF 		bl	L1_Read
 196              	.LVL21:
 197 00a4 4342     		rsbs	r3, r0, #0
 198 00a6 5841     		adcs	r0, r0, r3
 199 00a8 C0B2     		uxtb	r0, r0
 200 00aa FFF7FEFF 		bl	L1_Write
 201              	.LVL22:
 118:main.c        ****                 flag_sns = 0;
 202              		.loc 1 118 0
 203 00ae 0022     		movs	r2, #0
 204 00b0 2A4B     		ldr	r3, .L15+8
 205 00b2 1A70     		strb	r2, [r3]
 206              	.L6:
 119:main.c        ****             }
 120:main.c        ****             if (flag_cp >= CAP_MEASUREMENT_RATE)
 207              		.loc 1 120 0
 208 00b4 294B     		ldr	r3, .L15+8
 209 00b6 5B78     		ldrb	r3, [r3, #1]
 210 00b8 DBB2     		uxtb	r3, r3
 211 00ba 042B     		cmp	r3, #4
 212 00bc 45D9     		bls	.L9
 121:main.c        ****             {
 122:main.c        **** //                ptr32 = (uint32*)(&CapSense_dsRam) + 336;
 123:main.c        **** //                for (i = 0; i < TOTAL_RX_TX_PINS; i++)
 124:main.c        **** //                {
 125:main.c        **** //                    *(ptr32+i)  = CapSense_GetSensorCapacitance(CapSense_MATRIXBUTTONS0_WDGT_ID, 
 126:main.c        **** //                    while(CapSense_NOT_BUSY != CapSense_IsBusy()){}
 127:main.c        **** //                }            
 128:main.c        ****                 
ARM GAS  C:\Users\ash750\AppData\Local\Temp\ccWC5bOe.s 			page 7


 129:main.c        ****                 for (i = 0; i < 6; i++)
 213              		.loc 1 129 0
 214 00be 0022     		movs	r2, #0
 215 00c0 274B     		ldr	r3, .L15+12
 216 00c2 1A70     		strb	r2, [r3]
 217 00c4 29E0     		b	.L10
 218              	.L11:
 130:main.c        ****                 {
 131:main.c        ****                     while(CapSense_NOT_BUSY != CapSense_IsBusy()){};
 219              		.loc 1 131 0 discriminator 1
 220 00c6 FFF7FEFF 		bl	CapSense_IsBusy
 221              	.LVL23:
 222 00ca 0028     		cmp	r0, #0
 223 00cc FBD1     		bne	.L11
 224              	.LVL24:
 132:main.c        ****                     *(ptr32++) =  CapSense_GetSensorCapacitance(i, 0, &StatusPtr);
 225              		.loc 1 132 0
 226 00ce 244B     		ldr	r3, .L15+12
 227 00d0 1878     		ldrb	r0, [r3]
 228 00d2 6B46     		mov	r3, sp
 229 00d4 DA1D     		adds	r2, r3, #7
 230 00d6 0021     		movs	r1, #0
 231 00d8 FFF7FEFF 		bl	CapSense_GetSensorCapacitance
 232              	.LVL25:
 233 00dc 2060     		str	r0, [r4]
 234              	.L12:
 133:main.c        ****                     
 134:main.c        ****                     while(CapSense_NOT_BUSY != CapSense_IsBusy()){};
 235              		.loc 1 134 0 discriminator 1
 236 00de FFF7FEFF 		bl	CapSense_IsBusy
 237              	.LVL26:
 238 00e2 0028     		cmp	r0, #0
 239 00e4 FBD1     		bne	.L12
 240              	.LVL27:
 135:main.c        ****                     *(ptr32++) =  CapSense_GetSensorCapacitance(i, 1, &StatusPtr);
 241              		.loc 1 135 0
 242 00e6 1E4B     		ldr	r3, .L15+12
 243 00e8 1878     		ldrb	r0, [r3]
 244 00ea 6B46     		mov	r3, sp
 245 00ec DA1D     		adds	r2, r3, #7
 246 00ee 0121     		movs	r1, #1
 247 00f0 FFF7FEFF 		bl	CapSense_GetSensorCapacitance
 248              	.LVL28:
 249 00f4 6060     		str	r0, [r4, #4]
 250              	.L13:
 136:main.c        ****                     
 137:main.c        ****                     while(CapSense_NOT_BUSY != CapSense_IsBusy()){};
 251              		.loc 1 137 0 discriminator 1
 252 00f6 FFF7FEFF 		bl	CapSense_IsBusy
 253              	.LVL29:
 254 00fa 0028     		cmp	r0, #0
 255 00fc FBD1     		bne	.L13
 138:main.c        ****                     *(ptr32++) =  CapSense_GetSensorCapacitance(i, 2, &StatusPtr);
 256              		.loc 1 138 0 discriminator 2
 257 00fe 2600     		movs	r6, r4
 258 0100 0C36     		adds	r6, r6, #12
 259              	.LVL30:
ARM GAS  C:\Users\ash750\AppData\Local\Temp\ccWC5bOe.s 			page 8


 260 0102 174D     		ldr	r5, .L15+12
 261 0104 2878     		ldrb	r0, [r5]
 262 0106 6B46     		mov	r3, sp
 263 0108 DA1D     		adds	r2, r3, #7
 264 010a 0221     		movs	r1, #2
 265 010c FFF7FEFF 		bl	CapSense_GetSensorCapacitance
 266              	.LVL31:
 267 0110 A060     		str	r0, [r4, #8]
 129:main.c        ****                 {
 268              		.loc 1 129 0 discriminator 2
 269 0112 2B78     		ldrb	r3, [r5]
 270 0114 0133     		adds	r3, r3, #1
 271 0116 2B70     		strb	r3, [r5]
 272              		.loc 1 138 0 discriminator 2
 273 0118 3400     		movs	r4, r6
 274              	.LVL32:
 275              	.L10:
 129:main.c        ****                 {
 276              		.loc 1 129 0 discriminator 1
 277 011a 114B     		ldr	r3, .L15+12
 278 011c 1B78     		ldrb	r3, [r3]
 279 011e 052B     		cmp	r3, #5
 280 0120 D1D9     		bls	.L11
 139:main.c        ****                 }
 140:main.c        ****                 
 141:main.c        **** //                CapSense_RunSelfTest(CapSense_TST_RUN_SELF_TEST_MASK);
 142:main.c        **** //                while(CapSense_NOT_BUSY != CapSense_IsBusy()){}
 143:main.c        **** //                CapSense_RunSelfTest(CapSense_TST_SNS_CAP);
 144:main.c        ****                 
 145:main.c        ****                 
 146:main.c        ****                 // NOTE: MEasuring CMOD not available in library - contrary to datasheet!
 147:main.c        ****                 ext_capacitance[0] = 0u;    //CapSense_GetExtCapCapacitance(CapSense_TST_CMOD_ID); 
 281              		.loc 1 147 0
 282 0122 134D     		ldr	r5, .L15+28
 283 0124 0026     		movs	r6, #0
 284 0126 2E60     		str	r6, [r5]
 148:main.c        ****                 ext_capacitance[1] = CapSense_GetExtCapCapacitance(CapSense_TST_CINTA_ID);
 285              		.loc 1 148 0
 286 0128 0020     		movs	r0, #0
 287 012a FFF7FEFF 		bl	CapSense_GetExtCapCapacitance
 288              	.LVL33:
 289 012e 6860     		str	r0, [r5, #4]
 149:main.c        ****                 ext_capacitance[2] = CapSense_GetExtCapCapacitance(CapSense_TST_CINTB_ID);
 290              		.loc 1 149 0
 291 0130 0120     		movs	r0, #1
 292 0132 FFF7FEFF 		bl	CapSense_GetExtCapCapacitance
 293              	.LVL34:
 294 0136 A860     		str	r0, [r5, #8]
 150:main.c        ****                 
 151:main.c        ****                 flag_cp = 0;                
 295              		.loc 1 151 0
 296 0138 084B     		ldr	r3, .L15+8
 297 013a 5E70     		strb	r6, [r3, #1]
 152:main.c        ****                 L2_Write(!L2_Read());
 298              		.loc 1 152 0
 299 013c FFF7FEFF 		bl	L2_Read
 300              	.LVL35:
ARM GAS  C:\Users\ash750\AppData\Local\Temp\ccWC5bOe.s 			page 9


 301 0140 4342     		rsbs	r3, r0, #0
 302 0142 5841     		adcs	r0, r0, r3
 303 0144 C0B2     		uxtb	r0, r0
 304 0146 FFF7FEFF 		bl	L2_Write
 305              	.LVL36:
 306              	.L9:
 153:main.c        ****             }
 154:main.c        ****             
 155:main.c        ****     #endif
 156:main.c        **** 
 157:main.c        **** 
 158:main.c        **** 
 159:main.c        ****             if (CapSense_IsAnyWidgetActive()) /* Scan result verification */
 307              		.loc 1 159 0
 308 014a FFF7FEFF 		bl	CapSense_IsAnyWidgetActive
 309              	.LVL37:
 160:main.c        ****             {
 161:main.c        ****      /* add custom tasks to execute when touch detected */
 162:main.c        ****             }
 163:main.c        ****      
 164:main.c        ****             CapSense_ScanAllWidgets(); /* Start next scan */
 310              		.loc 1 164 0
 311 014e FFF7FEFF 		bl	CapSense_ScanAllWidgets
 312              	.LVL38:
 313 0152 6CE7     		b	.L5
 314              	.L16:
 315              		.align	2
 316              	.L15:
 317 0154 00000000 		.word	MY_ISR_TS
 318 0158 40050000 		.word	CapSense_dsRam+1344
 319 015c 00000000 		.word	.LANCHOR0
 320 0160 00000000 		.word	i
 321 0164 00000000 		.word	CapSense_dsRam
 322 0168 00000000 		.word	sns_value
 323 016c 00000000 		.word	idac_comp
 324 0170 00000000 		.word	ext_capacitance
 325              		.cfi_endproc
 326              	.LFE33:
 327              		.size	main, .-main
 328              		.comm	i,1,1
 329              		.comm	ext_capacitance,12,4
 330              		.comm	sns_capacitance,48,4
 331              		.comm	idac_comp,12,4
 332              		.comm	sns_value,24,4
 333              		.global	tail
 334              		.global	header
 335              		.comm	c,4,4
 336              		.global	flag_cp
 337              		.global	flag_sns
 338              		.data
 339              		.align	2
 340              		.type	tail, %object
 341              		.size	tail, 2
 342              	tail:
 343 0000 00       		.byte	0
 344 0001 FF       		.byte	-1
 345 0002 0000     		.space	2
ARM GAS  C:\Users\ash750\AppData\Local\Temp\ccWC5bOe.s 			page 10


 346              		.type	header, %object
 347              		.size	header, 2
 348              	header:
 349 0004 FF       		.byte	-1
 350 0005 FF       		.byte	-1
 351              		.bss
 352              		.set	.LANCHOR0,. + 0
 353              		.type	flag_sns, %object
 354              		.size	flag_sns, 1
 355              	flag_sns:
 356 0000 00       		.space	1
 357              		.type	flag_cp, %object
 358              		.size	flag_cp, 1
 359              	flag_cp:
 360 0001 00       		.space	1
 361              		.text
 362              	.Letext0:
 363              		.file 2 "Generated_Source\\PSoC4/cytypes.h"
 364              		.file 3 "Generated_Source\\PSoC4/CapSense_Configuration.h"
 365              		.file 4 "Generated_Source\\PSoC4/CapSense_Structure.h"
 366              		.file 5 "Generated_Source\\PSoC4/isr_TS.h"
 367              		.file 6 "Generated_Source\\PSoC4/UART.h"
 368              		.file 7 "Generated_Source\\PSoC4/L1.h"
 369              		.file 8 "Generated_Source\\PSoC4/L2.h"
 370              		.file 9 "Generated_Source\\PSoC4/TSTimer.h"
 371              		.file 10 "Generated_Source\\PSoC4/CapSense_Control.h"
 372              		.file 11 "Generated_Source\\PSoC4/CapSense_Sensing.h"
 373              		.file 12 "Generated_Source\\PSoC4/CapSense_Tuner.h"
 374              		.file 13 "Generated_Source\\PSoC4/UART_SPI_UART.h"
 375              		.file 14 "Generated_Source\\PSoC4/CapSense_SelfTest.h"