ARM GAS  C:\Users\npat025\AppData\Local\Temp\ccyw4Tcj.s 			page 1


   1              		.syntax unified
   2              		.cpu cortex-m0
   3              		.fpu softvfp
   4              		.eabi_attribute 20, 1
   5              		.eabi_attribute 21, 1
   6              		.eabi_attribute 23, 3
   7              		.eabi_attribute 24, 1
   8              		.eabi_attribute 25, 1
   9              		.eabi_attribute 26, 1
  10              		.eabi_attribute 30, 4
  11              		.eabi_attribute 34, 0
  12              		.eabi_attribute 18, 4
  13              		.thumb
  14              		.syntax unified
  15              		.file	"UART_Btldr.c"
  16              		.text
  17              	.Ltext0:
  18              		.cfi_sections	.debug_frame
  19              		.section	.text.CyBtldrCommStart,"ax",%progbits
  20              		.align	1
  21              		.global	CyBtldrCommStart
  22              		.code	16
  23              		.thumb_func
  24              		.type	CyBtldrCommStart, %function
  25              	CyBtldrCommStart:
  26              	.LFB32:
  27              		.file 1 "UART_Btldr.c"
   1:UART_Btldr.c  **** /******************************************************************************
   2:UART_Btldr.c  **** * Project Name		: UART_Bootloader
   3:UART_Btldr.c  **** * File Name			: UART_Btldr.c
   4:UART_Btldr.c  **** * Version 			: 1.0
   5:UART_Btldr.c  **** * Device Used		: CY8C4245AXI-483
   6:UART_Btldr.c  **** * Software Used		: PSoC Creator 3.0
   7:UART_Btldr.c  **** * Compiler    		: ARMGCC 4.7.3, ARM RVDS Generic, ARM MDK Generic
   8:UART_Btldr.c  **** * Related Hardware	: CY8CKIT-049-42xx PSoC 4 Prototyping Kit 
   9:UART_Btldr.c  **** *
  10:UART_Btldr.c  **** ********************************************************************************
  11:UART_Btldr.c  **** * Copyright (2014), Cypress Semiconductor Corporation. All Rights Reserved.
  12:UART_Btldr.c  **** ********************************************************************************
  13:UART_Btldr.c  **** * This software is owned by Cypress Semiconductor Corporation (Cypress)
  14:UART_Btldr.c  **** * and is protected by and subject to worldwide patent protection (United
  15:UART_Btldr.c  **** * States and foreign), United States copyright laws and international treaty
  16:UART_Btldr.c  **** * provisions. Cypress hereby grants to licensee a personal, non-exclusive,
  17:UART_Btldr.c  **** * non-transferable license to copy, use, modify, create derivative works of,
  18:UART_Btldr.c  **** * and compile the Cypress Source Code and derivative works for the sole
  19:UART_Btldr.c  **** * purpose of creating custom software in support of licensee product to be
  20:UART_Btldr.c  **** * used only in conjunction with a Cypress integrated circuit as specified in
  21:UART_Btldr.c  **** * the applicable agreement. Any reproduction, modification, translation,
  22:UART_Btldr.c  **** * compilation, or representation of this software except as specified above 
  23:UART_Btldr.c  **** * is prohibited without the express written permission of Cypress.
  24:UART_Btldr.c  **** *
  25:UART_Btldr.c  **** * Disclaimer: CYPRESS MAKES NO WARRANTY OF ANY KIND, EXPRESS OR IMPLIED, WITH 
  26:UART_Btldr.c  **** * REGARD TO THIS MATERIAL, INCLUDING, BUT NOT LIMITED TO, THE IMPLIED 
  27:UART_Btldr.c  **** * WARRANTIES OF MERCHANTABILITY AND FITNESS FOR A PARTICULAR PURPOSE.
  28:UART_Btldr.c  **** * Cypress reserves the right to make changes without further notice to the 
  29:UART_Btldr.c  **** * materials described herein. Cypress does not assume any liability arising out 
  30:UART_Btldr.c  **** * of the application or use of any product or circuit described herein. Cypress 
ARM GAS  C:\Users\npat025\AppData\Local\Temp\ccyw4Tcj.s 			page 2


  31:UART_Btldr.c  **** * does not authorize its products for use as critical components in life-support 
  32:UART_Btldr.c  **** * systems where a malfunction or failure may reasonably be expected to result in 
  33:UART_Btldr.c  **** * significant injury to the user. The inclusion of Cypress' product in a life-
  34:UART_Btldr.c  **** * support systems application implies that the manufacturer assumes all risk of 
  35:UART_Btldr.c  **** * such use and in doing so indemnifies Cypress against all charges. 
  36:UART_Btldr.c  **** *
  37:UART_Btldr.c  **** * Use of this Software may be limited by and subject to the applicable Cypress
  38:UART_Btldr.c  **** * software license agreement. 
  39:UART_Btldr.c  **** *******************************************************************************/
  40:UART_Btldr.c  **** /*******************************************************************************
  41:UART_Btldr.c  **** * Description:
  42:UART_Btldr.c  **** * This file contains the bootloader communication functions implemented using 
  43:UART_Btldr.c  **** * UART. Some portion of this code depends on the code placed in UART receive 
  44:UART_Btldr.c  **** * interrupt routine in main.c file.
  45:UART_Btldr.c  **** ********************************************************************************/
  46:UART_Btldr.c  **** 
  47:UART_Btldr.c  **** #include "UART.h" 
  48:UART_Btldr.c  **** #include "project.h"
  49:UART_Btldr.c  **** 
  50:UART_Btldr.c  **** /* Byte to Byte time out in ms for detecting end of block data from host*/
  51:UART_Btldr.c  **** #define BYTE2BYTE_TIME_OUT 2
  52:UART_Btldr.c  **** 
  53:UART_Btldr.c  **** #define BTLDR_SIZEOF_READ_BUFFER 0xff
  54:UART_Btldr.c  **** #define BTLDR_SIZEOF_WRITE_BUFFER 0xff
  55:UART_Btldr.c  **** #define END_OF_PACKET 0x17
  56:UART_Btldr.c  **** 
  57:UART_Btldr.c  **** /***************************************
  58:UART_Btldr.c  **** *Global variables
  59:UART_Btldr.c  **** ***************************************/
  60:UART_Btldr.c  **** 
  61:UART_Btldr.c  **** /* UART receive data count variable  */
  62:UART_Btldr.c  **** volatile uint16 receivedDataCount=0;
  63:UART_Btldr.c  **** 
  64:UART_Btldr.c  **** /*******************************************************************************
  65:UART_Btldr.c  **** * Function Name: CyBtldrCommStart
  66:UART_Btldr.c  **** ********************************************************************************
  67:UART_Btldr.c  **** *
  68:UART_Btldr.c  **** * Summary:
  69:UART_Btldr.c  **** *  Starts the UART communication component 
  70:UART_Btldr.c  **** *
  71:UART_Btldr.c  **** * Parameters:  
  72:UART_Btldr.c  **** *  void
  73:UART_Btldr.c  **** *
  74:UART_Btldr.c  **** * Return: 
  75:UART_Btldr.c  **** *  void 
  76:UART_Btldr.c  **** *
  77:UART_Btldr.c  **** * Side Effects:
  78:UART_Btldr.c  **** *   None  
  79:UART_Btldr.c  **** *
  80:UART_Btldr.c  **** *******************************************************************************/
  81:UART_Btldr.c  **** void CyBtldrCommStart(void)
  82:UART_Btldr.c  **** {        
  28              		.loc 1 82 0
  29              		.cfi_startproc
  30              		@ args = 0, pretend = 0, frame = 0
  31              		@ frame_needed = 0, uses_anonymous_args = 0
  32 0000 10B5     		push	{r4, lr}
ARM GAS  C:\Users\npat025\AppData\Local\Temp\ccyw4Tcj.s 			page 3


  33              		.cfi_def_cfa_offset 8
  34              		.cfi_offset 4, -8
  35              		.cfi_offset 14, -4
  83:UART_Btldr.c  **** 	/* Start UART component and clear the TX,RX buffers */
  84:UART_Btldr.c  **** 	UART_Start();
  36              		.loc 1 84 0
  37 0002 FFF7FEFF 		bl	UART_Start
  38              	.LVL0:
  85:UART_Btldr.c  **** 	UART_SpiUartClearRxBuffer();
  86:UART_Btldr.c  **** 	UART_SpiUartClearTxBuffer();
  87:UART_Btldr.c  **** }
  39              		.loc 1 87 0
  40              		@ sp needed
  85:UART_Btldr.c  **** 	UART_SpiUartClearRxBuffer();
  41              		.loc 1 85 0
  42 0006 FFF7FEFF 		bl	UART_SpiUartClearRxBuffer
  43              	.LVL1:
  86:UART_Btldr.c  **** }
  44              		.loc 1 86 0
  45 000a FFF7FEFF 		bl	UART_SpiUartClearTxBuffer
  46              	.LVL2:
  47              		.loc 1 87 0
  48 000e 10BD     		pop	{r4, pc}
  49              		.cfi_endproc
  50              	.LFE32:
  51              		.size	CyBtldrCommStart, .-CyBtldrCommStart
  52              		.section	.text.CyBtldrCommStop,"ax",%progbits
  53              		.align	1
  54              		.global	CyBtldrCommStop
  55              		.code	16
  56              		.thumb_func
  57              		.type	CyBtldrCommStop, %function
  58              	CyBtldrCommStop:
  59              	.LFB33:
  88:UART_Btldr.c  **** 
  89:UART_Btldr.c  **** /*******************************************************************************
  90:UART_Btldr.c  **** * Function Name: CyBtldrCommStop
  91:UART_Btldr.c  **** ********************************************************************************
  92:UART_Btldr.c  **** *
  93:UART_Btldr.c  **** * Summary:
  94:UART_Btldr.c  **** *  Disable the component.
  95:UART_Btldr.c  **** *
  96:UART_Btldr.c  **** * Parameters:  
  97:UART_Btldr.c  **** *  void 
  98:UART_Btldr.c  **** *
  99:UART_Btldr.c  **** * Return: 
 100:UART_Btldr.c  **** *  void 
 101:UART_Btldr.c  **** *
 102:UART_Btldr.c  **** *******************************************************************************/
 103:UART_Btldr.c  **** void CyBtldrCommStop(void) 
 104:UART_Btldr.c  **** {
  60              		.loc 1 104 0
  61              		.cfi_startproc
  62              		@ args = 0, pretend = 0, frame = 0
  63              		@ frame_needed = 0, uses_anonymous_args = 0
  64 0000 10B5     		push	{r4, lr}
  65              		.cfi_def_cfa_offset 8
ARM GAS  C:\Users\npat025\AppData\Local\Temp\ccyw4Tcj.s 			page 4


  66              		.cfi_offset 4, -8
  67              		.cfi_offset 14, -4
 105:UART_Btldr.c  ****     /* Stop UART */
 106:UART_Btldr.c  ****     UART_Stop();
  68              		.loc 1 106 0
  69 0002 FFF7FEFF 		bl	UART_Stop
  70              	.LVL3:
 107:UART_Btldr.c  **** }
  71              		.loc 1 107 0
  72              		@ sp needed
  73 0006 10BD     		pop	{r4, pc}
  74              		.cfi_endproc
  75              	.LFE33:
  76              		.size	CyBtldrCommStop, .-CyBtldrCommStop
  77              		.section	.text.CyBtldrCommReset,"ax",%progbits
  78              		.align	1
  79              		.global	CyBtldrCommReset
  80              		.code	16
  81              		.thumb_func
  82              		.type	CyBtldrCommReset, %function
  83              	CyBtldrCommReset:
  84              	.LFB34:
 108:UART_Btldr.c  **** 
 109:UART_Btldr.c  **** /*******************************************************************************
 110:UART_Btldr.c  **** * Function Name: CyBtldrCommReset
 111:UART_Btldr.c  **** ********************************************************************************
 112:UART_Btldr.c  **** *
 113:UART_Btldr.c  **** * Summary:
 114:UART_Btldr.c  **** *  Resets the receive and transmit communication Buffers.
 115:UART_Btldr.c  **** *
 116:UART_Btldr.c  **** * Parameters:  
 117:UART_Btldr.c  **** *  void 
 118:UART_Btldr.c  **** *
 119:UART_Btldr.c  **** * Return: 
 120:UART_Btldr.c  **** *  void 
 121:UART_Btldr.c  **** *
 122:UART_Btldr.c  **** * Side Effects:
 123:UART_Btldr.c  **** *  
 124:UART_Btldr.c  **** *******************************************************************************/
 125:UART_Btldr.c  **** void CyBtldrCommReset(void)
 126:UART_Btldr.c  **** {
  85              		.loc 1 126 0
  86              		.cfi_startproc
  87              		@ args = 0, pretend = 0, frame = 0
  88              		@ frame_needed = 0, uses_anonymous_args = 0
  89 0000 10B5     		push	{r4, lr}
  90              		.cfi_def_cfa_offset 8
  91              		.cfi_offset 4, -8
  92              		.cfi_offset 14, -4
 127:UART_Btldr.c  ****     /* Clear RX and TX buffers */
 128:UART_Btldr.c  ****     UART_SpiUartClearRxBuffer();
  93              		.loc 1 128 0
  94 0002 FFF7FEFF 		bl	UART_SpiUartClearRxBuffer
  95              	.LVL4:
 129:UART_Btldr.c  ****     UART_SpiUartClearTxBuffer();
 130:UART_Btldr.c  **** }
  96              		.loc 1 130 0
ARM GAS  C:\Users\npat025\AppData\Local\Temp\ccyw4Tcj.s 			page 5


  97              		@ sp needed
 129:UART_Btldr.c  ****     UART_SpiUartClearTxBuffer();
  98              		.loc 1 129 0
  99 0006 FFF7FEFF 		bl	UART_SpiUartClearTxBuffer
 100              	.LVL5:
 101              		.loc 1 130 0
 102 000a 10BD     		pop	{r4, pc}
 103              		.cfi_endproc
 104              	.LFE34:
 105              		.size	CyBtldrCommReset, .-CyBtldrCommReset
 106              		.section	.text.CyBtldrCommWrite,"ax",%progbits
 107              		.align	1
 108              		.global	CyBtldrCommWrite
 109              		.code	16
 110              		.thumb_func
 111              		.type	CyBtldrCommWrite, %function
 112              	CyBtldrCommWrite:
 113              	.LFB35:
 131:UART_Btldr.c  **** 
 132:UART_Btldr.c  **** /*******************************************************************************
 133:UART_Btldr.c  **** * Function Name: CyBtldrCommWrite
 134:UART_Btldr.c  **** ********************************************************************************
 135:UART_Btldr.c  **** *
 136:UART_Btldr.c  **** * Summary:
 137:UART_Btldr.c  **** *  Allows the caller to write data to the bootloader host. This function uses 
 138:UART_Btldr.c  **** * a block write function for writing data using UART communication component. 
 139:UART_Btldr.c  **** *
 140:UART_Btldr.c  **** * Parameters:
 141:UART_Btldr.c  **** *  pData:    A pointer to the block of data to send to the device
 142:UART_Btldr.c  **** *  size:     The number of bytes to write.
 143:UART_Btldr.c  **** *  count:    Pointer to an unsigned short variable to write the number of
 144:UART_Btldr.c  **** *             bytes actually written.
 145:UART_Btldr.c  **** *  timeOut:  Number of units to wait before returning because of a timeout.
 146:UART_Btldr.c  **** *
 147:UART_Btldr.c  **** * Return: 
 148:UART_Btldr.c  **** *   cystatus: This function will return CYRET_SUCCESS if data is sent successfully.
 149:UART_Btldr.c  **** *
 150:UART_Btldr.c  **** * Side Effects:
 151:UART_Btldr.c  **** *  This function should be called after command was received .
 152:UART_Btldr.c  **** *
 153:UART_Btldr.c  **** *******************************************************************************/
 154:UART_Btldr.c  **** cystatus CyBtldrCommWrite(uint8 * pData, uint16 Size, uint16 * Count, uint8 TimeOut)
 155:UART_Btldr.c  **** {
 114              		.loc 1 155 0
 115              		.cfi_startproc
 116              		@ args = 0, pretend = 0, frame = 0
 117              		@ frame_needed = 0, uses_anonymous_args = 0
 118              	.LVL6:
 119 0000 70B5     		push	{r4, r5, r6, lr}
 120              		.cfi_def_cfa_offset 16
 121              		.cfi_offset 4, -16
 122              		.cfi_offset 5, -12
 123              		.cfi_offset 6, -8
 124              		.cfi_offset 14, -4
 125              		.loc 1 155 0
 126 0002 0D00     		movs	r5, r1
 127 0004 1600     		movs	r6, r2
ARM GAS  C:\Users\npat025\AppData\Local\Temp\ccyw4Tcj.s 			page 6


 156:UART_Btldr.c  ****     cystatus status = CYRET_EMPTY;
 157:UART_Btldr.c  **** 	
 158:UART_Btldr.c  ****     uint8 timeOutms = TimeOut; /* This timeout is not used in this function, defined to avoid compi
 159:UART_Btldr.c  **** 	timeOutms += 10;
 160:UART_Btldr.c  **** 	
 161:UART_Btldr.c  ****    	receivedDataCount=0;
 128              		.loc 1 161 0
 129 0006 0024     		movs	r4, #0
 130 0008 034B     		ldr	r3, .L5
 131              	.LVL7:
 162:UART_Btldr.c  ****     
 163:UART_Btldr.c  **** 	/* Write TX data using blocking function */
 164:UART_Btldr.c  **** 	UART_SpiUartPutArray(pData, (uint8)Size);
 132              		.loc 1 164 0
 133 000a C9B2     		uxtb	r1, r1
 134              	.LVL8:
 161:UART_Btldr.c  ****     
 135              		.loc 1 161 0
 136 000c 1C80     		strh	r4, [r3]
 165:UART_Btldr.c  **** 	
 166:UART_Btldr.c  **** 	/* Return success code */
 167:UART_Btldr.c  **** 	*Count = Size;
 168:UART_Btldr.c  **** 	status = CYRET_SUCCESS;
 169:UART_Btldr.c  **** 	
 170:UART_Btldr.c  ****     return status;
 171:UART_Btldr.c  **** }
 137              		.loc 1 171 0
 138              		@ sp needed
 164:UART_Btldr.c  **** 	
 139              		.loc 1 164 0
 140 000e FFF7FEFF 		bl	UART_SpiUartPutArray
 141              	.LVL9:
 167:UART_Btldr.c  **** 	status = CYRET_SUCCESS;
 142              		.loc 1 167 0
 143 0012 3580     		strh	r5, [r6]
 144              	.LVL10:
 145              		.loc 1 171 0
 146 0014 2000     		movs	r0, r4
 147              	.LVL11:
 148 0016 70BD     		pop	{r4, r5, r6, pc}
 149              	.L6:
 150              		.align	2
 151              	.L5:
 152 0018 00000000 		.word	.LANCHOR0
 153              		.cfi_endproc
 154              	.LFE35:
 155              		.size	CyBtldrCommWrite, .-CyBtldrCommWrite
 156              		.section	.text.CyBtldrCommRead,"ax",%progbits
 157              		.align	1
 158              		.global	CyBtldrCommRead
 159              		.code	16
 160              		.thumb_func
 161              		.type	CyBtldrCommRead, %function
 162              	CyBtldrCommRead:
 163              	.LFB36:
 172:UART_Btldr.c  **** 
 173:UART_Btldr.c  **** /*******************************************************************************
ARM GAS  C:\Users\npat025\AppData\Local\Temp\ccyw4Tcj.s 			page 7


 174:UART_Btldr.c  **** * Function Name: CyBtldrCommRead
 175:UART_Btldr.c  **** ********************************************************************************
 176:UART_Btldr.c  **** *
 177:UART_Btldr.c  **** * Summary:
 178:UART_Btldr.c  **** *  Receives the command. 
 179:UART_Btldr.c  **** *
 180:UART_Btldr.c  **** * Parameters:  
 181:UART_Btldr.c  **** *  pData:    A pointer to the area to store the block of data received
 182:UART_Btldr.c  **** *             from the device.
 183:UART_Btldr.c  **** *  size:     Maximum size of the read buffer
 184:UART_Btldr.c  **** *  count:    Pointer to an unsigned short variable to write the number
 185:UART_Btldr.c  **** *             of bytes actually read.
 186:UART_Btldr.c  **** *  timeOut:  Number of units to wait before returning because of a timeOut.
 187:UART_Btldr.c  **** *            Timeout is measured in 10s of ms.
 188:UART_Btldr.c  **** *
 189:UART_Btldr.c  **** * Return: 
 190:UART_Btldr.c  **** *  cystatus: This function will return CYRET_SUCCESS if at least one byte is received
 191:UART_Btldr.c  **** *			 successfully within the timeout interval. If no data is received this 
 192:UART_Btldr.c  **** *			 function will return CYRET_EMPTY.
 193:UART_Btldr.c  **** *
 194:UART_Btldr.c  **** * Theory: 
 195:UART_Btldr.c  **** *  'receivedDataCount' is updated with number of bytes received in the UART RX 
 196:UART_Btldr.c  **** *  interrupt routine. This variable is used to check whether some data is received 
 197:UART_Btldr.c  **** *  within the timeout period specified in *.cydwr. If data is received before the timeout, 
 198:UART_Btldr.c  **** *  the control will remain in another loop waiting for more data until no data is 
 199:UART_Btldr.c  **** *  received for a BYTE2BYTE_TIME_OUT(2 ms) interval.
 200:UART_Btldr.c  **** *
 201:UART_Btldr.c  **** *  Note: Increase the BYTE2BYTE_TIME_OUT to 10 ms for baud rates less than 9600.  
 202:UART_Btldr.c  **** * 
 203:UART_Btldr.c  **** *  BYTE2BYTE_TIME_OUT is used for detecting timeout marking end of block data from host. 
 204:UART_Btldr.c  **** *  This has to be set to a value which is greater than the expected maximum delay 
 205:UART_Btldr.c  **** *  between two bytes during a block/packet transmission from the host. 
 206:UART_Btldr.c  **** *  You have to account for the delay in hardware converters while calculating this value,
 207:UART_Btldr.c  **** *  if you are using any USB-UART bridges.   
 208:UART_Btldr.c  **** *******************************************************************************/
 209:UART_Btldr.c  **** cystatus CyBtldrCommRead(uint8 * pData, uint16 Size, uint16 * Count, uint8 TimeOut)
 210:UART_Btldr.c  **** {
 164              		.loc 1 210 0
 165              		.cfi_startproc
 166              		@ args = 0, pretend = 0, frame = 24
 167              		@ frame_needed = 0, uses_anonymous_args = 0
 168              	.LVL12:
 169 0000 F0B5     		push	{r4, r5, r6, r7, lr}
 170              		.cfi_def_cfa_offset 20
 171              		.cfi_offset 4, -20
 172              		.cfi_offset 5, -16
 173              		.cfi_offset 6, -12
 174              		.cfi_offset 7, -8
 175              		.cfi_offset 14, -4
 211:UART_Btldr.c  ****     uint16 cntr,dataIndexCntr;
 212:UART_Btldr.c  ****     uint16 tempCount,oldDataCount;
 213:UART_Btldr.c  **** 	
 214:UART_Btldr.c  ****     cystatus status = CYRET_EMPTY;
 215:UART_Btldr.c  **** 
 216:UART_Btldr.c  ****     /* Check whether data is received within the timeout period. 
 217:UART_Btldr.c  **** 	*  Timeout period is in units of 10ms.
 218:UART_Btldr.c  **** 	*  If at least one byte is received within the timeout interval, wait for more data */
ARM GAS  C:\Users\npat025\AppData\Local\Temp\ccyw4Tcj.s 			page 8


 219:UART_Btldr.c  **** 	for (cntr = 0; cntr < TimeOut*10; cntr++)
 176              		.loc 1 219 0
 177 0002 0A27     		movs	r7, #10
 210:UART_Btldr.c  ****     uint16 cntr,dataIndexCntr;
 178              		.loc 1 210 0
 179 0004 1600     		movs	r6, r2
 180              		.loc 1 219 0
 181 0006 0024     		movs	r4, #0
 182 0008 5F43     		muls	r7, r3
 210:UART_Btldr.c  ****     uint16 cntr,dataIndexCntr;
 183              		.loc 1 210 0
 184 000a 87B0     		sub	sp, sp, #28
 185              		.cfi_def_cfa_offset 48
 210:UART_Btldr.c  ****     uint16 cntr,dataIndexCntr;
 186              		.loc 1 210 0
 187 000c 0390     		str	r0, [sp, #12]
 188 000e 0591     		str	r1, [sp, #20]
 189              	.LVL13:
 190              	.L8:
 191 0010 2D4D     		ldr	r5, .L28
 192              		.loc 1 219 0 discriminator 1
 193 0012 BC42     		cmp	r4, r7
 194 0014 1ADA     		bge	.L26
 220:UART_Btldr.c  ****     {
 221:UART_Btldr.c  **** 	    receivedDataCount = UART_SpiUartGetRxBufferSize();
 195              		.loc 1 221 0
 196 0016 FFF7FEFF 		bl	UART_SpiUartGetRxBufferSize
 197              	.LVL14:
 198 001a 80B2     		uxth	r0, r0
 199 001c 2880     		strh	r0, [r5]
 222:UART_Btldr.c  **** 		
 223:UART_Btldr.c  **** 		/* If at least one byte is received within the timeout interval enter the next loop
 224:UART_Btldr.c  **** 		* waiting for more data reception */
 225:UART_Btldr.c  **** 		if(receivedDataCount!=0) 
 200              		.loc 1 225 0
 201 001e 2B88     		ldrh	r3, [r5]
 202 0020 002B     		cmp	r3, #0
 203 0022 0DD0     		beq	.L9
 204              	.LVL15:
 205              	.L22:
 226:UART_Btldr.c  **** 	   	{
 227:UART_Btldr.c  **** 			/* Wait for more data until 2 ms byte to byte time out interval receivedDataCount 
 228:UART_Btldr.c  **** 			* variable is updated in on each data reception. If no data is received during the 
 229:UART_Btldr.c  **** 			* last 2 ms (BYTE2BYTE_TIME_OUT) then it is considered as end of transmitted data 
 230:UART_Btldr.c  **** 			* block (packet) from the host and the program execution will break from the data 
 231:UART_Btldr.c  **** 			* awaiting loop with status=CYRET_SUCCESS */
 232:UART_Btldr.c  **** 			do{
 233:UART_Btldr.c  **** 			   	oldDataCount = receivedDataCount;
 234:UART_Btldr.c  **** 				CyDelay(BYTE2BYTE_TIME_OUT);
 206              		.loc 1 234 0 discriminator 1
 207 0024 0220     		movs	r0, #2
 233:UART_Btldr.c  **** 				CyDelay(BYTE2BYTE_TIME_OUT);
 208              		.loc 1 233 0 discriminator 1
 209 0026 2C88     		ldrh	r4, [r5]
 210              		.loc 1 234 0 discriminator 1
 211 0028 FFF7FEFF 		bl	CyDelay
 212              	.LVL16:
ARM GAS  C:\Users\npat025\AppData\Local\Temp\ccyw4Tcj.s 			page 9


 235:UART_Btldr.c  **** 				receivedDataCount = UART_SpiUartGetRxBufferSize();			    
 213              		.loc 1 235 0 discriminator 1
 214 002c FFF7FEFF 		bl	UART_SpiUartGetRxBufferSize
 215              	.LVL17:
 216 0030 80B2     		uxth	r0, r0
 217 0032 2880     		strh	r0, [r5]
 236:UART_Btldr.c  **** 			}while(receivedDataCount > oldDataCount);
 218              		.loc 1 236 0 discriminator 1
 219 0034 2B88     		ldrh	r3, [r5]
 233:UART_Btldr.c  **** 				CyDelay(BYTE2BYTE_TIME_OUT);
 220              		.loc 1 233 0 discriminator 1
 221 0036 A4B2     		uxth	r4, r4
 222              	.LVL18:
 223              		.loc 1 236 0 discriminator 1
 224 0038 9C42     		cmp	r4, r3
 225 003a F3D3     		bcc	.L22
 237:UART_Btldr.c  **** 			status = CYRET_SUCCESS;	
 226              		.loc 1 237 0
 227 003c 0027     		movs	r7, #0
 228 003e 06E0     		b	.L11
 229              	.LVL19:
 230              	.L9:
 238:UART_Btldr.c  **** 			break;
 239:UART_Btldr.c  **** 		}
 240:UART_Btldr.c  **** 		/* If no data is received, give a delay of 1ms and check again until the Timeout specified in .cy
 241:UART_Btldr.c  **** 		else 
 242:UART_Btldr.c  **** 		{
 243:UART_Btldr.c  **** 			CyDelay(1);
 231              		.loc 1 243 0 discriminator 2
 232 0040 0120     		movs	r0, #1
 219:UART_Btldr.c  ****     {
 233              		.loc 1 219 0 discriminator 2
 234 0042 0134     		adds	r4, r4, #1
 235              	.LVL20:
 236              		.loc 1 243 0 discriminator 2
 237 0044 FFF7FEFF 		bl	CyDelay
 238              	.LVL21:
 219:UART_Btldr.c  ****     {
 239              		.loc 1 219 0 discriminator 2
 240 0048 A4B2     		uxth	r4, r4
 241              	.LVL22:
 242 004a E1E7     		b	.L8
 243              	.L26:
 214:UART_Btldr.c  **** 
 244              		.loc 1 214 0
 245 004c 0527     		movs	r7, #5
 246              	.LVL23:
 247              	.L11:
 244:UART_Btldr.c  **** 		}
 245:UART_Btldr.c  ****     }
 246:UART_Btldr.c  **** 	
 247:UART_Btldr.c  **** 	/* Initialize the data read indexes and Count value*/
 248:UART_Btldr.c  **** 	*Count = 0;
 248              		.loc 1 248 0
 249 004e 0024     		movs	r4, #0
 250 0050 3480     		strh	r4, [r6]
 251              	.LVL24:
ARM GAS  C:\Users\npat025\AppData\Local\Temp\ccyw4Tcj.s 			page 10


 252              	.L13:
 249:UART_Btldr.c  **** 	dataIndexCntr = 0;
 250:UART_Btldr.c  **** 	
 251:UART_Btldr.c  **** 	/* If receivedDataCount>0 , move the received data to the pData buffer */
 252:UART_Btldr.c  **** 	while(receivedDataCount > 0)
 253              		.loc 1 252 0
 254 0052 2B88     		ldrh	r3, [r5]
 255 0054 002B     		cmp	r3, #0
 256 0056 33D0     		beq	.L18
 253:UART_Btldr.c  **** 	{
 254:UART_Btldr.c  **** 		tempCount=receivedDataCount;
 257              		.loc 1 254 0
 258 0058 2B88     		ldrh	r3, [r5]
 255:UART_Btldr.c  **** 		*Count  =(*Count ) + tempCount;
 259              		.loc 1 255 0
 260 005a 3288     		ldrh	r2, [r6]
 254:UART_Btldr.c  **** 		*Count  =(*Count ) + tempCount;
 261              		.loc 1 254 0
 262 005c 9BB2     		uxth	r3, r3
 263 005e 0193     		str	r3, [sp, #4]
 264              	.LVL25:
 256:UART_Btldr.c  **** 		
 257:UART_Btldr.c  **** 		/* Check if buffer overflow will occur before moving the data */
 258:UART_Btldr.c  **** 		if(*Count < Size)
 265              		.loc 1 258 0
 266 0060 0599     		ldr	r1, [sp, #20]
 255:UART_Btldr.c  **** 		
 267              		.loc 1 255 0
 268 0062 9B18     		adds	r3, r3, r2
 269 0064 9BB2     		uxth	r3, r3
 270 0066 3380     		strh	r3, [r6]
 271              		.loc 1 258 0
 272 0068 8B42     		cmp	r3, r1
 273 006a 22D2     		bcs	.L14
 274 006c 019B     		ldr	r3, [sp, #4]
 275 006e E318     		adds	r3, r4, r3
 276 0070 9BB2     		uxth	r3, r3
 277 0072 0293     		str	r3, [sp, #8]
 278              	.L15:
 279              	.LVL26:
 259:UART_Btldr.c  **** 		{
 260:UART_Btldr.c  **** 			for (cntr = 0;((cntr < tempCount) ); cntr++)
 280              		.loc 1 260 0 discriminator 1
 281 0074 029B     		ldr	r3, [sp, #8]
 282 0076 9C42     		cmp	r4, r3
 283 0078 09D0     		beq	.L27
 261:UART_Btldr.c  **** 			{
 262:UART_Btldr.c  **** 				/* Read the data and move it to the pData buffer */
 263:UART_Btldr.c  **** 				pData[dataIndexCntr++] = UART_SpiUartReadRxData();   
 284              		.loc 1 263 0 discriminator 3
 285 007a 631C     		adds	r3, r4, #1
 286 007c 9BB2     		uxth	r3, r3
 287 007e 0493     		str	r3, [sp, #16]
 288              	.LVL27:
 289 0080 039B     		ldr	r3, [sp, #12]
 290 0082 1C19     		adds	r4, r3, r4
 291 0084 FFF7FEFF 		bl	UART_SpiUartReadRxData
ARM GAS  C:\Users\npat025\AppData\Local\Temp\ccyw4Tcj.s 			page 11


 292              	.LVL28:
 293 0088 2070     		strb	r0, [r4]
 294              	.LVL29:
 295 008a 049C     		ldr	r4, [sp, #16]
 296 008c F2E7     		b	.L15
 297              	.LVL30:
 298              	.L27:
 264:UART_Btldr.c  **** 			}
 265:UART_Btldr.c  **** 			/* Disable the interrupts before updating the receivedDataCount and 
 266:UART_Btldr.c  **** 			*  re-enable the interrupts after updating */
 267:UART_Btldr.c  **** 			CyGlobalIntDisable;
 299              		.loc 1 267 0
 300              		.syntax divided
 301              	@ 267 "UART_Btldr.c" 1
 302 008e 72B6     		CPSID   i
 303              	@ 0 "" 2
 268:UART_Btldr.c  **** 			
 269:UART_Btldr.c  **** 			/* subtract the read data count from received data count */
 270:UART_Btldr.c  **** 			receivedDataCount=receivedDataCount-tempCount;
 304              		.loc 1 270 0
 305              		.thumb
 306              		.syntax unified
 307 0090 2B88     		ldrh	r3, [r5]
 308 0092 019A     		ldr	r2, [sp, #4]
 309 0094 9B1A     		subs	r3, r3, r2
 310 0096 9BB2     		uxth	r3, r3
 311 0098 2B80     		strh	r3, [r5]
 271:UART_Btldr.c  **** 			
 272:UART_Btldr.c  **** 			CyGlobalIntEnable;
 312              		.loc 1 272 0
 313              		.syntax divided
 314              	@ 272 "UART_Btldr.c" 1
 315 009a 62B6     		CPSIE   i
 316              	@ 0 "" 2
 273:UART_Btldr.c  **** 			
 274:UART_Btldr.c  **** 			/* Check if the last data received is End of packet(0x17) 
 275:UART_Btldr.c  **** 			*  If not wait for additional 5ms */
 276:UART_Btldr.c  **** 			if(pData[dataIndexCntr-1]!= END_OF_PACKET)
 317              		.loc 1 276 0
 318              		.thumb
 319              		.syntax unified
 320 009c 039B     		ldr	r3, [sp, #12]
 321 009e 029A     		ldr	r2, [sp, #8]
 322 00a0 9B18     		adds	r3, r3, r2
 323 00a2 013B     		subs	r3, r3, #1
 324 00a4 1B78     		ldrb	r3, [r3]
 325 00a6 172B     		cmp	r3, #23
 326 00a8 08D0     		beq	.L17
 277:UART_Btldr.c  **** 			    CyDelay(5);
 327              		.loc 1 277 0
 328 00aa 0520     		movs	r0, #5
 329 00ac FFF7FEFF 		bl	CyDelay
 330              	.LVL31:
 331 00b0 04E0     		b	.L17
 332              	.LVL32:
 333              	.L14:
 278:UART_Btldr.c  **** 	 	}	
ARM GAS  C:\Users\npat025\AppData\Local\Temp\ccyw4Tcj.s 			page 12


 279:UART_Btldr.c  **** 		
 280:UART_Btldr.c  **** 		/* If there is no space to move data, break from the loop */
 281:UART_Btldr.c  **** 		else
 282:UART_Btldr.c  **** 		{
 283:UART_Btldr.c  **** 			*Count=(*Count)-tempCount;
 334              		.loc 1 283 0
 335 00b2 3280     		strh	r2, [r6]
 284:UART_Btldr.c  **** 			UART_SpiUartClearRxBuffer();
 336              		.loc 1 284 0
 337 00b4 FFF7FEFF 		bl	UART_SpiUartClearRxBuffer
 338              	.LVL33:
 285:UART_Btldr.c  **** 			status = CYRET_EMPTY;
 339              		.loc 1 285 0
 340 00b8 0527     		movs	r7, #5
 286:UART_Btldr.c  **** 			break;
 341              		.loc 1 286 0
 342 00ba 01E0     		b	.L18
 343              	.LVL34:
 344              	.L17:
 263:UART_Btldr.c  **** 			}
 345              		.loc 1 263 0
 346 00bc 029C     		ldr	r4, [sp, #8]
 347 00be C8E7     		b	.L13
 348              	.LVL35:
 349              	.L18:
 287:UART_Btldr.c  **** 		}
 288:UART_Btldr.c  **** 	}
 289:UART_Btldr.c  **** 	return status;
 290:UART_Btldr.c  **** }
 350              		.loc 1 290 0
 351 00c0 3800     		movs	r0, r7
 352 00c2 07B0     		add	sp, sp, #28
 353              		@ sp needed
 354              	.LVL36:
 355              	.LVL37:
 356 00c4 F0BD     		pop	{r4, r5, r6, r7, pc}
 357              	.L29:
 358 00c6 C046     		.align	2
 359              	.L28:
 360 00c8 00000000 		.word	.LANCHOR0
 361              		.cfi_endproc
 362              	.LFE36:
 363              		.size	CyBtldrCommRead, .-CyBtldrCommRead
 364              		.global	receivedDataCount
 365              		.bss
 366              		.align	1
 367              		.set	.LANCHOR0,. + 0
 368              		.type	receivedDataCount, %object
 369              		.size	receivedDataCount, 2
 370              	receivedDataCount:
 371 0000 0000     		.space	2
 372              		.text
 373              	.Letext0:
 374              		.file 2 "Generated_Source\\PSoC4/cytypes.h"
 375              		.file 3 "Generated_Source\\PSoC4/UART.h"
 376              		.file 4 "Generated_Source\\PSoC4/UART_SPI_UART.h"
 377              		.file 5 "Generated_Source\\PSoC4/CyLib.h"
ARM GAS  C:\Users\npat025\AppData\Local\Temp\ccyw4Tcj.s 			page 13

