ARM GAS  C:\Users\ash750\AppData\Local\Temp\ccwbDard.s 			page 1


   1              		.syntax unified
   2              		.cpu cortex-m3
   3              		.fpu softvfp
   4              		.eabi_attribute 20, 1
   5              		.eabi_attribute 21, 1
   6              		.eabi_attribute 23, 3
   7              		.eabi_attribute 24, 1
   8              		.eabi_attribute 25, 1
   9              		.eabi_attribute 26, 1
  10              		.eabi_attribute 30, 6
  11              		.eabi_attribute 34, 1
  12              		.eabi_attribute 18, 4
  13              		.thumb
  14              		.syntax unified
  15              		.file	"main.c"
  16              		.text
  17              	.Ltext0:
  18              		.cfi_sections	.debug_frame
  19              		.global	ts
  20              		.bss
  21              		.type	ts, %object
  22              		.size	ts, 1
  23              	ts:
  24 0000 00       		.space	1
  25              		.global	ts_enc
  26 0001 00       		.align	1
  27              		.type	ts_enc, %object
  28              		.size	ts_enc, 2
  29              	ts_enc:
  30 0002 0000     		.space	2
  31              		.global	ts_update
  32              		.align	1
  33              		.type	ts_update, %object
  34              		.size	ts_update, 2
  35              	ts_update:
  36 0004 0000     		.space	2
  37              		.global	ts_speed
  38              		.align	1
  39              		.type	ts_speed, %object
  40              		.size	ts_speed, 2
  41              	ts_speed:
  42 0006 0000     		.space	2
  43              		.global	ts_display
  44              		.align	1
  45              		.type	ts_display, %object
  46              		.size	ts_display, 2
  47              	ts_display:
  48 0008 0000     		.space	2
  49              		.global	flag_ts_enc
  50              		.type	flag_ts_enc, %object
  51              		.size	flag_ts_enc, 1
  52              	flag_ts_enc:
  53 000a 00       		.space	1
  54              		.global	flag_ts_update
  55              		.type	flag_ts_update, %object
  56              		.size	flag_ts_update, 1
  57              	flag_ts_update:
ARM GAS  C:\Users\ash750\AppData\Local\Temp\ccwbDard.s 			page 2


  58 000b 00       		.space	1
  59              		.global	flag_ts_speed
  60              		.type	flag_ts_speed, %object
  61              		.size	flag_ts_speed, 1
  62              	flag_ts_speed:
  63 000c 00       		.space	1
  64              		.global	flag_ts_display
  65              		.type	flag_ts_display, %object
  66              		.size	flag_ts_display, 1
  67              	flag_ts_display:
  68 000d 00       		.space	1
  69              		.global	flag_rx
  70              		.type	flag_rx, %object
  71              		.size	flag_rx, 1
  72              	flag_rx:
  73 000e 00       		.space	1
  74              		.global	flag_packet
  75              		.type	flag_packet, %object
  76              		.size	flag_packet, 1
  77              	flag_packet:
  78 000f 00       		.space	1
  79              		.global	flag_KB_string
  80              		.type	flag_KB_string, %object
  81              		.size	flag_KB_string, 1
  82              	flag_KB_string:
  83 0010 00       		.space	1
  84              		.global	dataready_flag
  85              		.type	dataready_flag, %object
  86              		.size	dataready_flag, 1
  87              	dataready_flag:
  88 0011 00       		.space	1
  89              		.global	flag_rf_transmission_active
  90              		.data
  91              		.type	flag_rf_transmission_active, %object
  92              		.size	flag_rf_transmission_active, 1
  93              	flag_rf_transmission_active:
  94 0000 0A       		.byte	10
  95              		.global	displaystring
  96 0001 000000   		.align	2
  97              		.type	displaystring, %object
  98              		.size	displaystring, 64
  99              	displaystring:
 100 0004 43533330 		.ascii	"CS301 2024\012\000"
 100      31203230 
 100      32340A00 
 101 0010 00000000 		.space	52
 101      00000000 
 101      00000000 
 101      00000000 
 101      00000000 
 102              		.comm	line,64,4
 103              		.comm	entry,64,4
 104              		.comm	usbBuffer,64,4
 105              		.comm	system_state,32,4
 106              		.comm	result_of_conversion,2,2
 107              		.comm	buffer,64,4
 108              		.comm	bank1,50,4
ARM GAS  C:\Users\ash750\AppData\Local\Temp\ccwbDard.s 			page 3


 109              		.comm	tempBank,52,4
 110              		.global	sample_window
 111              		.align	2
 112              		.type	sample_window, %object
 113              		.size	sample_window, 4
 114              	sample_window:
 115 0044 64000000 		.word	100
 116              		.global	voltage_of_reading
 117              		.bss
 118 0012 0000     		.align	2
 119              		.type	voltage_of_reading, %object
 120              		.size	voltage_of_reading, 4
 121              	voltage_of_reading:
 122 0014 00000000 		.space	4
 123              		.global	sensor_sum
 124              		.align	2
 125              		.type	sensor_sum, %object
 126              		.size	sensor_sum, 50
 127              	sensor_sum:
 128 0018 00000000 		.space	50
 128      00000000 
 128      00000000 
 128      00000000 
 128      00000000 
 129              		.global	sensor_max
 130 004a 0000     		.align	2
 131              		.type	sensor_max, %object
 132              		.size	sensor_max, 50
 133              	sensor_max:
 134 004c 00000000 		.space	50
 134      00000000 
 134      00000000 
 134      00000000 
 134      00000000 
 135              		.global	sensor_min
 136 007e 0000     		.align	2
 137              		.type	sensor_min, %object
 138              		.size	sensor_min, 50
 139              	sensor_min:
 140 0080 00000000 		.space	50
 140      00000000 
 140      00000000 
 140      00000000 
 140      00000000 
 141              		.global	current_max
 142 00b2 0000     		.align	2
 143              		.type	current_max, %object
 144              		.size	current_max, 100
 145              	current_max:
 146 00b4 00000000 		.space	100
 146      00000000 
 146      00000000 
 146      00000000 
 146      00000000 
 147              		.global	current_min
 148              		.align	2
 149              		.type	current_min, %object
ARM GAS  C:\Users\ash750\AppData\Local\Temp\ccwbDard.s 			page 4


 150              		.size	current_min, 100
 151              	current_min:
 152 0118 00000000 		.space	100
 152      00000000 
 152      00000000 
 152      00000000 
 152      00000000 
 153              		.global	dc_offset
 154              		.align	2
 155              		.type	dc_offset, %object
 156              		.size	dc_offset, 100
 157              	dc_offset:
 158 017c 00000000 		.space	100
 158      00000000 
 158      00000000 
 158      00000000 
 158      00000000 
 159              		.global	vpp
 160              		.align	2
 161              		.type	vpp, %object
 162              		.size	vpp, 100
 163              	vpp:
 164 01e0 00000000 		.space	100
 164      00000000 
 164      00000000 
 164      00000000 
 164      00000000 
 165              		.global	sensor_sample_count
 166              		.align	2
 167              		.type	sensor_sample_count, %object
 168              		.size	sensor_sample_count, 50
 169              	sensor_sample_count:
 170 0244 00000000 		.space	50
 170      00000000 
 170      00000000 
 170      00000000 
 170      00000000 
 171              		.section	.text.main,"ax",%progbits
 172              		.align	2
 173              		.global	main
 174              		.thumb
 175              		.thumb_func
 176              		.type	main, %function
 177              	main:
 178              	.LFB64:
 179              		.file 1 "main.c"
   1:main.c        **** /* ========================================
   2:main.c        ****  * Fully working code: 
   3:main.c        ****  * PWM      : 
   4:main.c        ****  * Encoder  : 
   5:main.c        ****  * ADC      :
   6:main.c        ****  * USB      : port displays speed and position.
   7:main.c        ****  * CMD: "PW xx"
   8:main.c        ****  * Copyright Univ of Auckland, 2016
   9:main.c        ****  * All Rights Reserved
  10:main.c        ****  * UNPUBLISHED, LICENSED SOFTWARE.
  11:main.c        ****  *
ARM GAS  C:\Users\ash750\AppData\Local\Temp\ccwbDard.s 			page 5


  12:main.c        ****  * CONFIDENTIAL AND PROPRIETARY INFORMATION
  13:main.c        ****  * WHICH IS THE PROPERTY OF Univ of Auckland.
  14:main.c        ****  *
  15:main.c        ****  * ========================================
  16:main.c        **** */
  17:main.c        **** #include <stdio.h>
  18:main.c        **** #include <string.h>
  19:main.c        **** #include <stdlib.h>
  20:main.c        **** #include <project.h>
  21:main.c        **** //* ========================================
  22:main.c        **** #include "defines.h"
  23:main.c        **** #include "vars.h"
  24:main.c        **** //* ========================================
  25:main.c        **** void usbPutString(char *s);
  26:main.c        **** void usbPutChar(char c);
  27:main.c        **** void usbPutBin(uint16_t *buffer, uint16_t count); 
  28:main.c        **** void handle_usb();
  29:main.c        **** //* ========================================
  30:main.c        **** 
  31:main.c        **** //some global vars
  32:main.c        **** int16_t result_of_conversion; 
  33:main.c        **** char buffer[64];
  34:main.c        **** uint16_t bank1[25]; 
  35:main.c        **** uint16_t tempBank[26];
  36:main.c        **** void init_dma_1_CHAINED();
  37:main.c        **** int sample_window = 100; 
  38:main.c        **** float voltage_of_reading = 0.0; 
  39:main.c        **** int16_t sensor_sum[25] = {0}; 
  40:main.c        **** int16_t sensor_max[25] = {0};
  41:main.c        **** int16_t sensor_min[25] = {0};
  42:main.c        **** float current_max[25] = {0.0}; 
  43:main.c        **** float current_min[25] = {0.0};
  44:main.c        **** float dc_offset[25] = {0.0};
  45:main.c        **** float vpp[25] = {0.0}; 
  46:main.c        **** int16_t sensor_sample_count[25] = {0}; 
  47:main.c        **** 
  48:main.c        **** int main()
  49:main.c        **** {
 180              		.loc 1 49 0
 181              		.cfi_startproc
 182              		@ args = 0, pretend = 0, frame = 0
 183              		@ frame_needed = 1, uses_anonymous_args = 0
 184 0000 F8B5     		push	{r3, r4, r5, r6, r7, lr}
 185              		.cfi_def_cfa_offset 24
 186              		.cfi_offset 3, -24
 187              		.cfi_offset 4, -20
 188              		.cfi_offset 5, -16
 189              		.cfi_offset 6, -12
 190              		.cfi_offset 7, -8
 191              		.cfi_offset 14, -4
 192 0002 00AF     		add	r7, sp, #0
 193              		.cfi_def_cfa_register 7
  50:main.c        ****     
  51:main.c        **** // --------------------------------    
  52:main.c        **** // ----- INITIALIZATIONS ----------
  53:main.c        ****     CYGlobalIntEnable;
 194              		.loc 1 53 0
ARM GAS  C:\Users\ash750\AppData\Local\Temp\ccwbDard.s 			page 6


 195              		.syntax unified
 196              	@ 53 "main.c" 1
 197 0004 62B6     		CPSIE   i
 198              	@ 0 "" 2
  54:main.c        ****     #ifdef USE_DMA_CHAINED
  55:main.c        ****     init_dma_1_CHAINED();    
 199              		.loc 1 55 0
 200              		.thumb
 201              		.syntax unified
 202 0006 FFF7FEFF 		bl	init_dma_1_CHAINED
  56:main.c        ****     #endif
  57:main.c        ****     
  58:main.c        ****     ADC_Start();
 203              		.loc 1 58 0
 204 000a FFF7FEFF 		bl	ADC_Start
  59:main.c        ****     // ADC_SAR_StartConvert(); 
  60:main.c        ****     CyDelay(1);
 205              		.loc 1 60 0
 206 000e 0120     		movs	r0, #1
 207 0010 FFF7FEFF 		bl	CyDelay
  61:main.c        ****     
  62:main.c        ****     Timer_1_WritePeriod(100);
 208              		.loc 1 62 0
 209 0014 6420     		movs	r0, #100
 210 0016 FFF7FEFF 		bl	Timer_1_WritePeriod
  63:main.c        ****     Timer_1_Start();
 211              		.loc 1 63 0
 212 001a FFF7FEFF 		bl	Timer_1_Start
  64:main.c        ****    
  65:main.c        ****     
  66:main.c        **** 
  67:main.c        **** // ------USB SETUP ----------------    
  68:main.c        **** #ifdef USE_USB    
  69:main.c        ****     USBUART_Start(0,USBUART_5V_OPERATION);
 213              		.loc 1 69 0
 214 001e 0121     		movs	r1, #1
 215 0020 0020     		movs	r0, #0
 216 0022 FFF7FEFF 		bl	USBUART_Start
 217              	.L4:
  70:main.c        **** #endif        
  71:main.c        ****     for(;;)
  72:main.c        ****     {
  73:main.c        ****         /* Place your application code here. */
  74:main.c        ****         handle_usb();
 218              		.loc 1 74 0
 219 0026 FFF7FEFF 		bl	handle_usb
  75:main.c        ****         if (flag_KB_string == 1)
 220              		.loc 1 75 0
 221 002a 154B     		ldr	r3, .L5
 222 002c 1B78     		ldrb	r3, [r3]	@ zero_extendqisi2
 223 002e 012B     		cmp	r3, #1
 224 0030 05D1     		bne	.L2
  76:main.c        ****         {
  77:main.c        ****             usbPutString(line);
 225              		.loc 1 77 0
 226 0032 1448     		ldr	r0, .L5+4
 227 0034 FFF7FEFF 		bl	usbPutString
ARM GAS  C:\Users\ash750\AppData\Local\Temp\ccwbDard.s 			page 7


  78:main.c        ****             flag_KB_string = 0;
 228              		.loc 1 78 0
 229 0038 114B     		ldr	r3, .L5
 230 003a 0022     		movs	r2, #0
 231 003c 1A70     		strb	r2, [r3]
 232              	.L2:
  79:main.c        ****         }  
  80:main.c        ****         
  81:main.c        ****         
  82:main.c        **** //        for(int ch = 0; ch < 25; ch++){
  83:main.c        **** //        result_of_conversion = ADC_SAR_GetResult16();
  84:main.c        **** //        //sprintf(buffer, "%d \r\n",result_of_conversion); 
  85:main.c        **** //        
  86:main.c        **** //        //convert the adc value into a voltage
  87:main.c        **** //        voltage_of_reading = (result_of_conversion * 5 /4096);
  88:main.c        **** //        //sprintf(buffer, "%d.%d%d \r\n", (int16_t)voltage_of_reading/1000, (int16_t)voltage_of_r
  89:main.c        **** //        sensor_sum[ch] += voltage_of_reading;
  90:main.c        **** //        voltage_of_reading = 0.0;
  91:main.c        **** //        
  92:main.c        **** //        //check the max and min values and update 
  93:main.c        **** //        if(voltage_of_reading > current_max[ch]){
  94:main.c        **** //            current_max[ch] = voltage_of_reading;
  95:main.c        **** //        
  96:main.c        **** //        }
  97:main.c        **** //        
  98:main.c        **** //        if(voltage_of_reading < current_min[ch]){
  99:main.c        **** //            current_min[ch] = voltage_of_reading; 
 100:main.c        **** //        }
 101:main.c        **** //        
 102:main.c        **** //        sensor_sample_count[ch]++; 
 103:main.c        **** //        
 104:main.c        **** //        if(sensor_sample_count[ch] >= sample_window){
 105:main.c        **** //        
 106:main.c        **** //            //calc the final values   
 107:main.c        **** //            dc_offset[ch] = sensor_sum[ch]/sample_window; 
 108:main.c        **** //            vpp[ch] = current_max[ch] - current_min[ch];
 109:main.c        **** //            
 110:main.c        **** //            sprintf(buffer, "Channel %d: DC: %d.%d%d VPP: %d.%d%d \r\n", ch, (int16_t)dc_offset[c
 111:main.c        **** //            
 112:main.c        **** //                  
 113:main.c        **** //            usbPutString(buffer);
 114:main.c        **** //            //reset the vars
 115:main.c        **** //            sensor_sum[ch] = 0; 
 116:main.c        **** //            current_max[ch] = 0; 
 117:main.c        **** //            current_min[ch] = 0;
 118:main.c        **** //            sensor_sample_count[ch] = 0; 
 119:main.c        **** //        
 120:main.c        **** //        }
 121:main.c        **** //        
 122:main.c        **** //        }
 123:main.c        ****         
 124:main.c        ****         //have a flag/special character as an acknowledgement of the whole packet 
 125:main.c        ****         
 126:main.c        ****         tempBank[0] = 0xFFFF; 
 233              		.loc 1 126 0
 234 003e 124B     		ldr	r3, .L5+8
 235 0040 4FF6FF72 		movw	r2, #65535
ARM GAS  C:\Users\ash750\AppData\Local\Temp\ccwbDard.s 			page 8


 236 0044 1A80     		strh	r2, [r3]	@ movhi
 127:main.c        ****      
 128:main.c        ****         //make a copy of the DMA data 
 129:main.c        ****         memcpy(&tempBank[1], bank1, 50);
 237              		.loc 1 129 0
 238 0046 104A     		ldr	r2, .L5+8
 239 0048 104B     		ldr	r3, .L5+12
 240 004a 901C     		adds	r0, r2, #2
 241 004c 03F13004 		add	r4, r3, #48
 242              	.L3:
 243 0050 0246     		mov	r2, r0
 244 0052 1946     		mov	r1, r3
 245 0054 D1F800E0 		ldr	lr, [r1]	@ unaligned
 246 0058 4E68     		ldr	r6, [r1, #4]	@ unaligned
 247 005a 8D68     		ldr	r5, [r1, #8]	@ unaligned
 248 005c C968     		ldr	r1, [r1, #12]	@ unaligned
 249 005e C2F800E0 		str	lr, [r2]	@ unaligned
 250 0062 5660     		str	r6, [r2, #4]	@ unaligned
 251 0064 9560     		str	r5, [r2, #8]	@ unaligned
 252 0066 D160     		str	r1, [r2, #12]	@ unaligned
 253 0068 1033     		adds	r3, r3, #16
 254 006a 1030     		adds	r0, r0, #16
 255 006c A342     		cmp	r3, r4
 256 006e EFD1     		bne	.L3
 257 0070 0246     		mov	r2, r0
 258 0072 1B88     		ldrh	r3, [r3]	@ unaligned
 259 0074 1380     		strh	r3, [r2]	@ unaligned
 130:main.c        ****         
 131:main.c        ****         //send the entire array as raw binary, so with 26 elements thats about 52 bytes since 2 byt
 132:main.c        ****         usbPutBin(tempBank, PACKET_ELEMENTS); 
 260              		.loc 1 132 0
 261 0076 1A21     		movs	r1, #26
 262 0078 0348     		ldr	r0, .L5+8
 263 007a FFF7FEFF 		bl	usbPutBin
 133:main.c        ****     }   
 264              		.loc 1 133 0
 265 007e D2E7     		b	.L4
 266              	.L6:
 267              		.align	2
 268              	.L5:
 269 0080 00000000 		.word	flag_KB_string
 270 0084 00000000 		.word	line
 271 0088 00000000 		.word	tempBank
 272 008c 00000000 		.word	bank1
 273              		.cfi_endproc
 274              	.LFE64:
 275              		.size	main, .-main
 276              		.section	.text.usbPutString,"ax",%progbits
 277              		.align	2
 278              		.global	usbPutString
 279              		.thumb
 280              		.thumb_func
 281              		.type	usbPutString, %function
 282              	usbPutString:
 283              	.LFB65:
 134:main.c        ****     CyDelay(100);
 135:main.c        **** }
ARM GAS  C:\Users\ash750\AppData\Local\Temp\ccwbDard.s 			page 9


 136:main.c        **** //* ========================================
 137:main.c        **** void usbPutString(char *s)
 138:main.c        **** {
 284              		.loc 1 138 0
 285              		.cfi_startproc
 286              		@ args = 0, pretend = 0, frame = 8
 287              		@ frame_needed = 1, uses_anonymous_args = 0
 288 0000 80B5     		push	{r7, lr}
 289              		.cfi_def_cfa_offset 8
 290              		.cfi_offset 7, -8
 291              		.cfi_offset 14, -4
 292 0002 82B0     		sub	sp, sp, #8
 293              		.cfi_def_cfa_offset 16
 294 0004 00AF     		add	r7, sp, #0
 295              		.cfi_def_cfa_register 7
 296 0006 7860     		str	r0, [r7, #4]
 139:main.c        **** // !! Assumes that *s is a string with allocated space >=64 chars     
 140:main.c        **** //  Since USB implementation retricts data packets to 64 chars, this function truncates the
 141:main.c        **** //  length to 62 char (63rd char is a '!')
 142:main.c        **** 
 143:main.c        **** #ifdef USE_USB     
 144:main.c        ****     while (USBUART_CDCIsReady() == 0);
 297              		.loc 1 144 0
 298 0008 00BF     		nop
 299              	.L8:
 300              		.loc 1 144 0 is_stmt 0 discriminator 1
 301 000a FFF7FEFF 		bl	USBUART_CDCIsReady
 302 000e 0346     		mov	r3, r0
 303 0010 002B     		cmp	r3, #0
 304 0012 FAD0     		beq	.L8
 145:main.c        ****     s[63]='\0';
 305              		.loc 1 145 0 is_stmt 1
 306 0014 7B68     		ldr	r3, [r7, #4]
 307 0016 3F33     		adds	r3, r3, #63
 308 0018 0022     		movs	r2, #0
 309 001a 1A70     		strb	r2, [r3]
 146:main.c        ****     s[62]='!';
 310              		.loc 1 146 0
 311 001c 7B68     		ldr	r3, [r7, #4]
 312 001e 3E33     		adds	r3, r3, #62
 313 0020 2122     		movs	r2, #33
 314 0022 1A70     		strb	r2, [r3]
 147:main.c        ****     USBUART_PutData((uint8*)s,strlen(s));
 315              		.loc 1 147 0
 316 0024 7868     		ldr	r0, [r7, #4]
 317 0026 FFF7FEFF 		bl	strlen
 318 002a 0346     		mov	r3, r0
 319 002c 9BB2     		uxth	r3, r3
 320 002e 1946     		mov	r1, r3
 321 0030 7868     		ldr	r0, [r7, #4]
 322 0032 FFF7FEFF 		bl	USBUART_PutData
 148:main.c        **** #endif
 149:main.c        **** }
 323              		.loc 1 149 0
 324 0036 00BF     		nop
 325 0038 0837     		adds	r7, r7, #8
 326              		.cfi_def_cfa_offset 8
ARM GAS  C:\Users\ash750\AppData\Local\Temp\ccwbDard.s 			page 10


 327 003a BD46     		mov	sp, r7
 328              		.cfi_def_cfa_register 13
 329              		@ sp needed
 330 003c 80BD     		pop	{r7, pc}
 331              		.cfi_endproc
 332              	.LFE65:
 333              		.size	usbPutString, .-usbPutString
 334 003e 00BF     		.section	.text.usbPutChar,"ax",%progbits
 335              		.align	2
 336              		.global	usbPutChar
 337              		.thumb
 338              		.thumb_func
 339              		.type	usbPutChar, %function
 340              	usbPutChar:
 341              	.LFB66:
 150:main.c        **** //* ========================================
 151:main.c        **** void usbPutChar(char c)
 152:main.c        **** {
 342              		.loc 1 152 0
 343              		.cfi_startproc
 344              		@ args = 0, pretend = 0, frame = 8
 345              		@ frame_needed = 1, uses_anonymous_args = 0
 346 0000 80B5     		push	{r7, lr}
 347              		.cfi_def_cfa_offset 8
 348              		.cfi_offset 7, -8
 349              		.cfi_offset 14, -4
 350 0002 82B0     		sub	sp, sp, #8
 351              		.cfi_def_cfa_offset 16
 352 0004 00AF     		add	r7, sp, #0
 353              		.cfi_def_cfa_register 7
 354 0006 0346     		mov	r3, r0
 355 0008 FB71     		strb	r3, [r7, #7]
 153:main.c        **** #ifdef USE_USB     
 154:main.c        ****     while (USBUART_CDCIsReady() == 0);
 356              		.loc 1 154 0
 357 000a 00BF     		nop
 358              	.L10:
 359              		.loc 1 154 0 is_stmt 0 discriminator 1
 360 000c FFF7FEFF 		bl	USBUART_CDCIsReady
 361 0010 0346     		mov	r3, r0
 362 0012 002B     		cmp	r3, #0
 363 0014 FAD0     		beq	.L10
 155:main.c        ****     USBUART_PutChar(c);
 364              		.loc 1 155 0 is_stmt 1
 365 0016 FB79     		ldrb	r3, [r7, #7]	@ zero_extendqisi2
 366 0018 1846     		mov	r0, r3
 367 001a FFF7FEFF 		bl	USBUART_PutChar
 156:main.c        **** #endif    
 157:main.c        **** }
 368              		.loc 1 157 0
 369 001e 00BF     		nop
 370 0020 0837     		adds	r7, r7, #8
 371              		.cfi_def_cfa_offset 8
 372 0022 BD46     		mov	sp, r7
 373              		.cfi_def_cfa_register 13
 374              		@ sp needed
 375 0024 80BD     		pop	{r7, pc}
ARM GAS  C:\Users\ash750\AppData\Local\Temp\ccwbDard.s 			page 11


 376              		.cfi_endproc
 377              	.LFE66:
 378              		.size	usbPutChar, .-usbPutChar
 379 0026 00BF     		.section	.text.usbPutBin,"ax",%progbits
 380              		.align	2
 381              		.global	usbPutBin
 382              		.thumb
 383              		.thumb_func
 384              		.type	usbPutBin, %function
 385              	usbPutBin:
 386              	.LFB67:
 158:main.c        **** 
 159:main.c        **** //* ========================================
 160:main.c        **** 
 161:main.c        **** void usbPutBin(uint16_t *buffer, uint16_t count)
 162:main.c        **** {
 387              		.loc 1 162 0
 388              		.cfi_startproc
 389              		@ args = 0, pretend = 0, frame = 16
 390              		@ frame_needed = 1, uses_anonymous_args = 0
 391 0000 80B5     		push	{r7, lr}
 392              		.cfi_def_cfa_offset 8
 393              		.cfi_offset 7, -8
 394              		.cfi_offset 14, -4
 395 0002 84B0     		sub	sp, sp, #16
 396              		.cfi_def_cfa_offset 24
 397 0004 00AF     		add	r7, sp, #0
 398              		.cfi_def_cfa_register 7
 399 0006 7860     		str	r0, [r7, #4]
 400 0008 0B46     		mov	r3, r1
 401 000a 7B80     		strh	r3, [r7, #2]	@ movhi
 163:main.c        ****     uint16_t totalBytes = count *2; 
 402              		.loc 1 163 0
 403 000c 7B88     		ldrh	r3, [r7, #2]	@ movhi
 404 000e 5B00     		lsls	r3, r3, #1
 405 0010 FB81     		strh	r3, [r7, #14]	@ movhi
 164:main.c        ****     
 165:main.c        ****     #ifdef USE_USB
 166:main.c        ****         //wait until usb ready then send 
 167:main.c        ****         while (USBUART_CDCIsReady() == 0);
 406              		.loc 1 167 0
 407 0012 00BF     		nop
 408              	.L12:
 409              		.loc 1 167 0 is_stmt 0 discriminator 1
 410 0014 FFF7FEFF 		bl	USBUART_CDCIsReady
 411 0018 0346     		mov	r3, r0
 412 001a 002B     		cmp	r3, #0
 413 001c FAD0     		beq	.L12
 168:main.c        ****         USBUART_PutData((uint8*)buffer, totalBytes);
 414              		.loc 1 168 0 is_stmt 1
 415 001e FB89     		ldrh	r3, [r7, #14]
 416 0020 1946     		mov	r1, r3
 417 0022 7868     		ldr	r0, [r7, #4]
 418 0024 FFF7FEFF 		bl	USBUART_PutData
 169:main.c        **** #endif
 170:main.c        ****     
 171:main.c        **** }
ARM GAS  C:\Users\ash750\AppData\Local\Temp\ccwbDard.s 			page 12


 419              		.loc 1 171 0
 420 0028 00BF     		nop
 421 002a 1037     		adds	r7, r7, #16
 422              		.cfi_def_cfa_offset 8
 423 002c BD46     		mov	sp, r7
 424              		.cfi_def_cfa_register 13
 425              		@ sp needed
 426 002e 80BD     		pop	{r7, pc}
 427              		.cfi_endproc
 428              	.LFE67:
 429              		.size	usbPutBin, .-usbPutBin
 430              		.section	.text.handle_usb,"ax",%progbits
 431              		.align	2
 432              		.global	handle_usb
 433              		.thumb
 434              		.thumb_func
 435              		.type	handle_usb, %function
 436              	handle_usb:
 437              	.LFB68:
 172:main.c        **** 
 173:main.c        **** 
 174:main.c        **** //* ========================================
 175:main.c        **** void handle_usb()
 176:main.c        **** {
 438              		.loc 1 176 0
 439              		.cfi_startproc
 440              		@ args = 0, pretend = 0, frame = 8
 441              		@ frame_needed = 1, uses_anonymous_args = 0
 442 0000 80B5     		push	{r7, lr}
 443              		.cfi_def_cfa_offset 8
 444              		.cfi_offset 7, -8
 445              		.cfi_offset 14, -4
 446 0002 82B0     		sub	sp, sp, #8
 447              		.cfi_def_cfa_offset 16
 448 0004 00AF     		add	r7, sp, #0
 449              		.cfi_def_cfa_register 7
 177:main.c        ****     // handles input at terminal, echos it back to the terminal
 178:main.c        ****     // turn echo OFF, key emulation: only CR
 179:main.c        ****     // entered string is made available in 'line' and 'flag_KB_string' is set
 180:main.c        ****     
 181:main.c        ****     static uint8 usbStarted = FALSE;
 182:main.c        ****     static uint16 usbBufCount = 0;
 183:main.c        ****     uint8 c; 
 184:main.c        ****     
 185:main.c        **** 
 186:main.c        ****     if (!usbStarted)
 450              		.loc 1 186 0
 451 0006 2B4B     		ldr	r3, .L23
 452 0008 1B78     		ldrb	r3, [r3]	@ zero_extendqisi2
 453 000a 002B     		cmp	r3, #0
 454 000c 0AD1     		bne	.L14
 187:main.c        ****     {
 188:main.c        ****         if (USBUART_GetConfiguration())
 455              		.loc 1 188 0
 456 000e FFF7FEFF 		bl	USBUART_GetConfiguration
 457 0012 0346     		mov	r3, r0
 458 0014 002B     		cmp	r3, #0
ARM GAS  C:\Users\ash750\AppData\Local\Temp\ccwbDard.s 			page 13


 459 0016 49D0     		beq	.L22
 189:main.c        ****         {
 190:main.c        ****             USBUART_CDC_Init();
 460              		.loc 1 190 0
 461 0018 FFF7FEFF 		bl	USBUART_CDC_Init
 191:main.c        ****             usbStarted = TRUE;
 462              		.loc 1 191 0
 463 001c 254B     		ldr	r3, .L23
 464 001e 0122     		movs	r2, #1
 465 0020 1A70     		strb	r2, [r3]
 192:main.c        ****         }
 193:main.c        ****     }
 194:main.c        ****     else
 195:main.c        ****     {
 196:main.c        ****         if (USBUART_DataIsReady() != 0)
 197:main.c        ****         {  
 198:main.c        ****             c = USBUART_GetChar();
 199:main.c        **** 
 200:main.c        ****             if ((c == 13) || (c == 10))
 201:main.c        ****             {
 202:main.c        **** //                if (usbBufCount > 0)
 203:main.c        ****                 {
 204:main.c        ****                     entry[usbBufCount]= '\0';
 205:main.c        ****                     strcpy(line,entry);
 206:main.c        ****                     usbBufCount = 0;
 207:main.c        ****                     flag_KB_string = 1;
 208:main.c        ****                 }
 209:main.c        ****             }
 210:main.c        ****             else 
 211:main.c        ****             {
 212:main.c        ****                 if (((c == CHAR_BACKSP) || (c == CHAR_DEL) ) && (usbBufCount > 0) )
 213:main.c        ****                     usbBufCount--;
 214:main.c        ****                 else
 215:main.c        ****                 {
 216:main.c        ****                     if (usbBufCount > (BUF_SIZE-2) ) // one less else strtok triggers a crash
 217:main.c        ****                     {
 218:main.c        ****                        USBUART_PutChar('!');        
 219:main.c        ****                     }
 220:main.c        ****                     else
 221:main.c        ****                         entry[usbBufCount++] = c;  
 222:main.c        ****                 }  
 223:main.c        ****             }
 224:main.c        ****         }
 225:main.c        ****     }    
 226:main.c        **** }
 466              		.loc 1 226 0
 467 0022 43E0     		b	.L22
 468              	.L14:
 196:main.c        ****         {  
 469              		.loc 1 196 0
 470 0024 FFF7FEFF 		bl	USBUART_DataIsReady
 471 0028 0346     		mov	r3, r0
 472 002a 002B     		cmp	r3, #0
 473 002c 3ED0     		beq	.L22
 198:main.c        **** 
 474              		.loc 1 198 0
 475 002e FFF7FEFF 		bl	USBUART_GetChar
ARM GAS  C:\Users\ash750\AppData\Local\Temp\ccwbDard.s 			page 14


 476 0032 0346     		mov	r3, r0
 477 0034 FB71     		strb	r3, [r7, #7]
 200:main.c        ****             {
 478              		.loc 1 200 0
 479 0036 FB79     		ldrb	r3, [r7, #7]	@ zero_extendqisi2
 480 0038 0D2B     		cmp	r3, #13
 481 003a 02D0     		beq	.L17
 200:main.c        ****             {
 482              		.loc 1 200 0 is_stmt 0 discriminator 1
 483 003c FB79     		ldrb	r3, [r7, #7]	@ zero_extendqisi2
 484 003e 0A2B     		cmp	r3, #10
 485 0040 10D1     		bne	.L18
 486              	.L17:
 204:main.c        ****                     strcpy(line,entry);
 487              		.loc 1 204 0 is_stmt 1
 488 0042 1D4B     		ldr	r3, .L23+4
 489 0044 1B88     		ldrh	r3, [r3]
 490 0046 1A46     		mov	r2, r3
 491 0048 1C4B     		ldr	r3, .L23+8
 492 004a 0021     		movs	r1, #0
 493 004c 9954     		strb	r1, [r3, r2]
 205:main.c        ****                     usbBufCount = 0;
 494              		.loc 1 205 0
 495 004e 1B49     		ldr	r1, .L23+8
 496 0050 1B48     		ldr	r0, .L23+12
 497 0052 FFF7FEFF 		bl	strcpy
 206:main.c        ****                     flag_KB_string = 1;
 498              		.loc 1 206 0
 499 0056 184B     		ldr	r3, .L23+4
 500 0058 0022     		movs	r2, #0
 501 005a 1A80     		strh	r2, [r3]	@ movhi
 207:main.c        ****                 }
 502              		.loc 1 207 0
 503 005c 194B     		ldr	r3, .L23+16
 504 005e 0122     		movs	r2, #1
 505 0060 1A70     		strb	r2, [r3]
 506 0062 23E0     		b	.L16
 507              	.L18:
 212:main.c        ****                     usbBufCount--;
 508              		.loc 1 212 0
 509 0064 FB79     		ldrb	r3, [r7, #7]	@ zero_extendqisi2
 510 0066 082B     		cmp	r3, #8
 511 0068 02D0     		beq	.L19
 212:main.c        ****                     usbBufCount--;
 512              		.loc 1 212 0 is_stmt 0 discriminator 2
 513 006a FB79     		ldrb	r3, [r7, #7]	@ zero_extendqisi2
 514 006c 7F2B     		cmp	r3, #127
 515 006e 0AD1     		bne	.L20
 516              	.L19:
 212:main.c        ****                     usbBufCount--;
 517              		.loc 1 212 0 discriminator 3
 518 0070 114B     		ldr	r3, .L23+4
 519 0072 1B88     		ldrh	r3, [r3]
 520 0074 002B     		cmp	r3, #0
 521 0076 06D0     		beq	.L20
 213:main.c        ****                 else
 522              		.loc 1 213 0 is_stmt 1
ARM GAS  C:\Users\ash750\AppData\Local\Temp\ccwbDard.s 			page 15


 523 0078 0F4B     		ldr	r3, .L23+4
 524 007a 1B88     		ldrh	r3, [r3]
 525 007c 013B     		subs	r3, r3, #1
 526 007e 9AB2     		uxth	r2, r3
 527 0080 0D4B     		ldr	r3, .L23+4
 528 0082 1A80     		strh	r2, [r3]	@ movhi
 529 0084 12E0     		b	.L16
 530              	.L20:
 216:main.c        ****                     {
 531              		.loc 1 216 0
 532 0086 0C4B     		ldr	r3, .L23+4
 533 0088 1B88     		ldrh	r3, [r3]
 534 008a 3E2B     		cmp	r3, #62
 535 008c 03D9     		bls	.L21
 218:main.c        ****                     }
 536              		.loc 1 218 0
 537 008e 2120     		movs	r0, #33
 538 0090 FFF7FEFF 		bl	USBUART_PutChar
 539              		.loc 1 226 0
 540 0094 0AE0     		b	.L22
 541              	.L21:
 221:main.c        ****                 }  
 542              		.loc 1 221 0
 543 0096 084B     		ldr	r3, .L23+4
 544 0098 1B88     		ldrh	r3, [r3]
 545 009a 5A1C     		adds	r2, r3, #1
 546 009c 91B2     		uxth	r1, r2
 547 009e 064A     		ldr	r2, .L23+4
 548 00a0 1180     		strh	r1, [r2]	@ movhi
 549 00a2 1946     		mov	r1, r3
 550 00a4 054A     		ldr	r2, .L23+8
 551 00a6 FB79     		ldrb	r3, [r7, #7]
 552 00a8 5354     		strb	r3, [r2, r1]
 553              		.loc 1 226 0
 554 00aa FFE7     		b	.L22
 555              	.L16:
 556              	.L22:
 557 00ac 00BF     		nop
 558 00ae 0837     		adds	r7, r7, #8
 559              		.cfi_def_cfa_offset 8
 560 00b0 BD46     		mov	sp, r7
 561              		.cfi_def_cfa_register 13
 562              		@ sp needed
 563 00b2 80BD     		pop	{r7, pc}
 564              	.L24:
 565              		.align	2
 566              	.L23:
 567 00b4 76020000 		.word	usbStarted.7831
 568 00b8 78020000 		.word	usbBufCount.7832
 569 00bc 00000000 		.word	entry
 570 00c0 00000000 		.word	line
 571 00c4 00000000 		.word	flag_KB_string
 572              		.cfi_endproc
 573              	.LFE68:
 574              		.size	handle_usb, .-handle_usb
 575              		.section	.text.init_dma_1_CHAINED,"ax",%progbits
 576              		.align	2
ARM GAS  C:\Users\ash750\AppData\Local\Temp\ccwbDard.s 			page 16


 577              		.global	init_dma_1_CHAINED
 578              		.thumb
 579              		.thumb_func
 580              		.type	init_dma_1_CHAINED, %function
 581              	init_dma_1_CHAINED:
 582              	.LFB69:
 227:main.c        **** #ifdef USE_DMA_CHAINED
 228:main.c        **** void init_dma_1_CHAINED(void)
 229:main.c        **** {
 583              		.loc 1 229 0
 584              		.cfi_startproc
 585              		@ args = 0, pretend = 0, frame = 32
 586              		@ frame_needed = 1, uses_anonymous_args = 0
 587 0000 80B5     		push	{r7, lr}
 588              		.cfi_def_cfa_offset 8
 589              		.cfi_offset 7, -8
 590              		.cfi_offset 14, -4
 591 0002 88B0     		sub	sp, sp, #32
 592              		.cfi_def_cfa_offset 40
 593 0004 00AF     		add	r7, sp, #0
 594              		.cfi_def_cfa_register 7
 230:main.c        **** /* Defines for DMA_1 */
 231:main.c        **** #define DMA_1_BYTES_PER_BURST 2
 232:main.c        **** #define DMA_1_REQUEST_PER_BURST 1
 233:main.c        **** #define DMA_1_SRC_BASE (CYDEV_SRAM_BASE)
 234:main.c        **** #define DMA_1_DST_BASE (CYDEV_SRAM_BASE)
 235:main.c        **** 
 236:main.c        **** /* Variable declarations for DMA_1 */
 237:main.c        **** /* Move these variable declarations to the top of the function */
 238:main.c        **** uint8 DMA_1_Chan;
 239:main.c        **** uint8 DMA_1_TD[25];
 240:main.c        **** 
 241:main.c        **** /* DMA Configuration for DMA_1 */
 242:main.c        **** DMA_1_Chan = DMA_1_DmaInitialize(DMA_1_BYTES_PER_BURST, DMA_1_REQUEST_PER_BURST, 
 595              		.loc 1 242 0
 596 0006 41F6FF73 		movw	r3, #8191
 597 000a 41F6FF72 		movw	r2, #8191
 598 000e 0121     		movs	r1, #1
 599 0010 0220     		movs	r0, #2
 600 0012 FFF7FEFF 		bl	DMA_1_DmaInitialize
 601 0016 0346     		mov	r3, r0
 602 0018 FB77     		strb	r3, [r7, #31]
 243:main.c        ****     HI16(DMA_1_SRC_BASE), HI16(DMA_1_DST_BASE));
 244:main.c        **** DMA_1_TD[0] = CyDmaTdAllocate();
 603              		.loc 1 244 0
 604 001a FFF7FEFF 		bl	CyDmaTdAllocate
 605 001e 0346     		mov	r3, r0
 606 0020 3B71     		strb	r3, [r7, #4]
 245:main.c        **** DMA_1_TD[1] = CyDmaTdAllocate();
 607              		.loc 1 245 0
 608 0022 FFF7FEFF 		bl	CyDmaTdAllocate
 609 0026 0346     		mov	r3, r0
 610 0028 7B71     		strb	r3, [r7, #5]
 246:main.c        **** DMA_1_TD[2] = CyDmaTdAllocate();
 611              		.loc 1 246 0
 612 002a FFF7FEFF 		bl	CyDmaTdAllocate
 613 002e 0346     		mov	r3, r0
ARM GAS  C:\Users\ash750\AppData\Local\Temp\ccwbDard.s 			page 17


 614 0030 BB71     		strb	r3, [r7, #6]
 247:main.c        **** DMA_1_TD[3] = CyDmaTdAllocate();
 615              		.loc 1 247 0
 616 0032 FFF7FEFF 		bl	CyDmaTdAllocate
 617 0036 0346     		mov	r3, r0
 618 0038 FB71     		strb	r3, [r7, #7]
 248:main.c        **** DMA_1_TD[4] = CyDmaTdAllocate();
 619              		.loc 1 248 0
 620 003a FFF7FEFF 		bl	CyDmaTdAllocate
 621 003e 0346     		mov	r3, r0
 622 0040 3B72     		strb	r3, [r7, #8]
 249:main.c        **** DMA_1_TD[5] = CyDmaTdAllocate();
 623              		.loc 1 249 0
 624 0042 FFF7FEFF 		bl	CyDmaTdAllocate
 625 0046 0346     		mov	r3, r0
 626 0048 7B72     		strb	r3, [r7, #9]
 250:main.c        **** DMA_1_TD[6] = CyDmaTdAllocate();
 627              		.loc 1 250 0
 628 004a FFF7FEFF 		bl	CyDmaTdAllocate
 629 004e 0346     		mov	r3, r0
 630 0050 BB72     		strb	r3, [r7, #10]
 251:main.c        **** DMA_1_TD[7] = CyDmaTdAllocate();
 631              		.loc 1 251 0
 632 0052 FFF7FEFF 		bl	CyDmaTdAllocate
 633 0056 0346     		mov	r3, r0
 634 0058 FB72     		strb	r3, [r7, #11]
 252:main.c        **** DMA_1_TD[8] = CyDmaTdAllocate();
 635              		.loc 1 252 0
 636 005a FFF7FEFF 		bl	CyDmaTdAllocate
 637 005e 0346     		mov	r3, r0
 638 0060 3B73     		strb	r3, [r7, #12]
 253:main.c        **** DMA_1_TD[9] = CyDmaTdAllocate();
 639              		.loc 1 253 0
 640 0062 FFF7FEFF 		bl	CyDmaTdAllocate
 641 0066 0346     		mov	r3, r0
 642 0068 7B73     		strb	r3, [r7, #13]
 254:main.c        **** DMA_1_TD[10] = CyDmaTdAllocate();
 643              		.loc 1 254 0
 644 006a FFF7FEFF 		bl	CyDmaTdAllocate
 645 006e 0346     		mov	r3, r0
 646 0070 BB73     		strb	r3, [r7, #14]
 255:main.c        **** DMA_1_TD[11] = CyDmaTdAllocate();
 647              		.loc 1 255 0
 648 0072 FFF7FEFF 		bl	CyDmaTdAllocate
 649 0076 0346     		mov	r3, r0
 650 0078 FB73     		strb	r3, [r7, #15]
 256:main.c        **** DMA_1_TD[12] = CyDmaTdAllocate();
 651              		.loc 1 256 0
 652 007a FFF7FEFF 		bl	CyDmaTdAllocate
 653 007e 0346     		mov	r3, r0
 654 0080 3B74     		strb	r3, [r7, #16]
 257:main.c        **** DMA_1_TD[13] = CyDmaTdAllocate();
 655              		.loc 1 257 0
 656 0082 FFF7FEFF 		bl	CyDmaTdAllocate
 657 0086 0346     		mov	r3, r0
 658 0088 7B74     		strb	r3, [r7, #17]
 258:main.c        **** DMA_1_TD[14] = CyDmaTdAllocate();
ARM GAS  C:\Users\ash750\AppData\Local\Temp\ccwbDard.s 			page 18


 659              		.loc 1 258 0
 660 008a FFF7FEFF 		bl	CyDmaTdAllocate
 661 008e 0346     		mov	r3, r0
 662 0090 BB74     		strb	r3, [r7, #18]
 259:main.c        **** DMA_1_TD[15] = CyDmaTdAllocate();
 663              		.loc 1 259 0
 664 0092 FFF7FEFF 		bl	CyDmaTdAllocate
 665 0096 0346     		mov	r3, r0
 666 0098 FB74     		strb	r3, [r7, #19]
 260:main.c        **** DMA_1_TD[16] = CyDmaTdAllocate();
 667              		.loc 1 260 0
 668 009a FFF7FEFF 		bl	CyDmaTdAllocate
 669 009e 0346     		mov	r3, r0
 670 00a0 3B75     		strb	r3, [r7, #20]
 261:main.c        **** DMA_1_TD[17] = CyDmaTdAllocate();
 671              		.loc 1 261 0
 672 00a2 FFF7FEFF 		bl	CyDmaTdAllocate
 673 00a6 0346     		mov	r3, r0
 674 00a8 7B75     		strb	r3, [r7, #21]
 262:main.c        **** DMA_1_TD[18] = CyDmaTdAllocate();
 675              		.loc 1 262 0
 676 00aa FFF7FEFF 		bl	CyDmaTdAllocate
 677 00ae 0346     		mov	r3, r0
 678 00b0 BB75     		strb	r3, [r7, #22]
 263:main.c        **** DMA_1_TD[19] = CyDmaTdAllocate();
 679              		.loc 1 263 0
 680 00b2 FFF7FEFF 		bl	CyDmaTdAllocate
 681 00b6 0346     		mov	r3, r0
 682 00b8 FB75     		strb	r3, [r7, #23]
 264:main.c        **** DMA_1_TD[20] = CyDmaTdAllocate();
 683              		.loc 1 264 0
 684 00ba FFF7FEFF 		bl	CyDmaTdAllocate
 685 00be 0346     		mov	r3, r0
 686 00c0 3B76     		strb	r3, [r7, #24]
 265:main.c        **** DMA_1_TD[21] = CyDmaTdAllocate();
 687              		.loc 1 265 0
 688 00c2 FFF7FEFF 		bl	CyDmaTdAllocate
 689 00c6 0346     		mov	r3, r0
 690 00c8 7B76     		strb	r3, [r7, #25]
 266:main.c        **** DMA_1_TD[22] = CyDmaTdAllocate();
 691              		.loc 1 266 0
 692 00ca FFF7FEFF 		bl	CyDmaTdAllocate
 693 00ce 0346     		mov	r3, r0
 694 00d0 BB76     		strb	r3, [r7, #26]
 267:main.c        **** DMA_1_TD[23] = CyDmaTdAllocate();
 695              		.loc 1 267 0
 696 00d2 FFF7FEFF 		bl	CyDmaTdAllocate
 697 00d6 0346     		mov	r3, r0
 698 00d8 FB76     		strb	r3, [r7, #27]
 268:main.c        **** DMA_1_TD[24] = CyDmaTdAllocate();
 699              		.loc 1 268 0
 700 00da FFF7FEFF 		bl	CyDmaTdAllocate
 701 00de 0346     		mov	r3, r0
 702 00e0 3B77     		strb	r3, [r7, #28]
 269:main.c        **** 
 270:main.c        **** 
 271:main.c        **** 
ARM GAS  C:\Users\ash750\AppData\Local\Temp\ccwbDard.s 			page 19


 272:main.c        **** 
 273:main.c        **** 
 274:main.c        **** CyDmaTdSetConfiguration(DMA_1_TD[0],  2, DMA_1_TD[1], TD_AUTO_EXEC_NEXT | DMA_1__TD_TERMOUT_EN);
 703              		.loc 1 274 0
 704 00e2 3879     		ldrb	r0, [r7, #4]	@ zero_extendqisi2
 705 00e4 7A79     		ldrb	r2, [r7, #5]	@ zero_extendqisi2
 706 00e6 2423     		movs	r3, #36
 707 00e8 0221     		movs	r1, #2
 708 00ea FFF7FEFF 		bl	CyDmaTdSetConfiguration
 275:main.c        **** CyDmaTdSetConfiguration(DMA_1_TD[1],  2, DMA_1_TD[2], TD_AUTO_EXEC_NEXT | DMA_1__TD_TERMOUT_EN);
 709              		.loc 1 275 0
 710 00ee 7879     		ldrb	r0, [r7, #5]	@ zero_extendqisi2
 711 00f0 BA79     		ldrb	r2, [r7, #6]	@ zero_extendqisi2
 712 00f2 2423     		movs	r3, #36
 713 00f4 0221     		movs	r1, #2
 714 00f6 FFF7FEFF 		bl	CyDmaTdSetConfiguration
 276:main.c        **** CyDmaTdSetConfiguration(DMA_1_TD[2],  2, DMA_1_TD[3], TD_AUTO_EXEC_NEXT | DMA_1__TD_TERMOUT_EN);
 715              		.loc 1 276 0
 716 00fa B879     		ldrb	r0, [r7, #6]	@ zero_extendqisi2
 717 00fc FA79     		ldrb	r2, [r7, #7]	@ zero_extendqisi2
 718 00fe 2423     		movs	r3, #36
 719 0100 0221     		movs	r1, #2
 720 0102 FFF7FEFF 		bl	CyDmaTdSetConfiguration
 277:main.c        **** CyDmaTdSetConfiguration(DMA_1_TD[3],  2, DMA_1_TD[4], TD_AUTO_EXEC_NEXT | DMA_1__TD_TERMOUT_EN);
 721              		.loc 1 277 0
 722 0106 F879     		ldrb	r0, [r7, #7]	@ zero_extendqisi2
 723 0108 3A7A     		ldrb	r2, [r7, #8]	@ zero_extendqisi2
 724 010a 2423     		movs	r3, #36
 725 010c 0221     		movs	r1, #2
 726 010e FFF7FEFF 		bl	CyDmaTdSetConfiguration
 278:main.c        **** CyDmaTdSetConfiguration(DMA_1_TD[4],  2, DMA_1_TD[5], TD_AUTO_EXEC_NEXT | DMA_1__TD_TERMOUT_EN);
 727              		.loc 1 278 0
 728 0112 387A     		ldrb	r0, [r7, #8]	@ zero_extendqisi2
 729 0114 7A7A     		ldrb	r2, [r7, #9]	@ zero_extendqisi2
 730 0116 2423     		movs	r3, #36
 731 0118 0221     		movs	r1, #2
 732 011a FFF7FEFF 		bl	CyDmaTdSetConfiguration
 279:main.c        **** CyDmaTdSetConfiguration(DMA_1_TD[5],  2, DMA_1_TD[6], TD_AUTO_EXEC_NEXT | DMA_1__TD_TERMOUT_EN);
 733              		.loc 1 279 0
 734 011e 787A     		ldrb	r0, [r7, #9]	@ zero_extendqisi2
 735 0120 BA7A     		ldrb	r2, [r7, #10]	@ zero_extendqisi2
 736 0122 2423     		movs	r3, #36
 737 0124 0221     		movs	r1, #2
 738 0126 FFF7FEFF 		bl	CyDmaTdSetConfiguration
 280:main.c        **** CyDmaTdSetConfiguration(DMA_1_TD[6],  2, DMA_1_TD[7], TD_AUTO_EXEC_NEXT | DMA_1__TD_TERMOUT_EN);
 739              		.loc 1 280 0
 740 012a B87A     		ldrb	r0, [r7, #10]	@ zero_extendqisi2
 741 012c FA7A     		ldrb	r2, [r7, #11]	@ zero_extendqisi2
 742 012e 2423     		movs	r3, #36
 743 0130 0221     		movs	r1, #2
 744 0132 FFF7FEFF 		bl	CyDmaTdSetConfiguration
 281:main.c        **** CyDmaTdSetConfiguration(DMA_1_TD[7],  2, DMA_1_TD[8], TD_AUTO_EXEC_NEXT | DMA_1__TD_TERMOUT_EN);
 745              		.loc 1 281 0
 746 0136 F87A     		ldrb	r0, [r7, #11]	@ zero_extendqisi2
 747 0138 3A7B     		ldrb	r2, [r7, #12]	@ zero_extendqisi2
 748 013a 2423     		movs	r3, #36
 749 013c 0221     		movs	r1, #2
ARM GAS  C:\Users\ash750\AppData\Local\Temp\ccwbDard.s 			page 20


 750 013e FFF7FEFF 		bl	CyDmaTdSetConfiguration
 282:main.c        **** CyDmaTdSetConfiguration(DMA_1_TD[8],  2, DMA_1_TD[9], TD_AUTO_EXEC_NEXT | DMA_1__TD_TERMOUT_EN);
 751              		.loc 1 282 0
 752 0142 387B     		ldrb	r0, [r7, #12]	@ zero_extendqisi2
 753 0144 7A7B     		ldrb	r2, [r7, #13]	@ zero_extendqisi2
 754 0146 2423     		movs	r3, #36
 755 0148 0221     		movs	r1, #2
 756 014a FFF7FEFF 		bl	CyDmaTdSetConfiguration
 283:main.c        **** CyDmaTdSetConfiguration(DMA_1_TD[9],  2, DMA_1_TD[10],TD_AUTO_EXEC_NEXT | DMA_1__TD_TERMOUT_EN);
 757              		.loc 1 283 0
 758 014e 787B     		ldrb	r0, [r7, #13]	@ zero_extendqisi2
 759 0150 BA7B     		ldrb	r2, [r7, #14]	@ zero_extendqisi2
 760 0152 2423     		movs	r3, #36
 761 0154 0221     		movs	r1, #2
 762 0156 FFF7FEFF 		bl	CyDmaTdSetConfiguration
 284:main.c        **** CyDmaTdSetConfiguration(DMA_1_TD[10], 2, DMA_1_TD[11],TD_AUTO_EXEC_NEXT | DMA_1__TD_TERMOUT_EN);
 763              		.loc 1 284 0
 764 015a B87B     		ldrb	r0, [r7, #14]	@ zero_extendqisi2
 765 015c FA7B     		ldrb	r2, [r7, #15]	@ zero_extendqisi2
 766 015e 2423     		movs	r3, #36
 767 0160 0221     		movs	r1, #2
 768 0162 FFF7FEFF 		bl	CyDmaTdSetConfiguration
 285:main.c        **** CyDmaTdSetConfiguration(DMA_1_TD[11], 2, DMA_1_TD[12],TD_AUTO_EXEC_NEXT | DMA_1__TD_TERMOUT_EN);
 769              		.loc 1 285 0
 770 0166 F87B     		ldrb	r0, [r7, #15]	@ zero_extendqisi2
 771 0168 3A7C     		ldrb	r2, [r7, #16]	@ zero_extendqisi2
 772 016a 2423     		movs	r3, #36
 773 016c 0221     		movs	r1, #2
 774 016e FFF7FEFF 		bl	CyDmaTdSetConfiguration
 286:main.c        **** CyDmaTdSetConfiguration(DMA_1_TD[12],  2, DMA_1_TD[13], TD_AUTO_EXEC_NEXT | DMA_1__TD_TERMOUT_EN);
 775              		.loc 1 286 0
 776 0172 387C     		ldrb	r0, [r7, #16]	@ zero_extendqisi2
 777 0174 7A7C     		ldrb	r2, [r7, #17]	@ zero_extendqisi2
 778 0176 2423     		movs	r3, #36
 779 0178 0221     		movs	r1, #2
 780 017a FFF7FEFF 		bl	CyDmaTdSetConfiguration
 287:main.c        **** CyDmaTdSetConfiguration(DMA_1_TD[13],  2, DMA_1_TD[14], TD_AUTO_EXEC_NEXT | DMA_1__TD_TERMOUT_EN);
 781              		.loc 1 287 0
 782 017e 787C     		ldrb	r0, [r7, #17]	@ zero_extendqisi2
 783 0180 BA7C     		ldrb	r2, [r7, #18]	@ zero_extendqisi2
 784 0182 2423     		movs	r3, #36
 785 0184 0221     		movs	r1, #2
 786 0186 FFF7FEFF 		bl	CyDmaTdSetConfiguration
 288:main.c        **** CyDmaTdSetConfiguration(DMA_1_TD[14],  2, DMA_1_TD[15], TD_AUTO_EXEC_NEXT | DMA_1__TD_TERMOUT_EN);
 787              		.loc 1 288 0
 788 018a B87C     		ldrb	r0, [r7, #18]	@ zero_extendqisi2
 789 018c FA7C     		ldrb	r2, [r7, #19]	@ zero_extendqisi2
 790 018e 2423     		movs	r3, #36
 791 0190 0221     		movs	r1, #2
 792 0192 FFF7FEFF 		bl	CyDmaTdSetConfiguration
 289:main.c        **** CyDmaTdSetConfiguration(DMA_1_TD[15],  2, DMA_1_TD[16], TD_AUTO_EXEC_NEXT | DMA_1__TD_TERMOUT_EN);
 793              		.loc 1 289 0
 794 0196 F87C     		ldrb	r0, [r7, #19]	@ zero_extendqisi2
 795 0198 3A7D     		ldrb	r2, [r7, #20]	@ zero_extendqisi2
 796 019a 2423     		movs	r3, #36
 797 019c 0221     		movs	r1, #2
 798 019e FFF7FEFF 		bl	CyDmaTdSetConfiguration
ARM GAS  C:\Users\ash750\AppData\Local\Temp\ccwbDard.s 			page 21


 290:main.c        **** CyDmaTdSetConfiguration(DMA_1_TD[16],  2, DMA_1_TD[17], TD_AUTO_EXEC_NEXT | DMA_1__TD_TERMOUT_EN);
 799              		.loc 1 290 0
 800 01a2 387D     		ldrb	r0, [r7, #20]	@ zero_extendqisi2
 801 01a4 7A7D     		ldrb	r2, [r7, #21]	@ zero_extendqisi2
 802 01a6 2423     		movs	r3, #36
 803 01a8 0221     		movs	r1, #2
 804 01aa FFF7FEFF 		bl	CyDmaTdSetConfiguration
 291:main.c        **** CyDmaTdSetConfiguration(DMA_1_TD[17],  2, DMA_1_TD[18], TD_AUTO_EXEC_NEXT | DMA_1__TD_TERMOUT_EN);
 805              		.loc 1 291 0
 806 01ae 787D     		ldrb	r0, [r7, #21]	@ zero_extendqisi2
 807 01b0 BA7D     		ldrb	r2, [r7, #22]	@ zero_extendqisi2
 808 01b2 2423     		movs	r3, #36
 809 01b4 0221     		movs	r1, #2
 810 01b6 FFF7FEFF 		bl	CyDmaTdSetConfiguration
 292:main.c        **** CyDmaTdSetConfiguration(DMA_1_TD[18],  2, DMA_1_TD[19], TD_AUTO_EXEC_NEXT | DMA_1__TD_TERMOUT_EN);
 811              		.loc 1 292 0
 812 01ba B87D     		ldrb	r0, [r7, #22]	@ zero_extendqisi2
 813 01bc FA7D     		ldrb	r2, [r7, #23]	@ zero_extendqisi2
 814 01be 2423     		movs	r3, #36
 815 01c0 0221     		movs	r1, #2
 816 01c2 FFF7FEFF 		bl	CyDmaTdSetConfiguration
 293:main.c        **** CyDmaTdSetConfiguration(DMA_1_TD[19],  2, DMA_1_TD[20], TD_AUTO_EXEC_NEXT | DMA_1__TD_TERMOUT_EN);
 817              		.loc 1 293 0
 818 01c6 F87D     		ldrb	r0, [r7, #23]	@ zero_extendqisi2
 819 01c8 3A7E     		ldrb	r2, [r7, #24]	@ zero_extendqisi2
 820 01ca 2423     		movs	r3, #36
 821 01cc 0221     		movs	r1, #2
 822 01ce FFF7FEFF 		bl	CyDmaTdSetConfiguration
 294:main.c        **** CyDmaTdSetConfiguration(DMA_1_TD[20],  2, DMA_1_TD[21], TD_AUTO_EXEC_NEXT | DMA_1__TD_TERMOUT_EN);
 823              		.loc 1 294 0
 824 01d2 387E     		ldrb	r0, [r7, #24]	@ zero_extendqisi2
 825 01d4 7A7E     		ldrb	r2, [r7, #25]	@ zero_extendqisi2
 826 01d6 2423     		movs	r3, #36
 827 01d8 0221     		movs	r1, #2
 828 01da FFF7FEFF 		bl	CyDmaTdSetConfiguration
 295:main.c        **** CyDmaTdSetConfiguration(DMA_1_TD[21],  2, DMA_1_TD[22],TD_AUTO_EXEC_NEXT | DMA_1__TD_TERMOUT_EN);
 829              		.loc 1 295 0
 830 01de 787E     		ldrb	r0, [r7, #25]	@ zero_extendqisi2
 831 01e0 BA7E     		ldrb	r2, [r7, #26]	@ zero_extendqisi2
 832 01e2 2423     		movs	r3, #36
 833 01e4 0221     		movs	r1, #2
 834 01e6 FFF7FEFF 		bl	CyDmaTdSetConfiguration
 296:main.c        **** CyDmaTdSetConfiguration(DMA_1_TD[22], 2, DMA_1_TD[23],TD_AUTO_EXEC_NEXT | DMA_1__TD_TERMOUT_EN);
 835              		.loc 1 296 0
 836 01ea B87E     		ldrb	r0, [r7, #26]	@ zero_extendqisi2
 837 01ec FA7E     		ldrb	r2, [r7, #27]	@ zero_extendqisi2
 838 01ee 2423     		movs	r3, #36
 839 01f0 0221     		movs	r1, #2
 840 01f2 FFF7FEFF 		bl	CyDmaTdSetConfiguration
 297:main.c        **** CyDmaTdSetConfiguration(DMA_1_TD[23], 2, DMA_1_TD[24],TD_AUTO_EXEC_NEXT | DMA_1__TD_TERMOUT_EN);
 841              		.loc 1 297 0
 842 01f6 F87E     		ldrb	r0, [r7, #27]	@ zero_extendqisi2
 843 01f8 3A7F     		ldrb	r2, [r7, #28]	@ zero_extendqisi2
 844 01fa 2423     		movs	r3, #36
 845 01fc 0221     		movs	r1, #2
 846 01fe FFF7FEFF 		bl	CyDmaTdSetConfiguration
 298:main.c        **** CyDmaTdSetConfiguration(DMA_1_TD[24], 2, DMA_1_TD[0], DMA_1__TD_TERMOUT_EN);
ARM GAS  C:\Users\ash750\AppData\Local\Temp\ccwbDard.s 			page 22


 847              		.loc 1 298 0
 848 0202 387F     		ldrb	r0, [r7, #28]	@ zero_extendqisi2
 849 0204 3A79     		ldrb	r2, [r7, #4]	@ zero_extendqisi2
 850 0206 0423     		movs	r3, #4
 851 0208 0221     		movs	r1, #2
 852 020a FFF7FEFF 		bl	CyDmaTdSetConfiguration
 299:main.c        **** 
 300:main.c        **** CyDmaTdSetAddress(DMA_1_TD[0],   LO16((uint32)&ADC_finalArray[0]),  LO16((uint32)&bank1[24]));
 853              		.loc 1 300 0
 854 020e 3B79     		ldrb	r3, [r7, #4]	@ zero_extendqisi2
 855 0210 6A4A     		ldr	r2, .L26
 856 0212 91B2     		uxth	r1, r2
 857 0214 6A4A     		ldr	r2, .L26+4
 858 0216 92B2     		uxth	r2, r2
 859 0218 1846     		mov	r0, r3
 860 021a FFF7FEFF 		bl	CyDmaTdSetAddress
 301:main.c        **** CyDmaTdSetAddress(DMA_1_TD[1],   LO16((uint32)&ADC_finalArray[1]),  LO16((uint32)&bank1[23]));
 861              		.loc 1 301 0
 862 021e 7B79     		ldrb	r3, [r7, #5]	@ zero_extendqisi2
 863 0220 684A     		ldr	r2, .L26+8
 864 0222 91B2     		uxth	r1, r2
 865 0224 684A     		ldr	r2, .L26+12
 866 0226 92B2     		uxth	r2, r2
 867 0228 1846     		mov	r0, r3
 868 022a FFF7FEFF 		bl	CyDmaTdSetAddress
 302:main.c        **** CyDmaTdSetAddress(DMA_1_TD[2],   LO16((uint32)&ADC_finalArray[2]),  LO16((uint32)&bank1[22]));
 869              		.loc 1 302 0
 870 022e BB79     		ldrb	r3, [r7, #6]	@ zero_extendqisi2
 871 0230 664A     		ldr	r2, .L26+16
 872 0232 91B2     		uxth	r1, r2
 873 0234 664A     		ldr	r2, .L26+20
 874 0236 92B2     		uxth	r2, r2
 875 0238 1846     		mov	r0, r3
 876 023a FFF7FEFF 		bl	CyDmaTdSetAddress
 303:main.c        **** CyDmaTdSetAddress(DMA_1_TD[3],   LO16((uint32)&ADC_finalArray[3]),  LO16((uint32)&bank1[21]));
 877              		.loc 1 303 0
 878 023e FB79     		ldrb	r3, [r7, #7]	@ zero_extendqisi2
 879 0240 644A     		ldr	r2, .L26+24
 880 0242 91B2     		uxth	r1, r2
 881 0244 644A     		ldr	r2, .L26+28
 882 0246 92B2     		uxth	r2, r2
 883 0248 1846     		mov	r0, r3
 884 024a FFF7FEFF 		bl	CyDmaTdSetAddress
 304:main.c        **** CyDmaTdSetAddress(DMA_1_TD[4],   LO16((uint32)&ADC_finalArray[4]),  LO16((uint32)&bank1[20]));
 885              		.loc 1 304 0
 886 024e 3B7A     		ldrb	r3, [r7, #8]	@ zero_extendqisi2
 887 0250 624A     		ldr	r2, .L26+32
 888 0252 91B2     		uxth	r1, r2
 889 0254 624A     		ldr	r2, .L26+36
 890 0256 92B2     		uxth	r2, r2
 891 0258 1846     		mov	r0, r3
 892 025a FFF7FEFF 		bl	CyDmaTdSetAddress
 305:main.c        **** CyDmaTdSetAddress(DMA_1_TD[5],   LO16((uint32)&ADC_finalArray[5]),  LO16((uint32)&bank1[19]));
 893              		.loc 1 305 0
 894 025e 7B7A     		ldrb	r3, [r7, #9]	@ zero_extendqisi2
 895 0260 604A     		ldr	r2, .L26+40
 896 0262 91B2     		uxth	r1, r2
ARM GAS  C:\Users\ash750\AppData\Local\Temp\ccwbDard.s 			page 23


 897 0264 604A     		ldr	r2, .L26+44
 898 0266 92B2     		uxth	r2, r2
 899 0268 1846     		mov	r0, r3
 900 026a FFF7FEFF 		bl	CyDmaTdSetAddress
 306:main.c        **** CyDmaTdSetAddress(DMA_1_TD[6],   LO16((uint32)&ADC_finalArray[6]),  LO16((uint32)&bank1[18]));
 901              		.loc 1 306 0
 902 026e BB7A     		ldrb	r3, [r7, #10]	@ zero_extendqisi2
 903 0270 5E4A     		ldr	r2, .L26+48
 904 0272 91B2     		uxth	r1, r2
 905 0274 5E4A     		ldr	r2, .L26+52
 906 0276 92B2     		uxth	r2, r2
 907 0278 1846     		mov	r0, r3
 908 027a FFF7FEFF 		bl	CyDmaTdSetAddress
 307:main.c        **** CyDmaTdSetAddress(DMA_1_TD[7],   LO16((uint32)&ADC_finalArray[7]),  LO16((uint32)&bank1[17]));
 909              		.loc 1 307 0
 910 027e FB7A     		ldrb	r3, [r7, #11]	@ zero_extendqisi2
 911 0280 5C4A     		ldr	r2, .L26+56
 912 0282 91B2     		uxth	r1, r2
 913 0284 5C4A     		ldr	r2, .L26+60
 914 0286 92B2     		uxth	r2, r2
 915 0288 1846     		mov	r0, r3
 916 028a FFF7FEFF 		bl	CyDmaTdSetAddress
 308:main.c        **** CyDmaTdSetAddress(DMA_1_TD[8],   LO16((uint32)&ADC_finalArray[8]),  LO16((uint32)&bank1[16]));
 917              		.loc 1 308 0
 918 028e 3B7B     		ldrb	r3, [r7, #12]	@ zero_extendqisi2
 919 0290 5A4A     		ldr	r2, .L26+64
 920 0292 91B2     		uxth	r1, r2
 921 0294 5A4A     		ldr	r2, .L26+68
 922 0296 92B2     		uxth	r2, r2
 923 0298 1846     		mov	r0, r3
 924 029a FFF7FEFF 		bl	CyDmaTdSetAddress
 309:main.c        **** CyDmaTdSetAddress(DMA_1_TD[9],   LO16((uint32)&ADC_finalArray[9]),  LO16((uint32)&bank1[15]));
 925              		.loc 1 309 0
 926 029e 7B7B     		ldrb	r3, [r7, #13]	@ zero_extendqisi2
 927 02a0 584A     		ldr	r2, .L26+72
 928 02a2 91B2     		uxth	r1, r2
 929 02a4 584A     		ldr	r2, .L26+76
 930 02a6 92B2     		uxth	r2, r2
 931 02a8 1846     		mov	r0, r3
 932 02aa FFF7FEFF 		bl	CyDmaTdSetAddress
 310:main.c        **** CyDmaTdSetAddress(DMA_1_TD[10],  LO16((uint32)&ADC_finalArray[10]), LO16((uint32)&bank1[14]));
 933              		.loc 1 310 0
 934 02ae BB7B     		ldrb	r3, [r7, #14]	@ zero_extendqisi2
 935 02b0 564A     		ldr	r2, .L26+80
 936 02b2 91B2     		uxth	r1, r2
 937 02b4 564A     		ldr	r2, .L26+84
 938 02b6 92B2     		uxth	r2, r2
 939 02b8 1846     		mov	r0, r3
 940 02ba FFF7FEFF 		bl	CyDmaTdSetAddress
 311:main.c        **** CyDmaTdSetAddress(DMA_1_TD[11],  LO16((uint32)&ADC_finalArray[11]), LO16((uint32)&bank1[13]));
 941              		.loc 1 311 0
 942 02be FB7B     		ldrb	r3, [r7, #15]	@ zero_extendqisi2
 943 02c0 544A     		ldr	r2, .L26+88
 944 02c2 91B2     		uxth	r1, r2
 945 02c4 544A     		ldr	r2, .L26+92
 946 02c6 92B2     		uxth	r2, r2
 947 02c8 1846     		mov	r0, r3
ARM GAS  C:\Users\ash750\AppData\Local\Temp\ccwbDard.s 			page 24


 948 02ca FFF7FEFF 		bl	CyDmaTdSetAddress
 312:main.c        **** CyDmaTdSetAddress(DMA_1_TD[12],  LO16((uint32)&ADC_finalArray[12]), LO16((uint32)&bank1[12]));
 949              		.loc 1 312 0
 950 02ce 3B7C     		ldrb	r3, [r7, #16]	@ zero_extendqisi2
 951 02d0 524A     		ldr	r2, .L26+96
 952 02d2 91B2     		uxth	r1, r2
 953 02d4 524A     		ldr	r2, .L26+100
 954 02d6 92B2     		uxth	r2, r2
 955 02d8 1846     		mov	r0, r3
 956 02da FFF7FEFF 		bl	CyDmaTdSetAddress
 313:main.c        **** CyDmaTdSetAddress(DMA_1_TD[13],  LO16((uint32)&ADC_finalArray[13]),  LO16((uint32)&bank1[11]));
 957              		.loc 1 313 0
 958 02de 7B7C     		ldrb	r3, [r7, #17]	@ zero_extendqisi2
 959 02e0 504A     		ldr	r2, .L26+104
 960 02e2 91B2     		uxth	r1, r2
 961 02e4 504A     		ldr	r2, .L26+108
 962 02e6 92B2     		uxth	r2, r2
 963 02e8 1846     		mov	r0, r3
 964 02ea FFF7FEFF 		bl	CyDmaTdSetAddress
 314:main.c        **** CyDmaTdSetAddress(DMA_1_TD[14],  LO16((uint32)&ADC_finalArray[14]),  LO16((uint32)&bank1[10]));
 965              		.loc 1 314 0
 966 02ee BB7C     		ldrb	r3, [r7, #18]	@ zero_extendqisi2
 967 02f0 4E4A     		ldr	r2, .L26+112
 968 02f2 91B2     		uxth	r1, r2
 969 02f4 4E4A     		ldr	r2, .L26+116
 970 02f6 92B2     		uxth	r2, r2
 971 02f8 1846     		mov	r0, r3
 972 02fa FFF7FEFF 		bl	CyDmaTdSetAddress
 315:main.c        **** CyDmaTdSetAddress(DMA_1_TD[15],  LO16((uint32)&ADC_finalArray[15]),  LO16((uint32)&bank1[9]));
 973              		.loc 1 315 0
 974 02fe FB7C     		ldrb	r3, [r7, #19]	@ zero_extendqisi2
 975 0300 4C4A     		ldr	r2, .L26+120
 976 0302 91B2     		uxth	r1, r2
 977 0304 4C4A     		ldr	r2, .L26+124
 978 0306 92B2     		uxth	r2, r2
 979 0308 1846     		mov	r0, r3
 980 030a FFF7FEFF 		bl	CyDmaTdSetAddress
 316:main.c        **** CyDmaTdSetAddress(DMA_1_TD[16],  LO16((uint32)&ADC_finalArray[16]),  LO16((uint32)&bank1[8]));
 981              		.loc 1 316 0
 982 030e 3B7D     		ldrb	r3, [r7, #20]	@ zero_extendqisi2
 983 0310 4A4A     		ldr	r2, .L26+128
 984 0312 91B2     		uxth	r1, r2
 985 0314 4A4A     		ldr	r2, .L26+132
 986 0316 92B2     		uxth	r2, r2
 987 0318 1846     		mov	r0, r3
 988 031a FFF7FEFF 		bl	CyDmaTdSetAddress
 317:main.c        **** CyDmaTdSetAddress(DMA_1_TD[17],  LO16((uint32)&ADC_finalArray[17]),  LO16((uint32)&bank1[7]));
 989              		.loc 1 317 0
 990 031e 7B7D     		ldrb	r3, [r7, #21]	@ zero_extendqisi2
 991 0320 484A     		ldr	r2, .L26+136
 992 0322 91B2     		uxth	r1, r2
 993 0324 484A     		ldr	r2, .L26+140
 994 0326 92B2     		uxth	r2, r2
 995 0328 1846     		mov	r0, r3
 996 032a FFF7FEFF 		bl	CyDmaTdSetAddress
 318:main.c        **** CyDmaTdSetAddress(DMA_1_TD[18],  LO16((uint32)&ADC_finalArray[18]),  LO16((uint32)&bank1[6]));
 997              		.loc 1 318 0
ARM GAS  C:\Users\ash750\AppData\Local\Temp\ccwbDard.s 			page 25


 998 032e BB7D     		ldrb	r3, [r7, #22]	@ zero_extendqisi2
 999 0330 464A     		ldr	r2, .L26+144
 1000 0332 91B2     		uxth	r1, r2
 1001 0334 464A     		ldr	r2, .L26+148
 1002 0336 92B2     		uxth	r2, r2
 1003 0338 1846     		mov	r0, r3
 1004 033a FFF7FEFF 		bl	CyDmaTdSetAddress
 319:main.c        **** CyDmaTdSetAddress(DMA_1_TD[19],  LO16((uint32)&ADC_finalArray[19]),  LO16((uint32)&bank1[5]));
 1005              		.loc 1 319 0
 1006 033e FB7D     		ldrb	r3, [r7, #23]	@ zero_extendqisi2
 1007 0340 444A     		ldr	r2, .L26+152
 1008 0342 91B2     		uxth	r1, r2
 1009 0344 444A     		ldr	r2, .L26+156
 1010 0346 92B2     		uxth	r2, r2
 1011 0348 1846     		mov	r0, r3
 1012 034a FFF7FEFF 		bl	CyDmaTdSetAddress
 320:main.c        **** CyDmaTdSetAddress(DMA_1_TD[20],  LO16((uint32)&ADC_finalArray[20]),  LO16((uint32)&bank1[4]));
 1013              		.loc 1 320 0
 1014 034e 3B7E     		ldrb	r3, [r7, #24]	@ zero_extendqisi2
 1015 0350 424A     		ldr	r2, .L26+160
 1016 0352 91B2     		uxth	r1, r2
 1017 0354 424A     		ldr	r2, .L26+164
 1018 0356 92B2     		uxth	r2, r2
 1019 0358 1846     		mov	r0, r3
 1020 035a FFF7FEFF 		bl	CyDmaTdSetAddress
 321:main.c        **** CyDmaTdSetAddress(DMA_1_TD[21],  LO16((uint32)&ADC_finalArray[21]),  LO16((uint32)&bank1[3]));
 1021              		.loc 1 321 0
 1022 035e 7B7E     		ldrb	r3, [r7, #25]	@ zero_extendqisi2
 1023 0360 404A     		ldr	r2, .L26+168
 1024 0362 91B2     		uxth	r1, r2
 1025 0364 404A     		ldr	r2, .L26+172
 1026 0366 92B2     		uxth	r2, r2
 1027 0368 1846     		mov	r0, r3
 1028 036a FFF7FEFF 		bl	CyDmaTdSetAddress
 322:main.c        **** CyDmaTdSetAddress(DMA_1_TD[22],  LO16((uint32)&ADC_finalArray[22]),  LO16((uint32)&bank1[2]));
 1029              		.loc 1 322 0
 1030 036e BB7E     		ldrb	r3, [r7, #26]	@ zero_extendqisi2
 1031 0370 3E4A     		ldr	r2, .L26+176
 1032 0372 91B2     		uxth	r1, r2
 1033 0374 3E4A     		ldr	r2, .L26+180
 1034 0376 92B2     		uxth	r2, r2
 1035 0378 1846     		mov	r0, r3
 1036 037a FFF7FEFF 		bl	CyDmaTdSetAddress
 323:main.c        **** CyDmaTdSetAddress(DMA_1_TD[23],  LO16((uint32)&ADC_finalArray[23]), LO16((uint32)&bank1[1]));
 1037              		.loc 1 323 0
 1038 037e FB7E     		ldrb	r3, [r7, #27]	@ zero_extendqisi2
 1039 0380 3C4A     		ldr	r2, .L26+184
 1040 0382 91B2     		uxth	r1, r2
 1041 0384 3C4A     		ldr	r2, .L26+188
 1042 0386 92B2     		uxth	r2, r2
 1043 0388 1846     		mov	r0, r3
 1044 038a FFF7FEFF 		bl	CyDmaTdSetAddress
 324:main.c        **** CyDmaTdSetAddress(DMA_1_TD[24],  LO16((uint32)&ADC_finalArray[24]), LO16((uint32)&bank1[0]));
 1045              		.loc 1 324 0
 1046 038e 3B7F     		ldrb	r3, [r7, #28]	@ zero_extendqisi2
 1047 0390 3A4A     		ldr	r2, .L26+192
 1048 0392 91B2     		uxth	r1, r2
ARM GAS  C:\Users\ash750\AppData\Local\Temp\ccwbDard.s 			page 26


 1049 0394 3A4A     		ldr	r2, .L26+196
 1050 0396 92B2     		uxth	r2, r2
 1051 0398 1846     		mov	r0, r3
 1052 039a FFF7FEFF 		bl	CyDmaTdSetAddress
 325:main.c        **** 
 326:main.c        **** 
 327:main.c        **** CyDmaChSetInitialTd(DMA_1_Chan, DMA_1_TD[0]);
 1053              		.loc 1 327 0
 1054 039e 3A79     		ldrb	r2, [r7, #4]	@ zero_extendqisi2
 1055 03a0 FB7F     		ldrb	r3, [r7, #31]	@ zero_extendqisi2
 1056 03a2 1146     		mov	r1, r2
 1057 03a4 1846     		mov	r0, r3
 1058 03a6 FFF7FEFF 		bl	CyDmaChSetInitialTd
 328:main.c        **** CyDmaChEnable(DMA_1_Chan, 1);
 1059              		.loc 1 328 0
 1060 03aa FB7F     		ldrb	r3, [r7, #31]	@ zero_extendqisi2
 1061 03ac 0121     		movs	r1, #1
 1062 03ae 1846     		mov	r0, r3
 1063 03b0 FFF7FEFF 		bl	CyDmaChEnable
 329:main.c        **** 
 330:main.c        **** }
 1064              		.loc 1 330 0
 1065 03b4 00BF     		nop
 1066 03b6 2037     		adds	r7, r7, #32
 1067              		.cfi_def_cfa_offset 8
 1068 03b8 BD46     		mov	sp, r7
 1069              		.cfi_def_cfa_register 13
 1070              		@ sp needed
 1071 03ba 80BD     		pop	{r7, pc}
 1072              	.L27:
 1073              		.align	2
 1074              	.L26:
 1075 03bc 00000000 		.word	ADC_finalArray
 1076 03c0 30000000 		.word	bank1+48
 1077 03c4 02000000 		.word	ADC_finalArray+2
 1078 03c8 2E000000 		.word	bank1+46
 1079 03cc 04000000 		.word	ADC_finalArray+4
 1080 03d0 2C000000 		.word	bank1+44
 1081 03d4 06000000 		.word	ADC_finalArray+6
 1082 03d8 2A000000 		.word	bank1+42
 1083 03dc 08000000 		.word	ADC_finalArray+8
 1084 03e0 28000000 		.word	bank1+40
 1085 03e4 0A000000 		.word	ADC_finalArray+10
 1086 03e8 26000000 		.word	bank1+38
 1087 03ec 0C000000 		.word	ADC_finalArray+12
 1088 03f0 24000000 		.word	bank1+36
 1089 03f4 0E000000 		.word	ADC_finalArray+14
 1090 03f8 22000000 		.word	bank1+34
 1091 03fc 10000000 		.word	ADC_finalArray+16
 1092 0400 20000000 		.word	bank1+32
 1093 0404 12000000 		.word	ADC_finalArray+18
 1094 0408 1E000000 		.word	bank1+30
 1095 040c 14000000 		.word	ADC_finalArray+20
 1096 0410 1C000000 		.word	bank1+28
 1097 0414 16000000 		.word	ADC_finalArray+22
 1098 0418 1A000000 		.word	bank1+26
 1099 041c 18000000 		.word	ADC_finalArray+24
ARM GAS  C:\Users\ash750\AppData\Local\Temp\ccwbDard.s 			page 27


 1100 0420 18000000 		.word	bank1+24
 1101 0424 1A000000 		.word	ADC_finalArray+26
 1102 0428 16000000 		.word	bank1+22
 1103 042c 1C000000 		.word	ADC_finalArray+28
 1104 0430 14000000 		.word	bank1+20
 1105 0434 1E000000 		.word	ADC_finalArray+30
 1106 0438 12000000 		.word	bank1+18
 1107 043c 20000000 		.word	ADC_finalArray+32
 1108 0440 10000000 		.word	bank1+16
 1109 0444 22000000 		.word	ADC_finalArray+34
 1110 0448 0E000000 		.word	bank1+14
 1111 044c 24000000 		.word	ADC_finalArray+36
 1112 0450 0C000000 		.word	bank1+12
 1113 0454 26000000 		.word	ADC_finalArray+38
 1114 0458 0A000000 		.word	bank1+10
 1115 045c 28000000 		.word	ADC_finalArray+40
 1116 0460 08000000 		.word	bank1+8
 1117 0464 2A000000 		.word	ADC_finalArray+42
 1118 0468 06000000 		.word	bank1+6
 1119 046c 2C000000 		.word	ADC_finalArray+44
 1120 0470 04000000 		.word	bank1+4
 1121 0474 2E000000 		.word	ADC_finalArray+46
 1122 0478 02000000 		.word	bank1+2
 1123 047c 30000000 		.word	ADC_finalArray+48
 1124 0480 00000000 		.word	bank1
 1125              		.cfi_endproc
 1126              	.LFE69:
 1127              		.size	init_dma_1_CHAINED, .-init_dma_1_CHAINED
 1128              		.bss
 1129              	usbStarted.7831:
 1130 0276 00       		.space	1
 1131 0277 00       		.align	1
 1132              	usbBufCount.7832:
 1133 0278 0000     		.space	2
 1134              		.text
 1135              	.Letext0:
 1136              		.file 2 "c:\\program files (x86)\\cypress\\psoc creator\\4.2\\psoc creator\\import\\gnu\\arm\\5.4.
 1137              		.file 3 "c:\\program files (x86)\\cypress\\psoc creator\\4.2\\psoc creator\\import\\gnu\\arm\\5.4.
 1138              		.file 4 "Generated_Source\\PSoC5/cytypes.h"
 1139              		.file 5 "vars.h"
 1140              		.file 6 "Generated_Source\\PSoC5/ADC.h"
 1141              		.file 7 "Generated_Source\\PSoC5/core_cm3.h"