ARM GAS  C:\Users\ash750\AppData\Local\Temp\ccwbDard.s 			page 1


   1              		.syntax unified
   2              		.cpu cortex-m3
   3              		.fpu softvfp
   4              		.eabi_attribute 20, 1
   5              		.eabi_attribute 21, 1
   6              		.eabi_attribute 23, 3
   7              		.eabi_attribute 24, 1
   8              		.eabi_attribute 25, 1
   9              		.eabi_attribute 26, 1
  10              		.eabi_attribute 30, 6
  11              		.eabi_attribute 34, 1
  12              		.eabi_attribute 18, 4
  13              		.thumb
  14              		.syntax unified
  15              		.file	"main.c"
  16              		.text
  17              	.Ltext0:
  18              		.cfi_sections	.debug_frame
  19              		.global	ts
  20              		.bss
  21              		.type	ts, %object
  22              		.size	ts, 1
  23              	ts:
  24 0000 00       		.space	1
  25              		.global	ts_enc
  26 0001 00       		.align	1
  27              		.type	ts_enc, %object
  28              		.size	ts_enc, 2
  29              	ts_enc:
  30 0002 0000     		.space	2
  31              		.global	ts_update
  32              		.align	1
  33              		.type	ts_update, %object
  34              		.size	ts_update, 2
  35              	ts_update:
  36 0004 0000     		.space	2
  37              		.global	ts_speed
  38              		.align	1
  39              		.type	ts_speed, %object
  40              		.size	ts_speed, 2
  41              	ts_speed:
  42 0006 0000     		.space	2
  43              		.global	ts_display
  44              		.align	1
  45              		.type	ts_display, %object
  46              		.size	ts_display, 2
  47              	ts_display:
  48 0008 0000     		.space	2
  49              		.global	flag_ts_enc
  50              		.type	flag_ts_enc, %object
  51              		.size	flag_ts_enc, 1
  52              	flag_ts_enc:
  53 000a 00       		.space	1
  54              		.global	flag_ts_update
  55              		.type	flag_ts_update, %object
  56              		.size	flag_ts_update, 1
  57              	flag_ts_update:
ARM GAS  C:\Users\ash750\AppData\Local\Temp\ccwbDard.s 			page 2


  58 000b 00       		.space	1
  59              		.global	flag_ts_speed
  60              		.type	flag_ts_speed, %object
  61              		.size	flag_ts_speed, 1
  62              	flag_ts_speed:
  63 000c 00       		.space	1
  64              		.global	flag_ts_display
  65              		.type	flag_ts_display, %object
  66              		.size	flag_ts_display, 1
  67              	flag_ts_display:
  68 000d 00       		.space	1
  69              		.global	flag_rx
  70              		.type	flag_rx, %object
  71              		.size	flag_rx, 1
  72              	flag_rx:
  73 000e 00       		.space	1
  74              		.global	flag_packet
  75              		.type	flag_packet, %object
  76              		.size	flag_packet, 1
  77              	flag_packet:
  78 000f 00       		.space	1
  79              		.global	flag_KB_string
  80              		.type	flag_KB_string, %object
  81              		.size	flag_KB_string, 1
  82              	flag_KB_string:
  83 0010 00       		.space	1
  84              		.global	dataready_flag
  85              		.type	dataready_flag, %object
  86              		.size	dataready_flag, 1
  87              	dataready_flag:
  88 0011 00       		.space	1
  89              		.global	flag_rf_transmission_active
  90              		.data
  91              		.type	flag_rf_transmission_active, %object
  92              		.size	flag_rf_transmission_active, 1
  93              	flag_rf_transmission_active:
  94 0000 0A       		.byte	10
  95              		.global	displaystring
  96 0001 000000   		.align	2
  97              		.type	displaystring, %object
  98              		.size	displaystring, 64
  99              	displaystring:
 100 0004 43533330 		.ascii	"CS301 2024\012\000"
 100      31203230 
 100      32340A00 
 101 0010 00000000 		.space	52
 101      00000000 
 101      00000000 
 101      00000000 
 101      00000000 
 102              		.comm	line,64,4
 103              		.comm	entry,64,4
 104              		.comm	usbBuffer,64,4
 105              		.comm	system_state,32,4
 106              		.comm	result_of_conversion,2,2
 107              		.comm	buffer,64,4
 108              		.comm	bank1,50,4
ARM GAS  C:\Users\ash750\AppData\Local\Temp\ccwbDard.s 			page 3


 109              		.comm	tempBank,52,4
 110              		.global	sample_window
 111              		.align	2
 112              		.type	sample_window, %object
 113              		.size	sample_window, 4
 114              	sample_window:
 115 0044 64000000 		.word	100
 116              		.global	voltage_of_reading
 117              		.bss
 118 0012 0000     		.align	2
 119              		.type	voltage_of_reading, %object
 120              		.size	voltage_of_reading, 4
 121              	voltage_of_reading:
 122 0014 00000000 		.space	4
 123              		.global	sensor_sum
 124              		.align	2
 125              		.type	sensor_sum, %object
 126              		.size	sensor_sum, 50
 127              	sensor_sum:
 128 0018 00000000 		.space	50
 128      00000000 
 128      00000000 
 128      00000000 
 128      00000000 
 129              		.global	sensor_max
 130 004a 0000     		.align	2
 131              		.type	sensor_max, %object
 132              		.size	sensor_max, 50
 133              	sensor_max:
 134 004c 00000000 		.space	50
 134      00000000 
 134      00000000 
 134      00000000 
 134      00000000 
 135              		.global	sensor_min
 136 007e 0000     		.align	2
 137              		.type	sensor_min, %object
 138              		.size	sensor_min, 50
 139              	sensor_min:
 140 0080 00000000 		.space	50
 140      00000000 
 140      00000000 
 140      00000000 
 140      00000000 
 141              		.global	current_max
 142 00b2 0000     		.align	2
 143              		.type	current_max, %object
 144              		.size	current_max, 100
 145              	current_max:
 146 00b4 00000000 		.space	100
 146      00000000 
 146      00000000 
 146      00000000 
 146      00000000 
 147              		.global	current_min
 148              		.align	2
 149              		.type	current_min, %object
ARM GAS  C:\Users\ash750\AppData\Local\Temp\ccwbDard.s 			page 4


 150              		.size	current_min, 100
 151              	current_min:
 152 0118 00000000 		.space	100
 152      00000000 
 152      00000000 
 152      00000000 
 152      00000000 
 153              		.global	dc_offset
 154              		.align	2
 155              		.type	dc_offset, %object
 156              		.size	dc_offset, 100
 157              	dc_offset:
 158 017c 00000000 		.space	100
 158      00000000 
 158      00000000 
 158      00000000 
 158      00000000 
 159              		.global	vpp
 160              		.align	2
 161              		.type	vpp, %object
 162              		.size	vpp, 100
 163              	vpp:
 164 01e0 00000000 		.space	100
 164      00000000 
 164      00000000 
 164      00000000 
 164      00000000 
 165              		.global	sensor_sample_count
 166              		.align	2
 167              		.type	sensor_sample_count, %object
 168              		.size	sensor_sample_count, 50
 169              	sensor_sample_count:
 170 0244 00000000 		.space	50
 170      00000000 
 170      00000000 
 170      00000000 
 170      00000000 
 171              		.section	.text.main,"ax",%progbits
 172              		.align	2
 173              		.global	main
 174              		.thumb
 175              		.thumb_func
 176              		.type	main, %function
 177              	main:
 178              	.LFB64:
 179              		.file 1 "main.c"
   1:main.c        **** /* ========================================
   2:main.c        ****  * Fully working code: 
   3:main.c        ****  * PWM      : 
   4:main.c        ****  * Encoder  : 
   5:main.c        ****  * ADC      :
   6:main.c        ****  * USB      : port displays speed and position.
   7:main.c        ****  * CMD: "PW xx"
   8:main.c        ****  * Copyright Univ of Auckland, 2016
   9:main.c        ****  * All Rights Reserved
  10:main.c        ****  * UNPUBLISHED, LICENSED SOFTWARE.
  11:main.c        ****  *
ARM GAS  C:\Users\ash750\AppData\Local\Temp\ccwbDard.s 			page 5


  12:main.c        ****  * CONFIDENTIAL AND PROPRIETARY INFORMATION
  13:main.c        ****  * WHICH IS THE PROPERTY OF Univ of Auckland.
  14:main.c        ****  *
  15:main.c        ****  * ========================================
  16:main.c        **** */
  17:main.c        **** #include <stdio.h>
  18:main.c        **** #include <string.h>
  19:main.c        **** #include <stdlib.h>
  20:main.c        **** #include <project.h>
  21:main.c        **** //* ========================================
  22:main.c        **** #include "defines.h"
  23:main.c        **** #include "vars.h"
  24:main.c        **** //* ========================================
  25:main.c        **** void usbPutString(char *s);
  26:main.c        **** void usbPutChar(char c);
  27:main.c        **** void usbPutBin(uint16_t *buffer, uint16_t count); 
  28:main.c        **** void handle_usb();
  29:main.c        **** //* ========================================
  30:main.c        **** 
  31:main.c        **** //some global vars
  32:main.c        **** int16_t result_of_conversion; 
  33:main.c        **** char buffer[64];
  34:main.c        **** uint16_t bank1[25]; 
  35:main.c        **** uint16_t tempBank[26];
  36:main.c        **** void init_dma_1_CHAINED();
  37:main.c        **** int sample_window = 100; 
  38:main.c        **** float voltage_of_reading = 0.0; 
  39:main.c        **** int16_t sensor_sum[25] = {0}; 
  40:main.c        **** int16_t sensor_max[25] = {0};
  41:main.c        **** int16_t sensor_min[25] = {0};
  42:main.c        **** float current_max[25] = {0.0}; 
  43:main.c        **** float current_min[25] = {0.0};
  44:main.c        **** float dc_offset[25] = {0.0};
  45:main.c        **** float vpp[25] = {0.0}; 
  46:main.c        **** int16_t sensor_sample_count[25] = {0}; 
  47:main.c        **** 
  48:main.c        **** int main()
  49:main.c        **** {
 180              		.loc 1 49 0
 181              		.cfi_startproc
 182              		@ args = 0, pretend = 0, frame = 0
 183              		@ frame_needed = 1, uses_anonymous_args = 0
 184 0000 F8B5     		push	{r3, r4, r5, r6, r7, lr}
 185              		.cfi_def_cfa_offset 24
 186              		.cfi_offset 3, -24
 187              		.cfi_offset 4, -20
 188              		.cfi_offset 5, -16
 189              		.cfi_offset 6, -12
 190              		.cfi_offset 7, -8
 191              		.cfi_offset 14, -4
 192 0002 00AF     		add	r7, sp, #0
 193              		.cfi_def_cfa_register 7
  50:main.c        ****     
  51:main.c        **** // --------------------------------    
  52:main.c        **** // ----- INITIALIZATIONS ----------
  53:main.c        ****     CYGlobalIntEnable;
 194              		.loc 1 53 0
ARM GAS  C:\Users\ash750\AppData\Local\Temp\ccwbDard.s 			page 6


 195              		.syntax unified
 196              	@ 53 "main.c" 1
 197 0004 62B6     		CPSIE   i
 198              	@ 0 "" 2
  54:main.c        ****     #ifdef USE_DMA_CHAINED
  55:main.c        ****     init_dma_1_CHAINED();    
 199              		.loc 1 55 0
 200              		.thumb
 201              		.syntax unified
 202 0006 FFF7FEFF 		bl	init_dma_1_CHAINED
  56:main.c        ****     #endif
  57:main.c        ****     
  58:main.c        ****     ADC_Start();
 203              		.loc 1 58 0
 204 000a FFF7FEFF 		bl	ADC_Start
  59:main.c        ****     // ADC_SAR_StartConvert(); 
  60:main.c        ****     CyDelay(1);
 205              		.loc 1 60 0
 206 000e 0120     		movs	r0, #1
 207 0010 FFF7FEFF 		bl	CyDelay
  61:main.c        ****     
  62:main.c        ****     Timer_1_WritePeriod(100);
 208              		.loc 1 62 0
 209 0014 6420     		movs	r0, #100
 210 0016 FFF7FEFF 		bl	Timer_1_WritePeriod
  63:main.c        ****     Timer_1_Start();
 211              		.loc 1 63 0
 212 001a FFF7FEFF 		bl	Timer_1_Start
  64:main.c        ****    
  65:main.c        ****     
  66:main.c        **** 
  67:main.c        **** // ------USB SETUP ----------------    
  68:main.c        **** #ifdef USE_USB    
  69:main.c        ****     USBUART_Start(0,USBUART_5V_OPERATION);
 213              		.loc 1 69 0
 214 001e 0121     		movs	r1, #1
 215 0020 0020     		movs	r0, #0
 216 0022 FFF7FEFF 		bl	USBUART_Start
 217              	.L4:
  70:main.c        **** #endif        
  71:main.c        ****     for(;;)
  72:main.c        ****     {
  73:main.c        ****         /* Place your application code here. */
  74:main.c        ****         handle_usb();
 218              		.loc 1 74 0
 219 0026 FFF7FEFF 		bl	handle_usb
  75:main.c        ****         if (flag_KB_string == 1)
 220              		.loc 1 75 0
 221 002a 154B     		ldr	r3, .L5
 222 002c 1B78     		ldrb	r3, [r3]	@ zero_extendqisi2
 223 002e 012B     		cmp	r3, #1
 224 0030 05D1     		bne	.L2
  76:main.c        ****         {
  77:main.c        ****             usbPutString(line);
 225              		.loc 1 77 0
 226 0032 1448     		ldr	r0, .L5+4
 227 0034 FFF7FEFF 		bl	usbPutString
ARM GAS  C:\Users\ash750\AppData\Local\Temp\ccwbDard.s 			page 7


  78:main.c        ****             flag_KB_string = 0;
 228              		.loc 1 78 0
 229 0038 114B     		ldr	r3, .L5
 230 003a 0022     		movs	r2, #0
 231 003c 1A70     		strb	r2, [r3]
 232              	.L2:
  79:main.c        ****         }  
  80:main.c        ****         
  81:main.c        ****         
  82:main.c        **** //        for(int ch = 0; ch < 25; ch++){
  83:main.c        **** //        result_of_conversion = ADC_SAR_GetResult16();
  84:main.c        **** //        //sprintf(buffer, "%d \r\n",result_of_conversion); 
  85:main.c        **** //        
  86:main.c        **** //        //convert the adc value into a voltage
  87:main.c        **** //        voltage_of_reading = (result_of_conversion * 5 /4096);
  88:main.c        **** //        //sprintf(buffer, "%d.%d%d \r\n", (int16_t)voltage_of_reading/1000, (int16_t)voltage_of_r
  89:main.c        **** //        sensor_sum[ch] += voltage_of_reading;
  90:main.c        **** //        voltage_of_reading = 0.0;
  91:main.c        **** //        
  92:main.c        **** //        //check the max and min values and update 
  93:main.c        **** //        if(voltage_of_reading > current_max[ch]){
  94:main.c        **** //            current_max[ch] = voltage_of_reading;
  95:main.c        **** //        
  96:main.c        **** //        }
  97:main.c        **** //        
  98:main.c        **** //        if(voltage_of_reading < current_min[ch]){
  99:main.c        **** //            current_min[ch] = voltage_of_reading; 
 100:main.c        **** //        }
 101:main.c        **** //        
 102:main.c        **** //        sensor_sample_count[ch]++; 
 103:main.c        **** //        
 104:main.c        **** //        if(sensor_sample_count[ch] >= sample_window){
 105:main.c        **** //        
 106:main.c        **** //            //calc the final values   
 107:main.c        **** //            dc_offset[ch] = sensor_sum[ch]/sample_window; 
 108:main.c        **** //            vpp[ch] = current_max[ch] - current_min[ch];
 109:main.c        **** //            
 110:main.c        **** //            sprintf(buffer, "Channel %d: DC: %d.%d%d VPP: %d.%d%d \r\n", ch, (int16_t)dc_offset[c
 111:main.c        **** //            
 112:main.c        **** //                  
 113:main.c        **** //            usbPutString(buffer);
 114:main.c        **** //            //reset the vars
 115:main.c        **** //            sensor_sum[ch] = 0; 
 116:main.c        **** //            current_max[ch] = 0; 
 117:main.c        **** //            current_min[ch] = 0;
 118:main.c        **** //            sensor_sample_count[ch] = 0; 
 119:main.c        **** //        
 120:main.c        **** //        }
 121:main.c        **** //        
 122:main.c        **** //        }
 123:main.c        ****         
 124:main.c        ****         //have a flag/special character as an acknowledgement of the whole packet 
 125:main.c        ****         
 126:main.c        ****         tempBank[0] = 0xFFFF; 
 233              		.loc 1 126 0
 234 003e 124B     		ldr	r3, .L5+8
 235 0040 4FF6FF72 		movw	r2, #65535
ARM GAS  C:\Users\ash750\AppData\Local\Temp\ccwbDard.s 			page 8


 236 0044 1A80     		strh	r2, [r3]	@ movhi
 127:main.c        ****      
 128:main.c        ****         //make a copy of the DMA data 
 129:main.c        ****         memcpy(&tempBank[1], bank1, 50);
 237              		.loc 1 129 0
 238 0046 104A     		ldr	r2, .L5+8
 239 0048 104B     		ldr	r3, .L5+12
 240 004a 901C     		adds	r0, r2, #2
 241 004c 03F13004 		add	r4, r3, #48
 242              	.L3:
 243 0050 0246     		mov	r2, r0
 244 0052 1946     		mov	r1, r3
 245 0054 D1F800E0 		ldr	lr, [r1]	@ unaligned
 246 0058 4E68     		ldr	r6, [r1, #4]	@ unaligned
 247 005a 8D68     		ldr	r5, [r1, #8]	@ unaligned
 248 005c C968     		ldr	r1, [r1, #12]	@ unaligned
 249 005e C2F800E0 		str	lr, [r2]	@ unaligned
 250 0062 5660     		str	r6, [r2, #4]	@ unaligned
 251 0064 9560     		str	r5, [r2, #8]	@ unaligned
 252 0066 D160     		str	r1, [r2, #12]	@ unaligned
 253 0068 1033     		adds	r3, r3, #16
 254 006a 1030     		adds	r0, r0, #16
 255 006c A342     		cmp	r3, r4
 256 006e EFD1     		bne	.L3
 257 0070 0246     		mov	r2, r0
 258 0072 1B88     		ldrh	r3, [r3]	@ unaligned
 259 0074 1380     		strh	r3, [r2]	@ unaligned
 130:main.c        ****         
 131:main.c        ****         //send the entire array as raw binary, so with 26 elements thats about 52 bytes since 2 byt
 132:main.c        ****         usbPutBin(tempBank, PACKET_ELEMENTS); 
 260              		.loc 1 132 0
 261 0076 1A21     		movs	r1, #26
 262 0078 0348     		ldr	r0, .L5+8
 263 007a FFF7FEFF 		bl	usbPutBin
 133:main.c        ****     }   
 264              		.loc 1 133 0
 265 007e D2E7     		b	.L4
 266              	.L6:
 267              		.align	2
 268              	.L5:
 269 0080 00000000 		.word	flag_KB_string
 270 0084 00000000 		.word	line
 271 0088 00000000 		.word	tempBank
 272 008c 00000000 		.word	bank1
 273              		.cfi_endproc
 274              	.LFE64:
 275              		.size	main, .-main
 276              		.section	.text.usbPutString,"ax",%progbits
 277              		.align	2
 278              		.global	usbPutString
 279              		.thumb
 280              		.thumb_func
 281              		.type	usbPutString, %function
 282              	usbPutString:
 283              	.LFB65:
 134:main.c        ****     CyDelay(100);
 135:main.c        **** }
ARM GAS  C:\Users\ash750\AppData\Local\Temp\ccwbDard.s 			page 9


 136:main.c        **** //* ========================================
 137:main.c        **** void usbPutString(char *s)
 138:main.c        **** {
 284              		.loc 1 138 0
 285              		.cfi_startproc
 286              		@ args = 0, pretend = 0, frame = 8
 287              		@ frame_needed = 1, uses_anonymous_args = 0
 288 0000 80B5     		push	{r7, lr}
 289              		.cfi_def_cfa_offset 8
 290              		.cfi_offset 7, -8
 291              		.cfi_offset 14, -4
 292 0002 82B0     		sub	sp, sp, #8
 293              		.cfi_def_cfa_offset 16
 294 0004 00AF     		add	r7, sp, #0
 295              		.cfi_def_cfa_register 7
 296 0006 7860     		str	r0, [r7, #4]
 139:main.c        **** // !! Assumes that *s is a string with allocated space >=64 chars     
 140:main.c        **** //  Since USB implementation retricts data packets to 64 chars, this function truncates the
 141:main.c        **** //  length to 62 char (63rd char is a '!')
 142:main.c        **** 
 143:main.c        **** #ifdef USE_USB     
 144:main.c        ****     while (USBUART_CDCIsReady() == 0);
 297              		.loc 1 144 0
 298 0008 00BF     		nop
 299              	.L8:
 300              		.loc 1 144 0 is_stmt 0 discriminator 1
 301 000a FFF7FEFF 		bl	USBUART_CDCIsReady
 302 000e 0346     		mov	r3, r0
 303 0010 002B     		cmp	r3, #0
 304 0012 FAD0     		beq	.L8
 145:main.c        ****     s[63]='\0';
 305              		.loc 1 145 0 is_stmt 1
 306 0014 7B68     		ldr	r3, [r7, #4]
 307 0016 3F33     		adds	r3, r3, #63
 308 0018 0022     		movs	r2, #0
 309 001a 1A70     		strb	r2, [r3]
 146:main.c        ****     s[62]='!';
 310              		.loc 1 146 0
 311 001c 7B68     		ldr	r3, [r7, #4]
 312 001e 3E33     		adds	r3, r3, #62
 313 0020 2122     		movs	r2, #33
 314 0022 1A70     		strb	r2, [r3]
 147:main.c        ****     USBUART_PutData((uint8*)s,strlen(s));
 315              		.loc 1 147 0
 316 0024 7868     		ldr	r0, [r7, #4]
 317 0026 FFF7FEFF 		bl	strlen
 318 002a 0346     		mov	r3, r0
 319 002c 9BB2     		uxth	r3, r3
 320 002e 1946     		mov	r1, r3
 321 0030 7868     		ldr	r0, [r7, #4]
 322 0032 FFF7FEFF 		bl	USBUART_PutData
 148:main.c        **** #endif
 149:main.c        **** }
 323              		.loc 1 149 0
 324 0036 00BF     		nop
 325 0038 0837     		adds	r7, r7, #8
 326              		.cfi_def_cfa_offset 8
ARM GAS  C:\Users\ash750\AppData\Local\Temp\ccwbDard.s 			page 10


 327 003a BD46     		mov	sp, r7
 328              		.cfi_def_cfa_register 13
 329              		@ sp needed
 330 003c 80BD     		pop	{r7, pc}
 331              		.cfi_endproc
 332              	.LFE65:
 333              		.size	usbPutString, .-usbPutString
 334 003e 00BF     		.section	.text.usbPutChar,"ax",%progbits
 335              		.align	2
 336              		.global	usbPutChar
 337              		.thumb
 338              		.thumb_func
 339              		.type	usbPutChar, %function
 340              	usbPutChar:
 341              	.LFB66:
 150:main.c        **** //* ========================================
 151:main.c        **** void usbPutChar(char c)
 152:main.c        **** {
 342              		.loc 1 152 0
 343              		.cfi_startproc
 344              		@ args = 0, pretend = 0, frame = 8
 345              		@ frame_needed = 1, uses_anonymous_args = 0
 346 0000 80B5     		push	{r7, lr}
 347              		.cfi_def_cfa_offset 8
 348              		.cfi_offset 7, -8
 349              		.cfi_offset 14, -4
 350 0002 82B0     		sub	sp, sp, #8
 351              		.cfi_def_cfa_offset 16
 352 0004 00AF     		add	r7, sp, #0
 353              		.cfi_def_cfa_register 7
 354 0006 0346     		mov	r3, r0
 355 0008 FB71     		strb	r3, [r7, #7]
 153:main.c        **** #ifdef USE_USB     
 154:main.c        ****     while (USBUART_CDCIsReady() == 0);
 356              		.loc 1 154 0
 357 000a 00BF     		nop
 358              	.L10:
 359              		.loc 1 154 0 is_stmt 0 discriminator 1
 360 000c FFF7FEFF 		bl	USBUART_CDCIsReady
 361 0010 0346     		mov	r3, r0
 362 0012 002B     		cmp	r3, #0
 363 0014 FAD0     		beq	.L10
 155:main.c        ****     USBUART_PutChar(c);
 364              		.loc 1 155 0 is_stmt 1
 365 0016 FB79     		ldrb	r3, [r7, #7]	@ zero_extendqisi2
 366 0018 1846     		mov	r0, r3
 367 001a FFF7FEFF 		bl	USBUART_PutChar
 156:main.c        **** #endif    
 157:main.c        **** }
 368              		.loc 1 157 0
 369 001e 00BF     		nop
 370 0020 0837     		adds	r7, r7, #8
 371              		.cfi_def_cfa_offset 8
 372 0022 BD46     		mov	sp, r7
 373              		.cfi_def_cfa_register 13
 374              		@ sp needed
 375 0024 80BD     		pop	{r7, pc}
ARM GAS  C:\Users\ash750\AppData\Local\Temp\ccwbDard.s 			page 11


 376              		.cfi_endproc
 377              	.LFE66:
 378              		.size	usbPutChar, .-usbPutChar
 379 0026 00BF     		.section	.text.usbPutBin,"ax",%progbits
 380              		.align	2
 381              		.global	usbPutBin
 382              		.thumb
 383              		.thumb_func
 384              		.type	usbPutBin, %function
 385              	usbPutBin:
 386              	.LFB67:
 158:main.c        **** 
 159:main.c        **** //* ========================================
 160:main.c        **** 
 161:main.c        **** void usbPutBin(uint16_t *buffer, uint16_t count)
 162:main.c        **** {
 387              		.loc 1 162 0
 388              		.cfi_startproc
 389              		@ args = 0, pretend = 0, frame = 16
 390              		@ frame_needed = 1, uses_anonymous_args = 0
 391 0000 80B5     		push	{r7, lr}
 392              		.cfi_def_cfa_offset 8
 393              		.cfi_offset 7, -8
 394              		.cfi_offset 14, -4
 395 0002 84B0     		sub	sp, sp, #16
 396              		.cfi_def_cfa_offset 24
 397 0004 00AF     		add	r7, sp, #0
 398              		.cfi_def_cfa_register 7
 399 0006 7860     		str	r0, [r7, #4]
 400 0008 0B46     		mov	r3, r1
 401 000a 7B80     		strh	r3, [r7, #2]	@ movhi
 163:main.c        ****     uint16_t totalBytes = count *2; 
 402              		.loc 1 163 0
 403 000c 7B88     		ldrh	r3, [r7, #2]	@ movhi
 404 000e 5B00     		lsls	r3, r3, #1
 405 0010 FB81     		strh	r3, [r7, #14]	@ movhi
 164:main.c        ****     
 165:main.c        ****     #ifdef USE_USB
 166:main.c        ****         //wait until usb ready then send 
 167:main.c        ****         while (USBUART_CDCIsReady() == 0);
 406              		.loc 1 167 0
 407 0012 00BF     		nop
 408              	.L12:
 409              		.loc 1 167 0 is_stmt 0 discriminator 1
 410 0014 FFF7FEFF 		bl	USBUART_CDCIsReady
 411 0018 0346     		mov	r3, r0
 412 001a 002B     		cmp	r3, #0
 413 001c FAD0     		beq	.L12
 168:main.c        ****         USBUART_PutData((uint8*)buffer, totalBytes);
 414              		.loc 1 168 0 is_stmt 1
 415 001e FB89     		ldrh	r3, [r7, #14]
 416 0020 1946     		mov	r1, r3
 417 0022 7868     		ldr	r0, [r7, #4]
 418 0024 FFF7FEFF 		bl	USBUART_PutData
 169:main.c        **** #endif
 170:main.c        ****     
 171:main.c        **** }
ARM GAS  C:\Users\ash750\AppData\Local\Temp\ccwbDard.s 			page 12


 419              		.loc 1 171 0
 420 0028 00BF     		nop
 421 002a 1037     		adds	r7, r7, #16
 422              		.cfi_def_cfa_offset 8
 423 002c BD46     		mov	sp, r7
 424              		.cfi_def_cfa_register 13
 425              		@ sp needed
 426 002e 80BD     		pop	{r7, pc}
 427              		.cfi_endproc
 428              	.LFE67:
 429              		.size	usbPutBin, .-usbPutBin
 430              		.section	.text.handle_usb,"ax",%progbits
 431              		.align	2
 432              		.global	handle_usb
 433              		.thumb
 434              		.thumb_func
 435              		.type	handle_usb, %function
 436              	handle_usb:
 437              	.LFB68:
 172:main.c        **** 
 173:main.c        **** 
 174:main.c        **** //* ========================================
 175:main.c        **** void handle_usb()
 176:main.c        **** {
 438              		.loc 1 176 0
 439              		.cfi_startproc
 440              		@ args = 0, pretend = 0, frame = 8
 441              		@ frame_needed = 1, uses_anonymous_args = 0
 442 0000 80B5     		push	{r7, lr}
 443              		.cfi_def_cfa_offset 8
 444              		.cfi_offset 7, -8
 445              		.cfi_offset 14, -4
 446 0002 82B0     		sub	sp, sp, #8
 447              		.cfi_def_cfa_offset 16
 448 0004 00AF     		add	r7, sp, #0
 449              		.cfi_def_cfa_register 7
 177:main.c        ****     // handles input at terminal, echos it back to the terminal
 178:main.c        ****     // turn echo OFF, key emulation: only CR
 179:main.c        ****     // entered string is made available in 'line' and 'flag_KB_string' is set
 180:main.c        ****     
 181:main.c        ****     static uint8 usbStarted = FALSE;
 182:main.c        ****     static uint16 usbBufCount = 0;
 183:main.c        ****     uint8 c; 
 184:main.c        ****     
 185:main.c        **** 
 186:main.c        ****     if (!usbStarted)
 450              		.loc 1 186 0
 451 0006 2B4B     		ldr	r3, .L23
 452 0008 1B78     		ldrb	r3, [r3]	@ zero_extendqisi2
 453 000a 002B     		cmp	r3, #0
 454 000c 0AD1     		bne	.L14
 187:main.c        ****     {
 188:main.c        ****         if (USBUART_GetConfiguration())
 455              		.loc 1 188 0
 456 000e FFF7FEFF 		bl	USBUART_GetConfiguration
 457 0012 0346     		mov	r3, r0
 458 0014 002B     		cmp	r3, #0
ARM GAS  C:\Users\ash750\AppData\Local\Temp\ccwbDard.s 			page 13


 459 0016 49D0     		beq	.L22
 189:main.c        ****         {
 190:main.c        ****             USBUART_CDC_Init();
 460              		.loc 1 190 0
 461 0018 FFF7FEFF 		bl	USBUART_CDC_Init
 191:main.c        ****             usbStarted = TRUE;
 462              		.loc 1 191 0
 463 001c 254B     		ldr	r3, .L23
 464 001e 0122     		movs	r2, #1
 465 0020 1A70     		strb	r2, [r3]
 192:main.c        ****         }
 193:main.c        ****     }
 194:main.c        ****     else
 195:main.c        ****     {
 196:main.c        ****         if (USBUART_DataIsReady() != 0)
 197:main.c        ****         {  
 198:main.c        ****             c = USBUART_GetChar();
 199:main.c        **** 
 200:main.c        ****             if ((c == 13) || (c == 10))
 201:main.c        ****             {
 202:main.c        **** //                if (usbBufCount > 0)
 203:main.c        ****                 {
 204:main.c        ****                     entry[usbBufCount]= '\0';
 205:main.c        ****                     strcpy(line,entry);
 206:main.c        ****                     usbBufCount = 0;
 207:main.c        ****                     flag_KB_string = 1;
 208:main.c        ****                 }
 209:main.c        ****             }
 210:main.c        ****             else 
 211:main.c        ****             {
 212:main.c        ****                 if (((c == CHAR_BACKSP) || (c == CHAR_DEL) ) && (usbBufCount > 0) )
 213:main.c        ****                     usbBufCount--;
 214:main.c        ****                 else
 215:main.c        ****                 {
 216:main.c        ****                     if (usbBufCount > (BUF_SIZE-2) ) // one less else strtok triggers a crash
 217:main.c        ****                     {
 218:main.c        ****                        USBUART_PutChar('!');        
 219:main.c        ****                     }
 220:main.c        ****                     else
 221:main.c        ****                         entry[usbBufCount++] = c;  
 222:main.c        ****                 }  
 223:main.c        ****             }
 224:main.c        ****         }
 225:main.c        ****     }    
 226:main.c        **** }
 466              		.loc 1 226 0
 467 0022 43E0     		b	.L22
 468              	.L14:
 196:main.c        ****         {  
 469              		.loc 1 196 0
 470 0024 FFF7FEFF 		bl	USBUART_DataIsReady
 471 0028 0346     		mov	r3, r0
 472 002a 002B     		cmp	r3, #0
 473 002c 3ED0     		beq	.L22
 198:main.c        **** 
 474              		.loc 1 198 0
 475 002e FFF7FEFF 		bl	USBUART_GetChar
ARM GAS  C:\Users\ash750\AppData\Local\Temp\ccwbDard.s 			page 14


 476 0032 0346     		mov	r3, r0
 477 0034 FB71     		strb	r3, [r7, #7]
 200:main.c        ****             {
 478              		.loc 1 200 0
 479 0036 FB79     		ldrb	r3, [r7, #7]	@ zero_extendqisi2
 480 0038 0D2B     		cmp	r3, #13
 481 003a 02D0     		beq	.L17
 200:main.c        ****             {
 482              		.loc 1 200 0 is_stmt 0 discriminator 1
 483 003c FB79     		ldrb	r3, [r7, #7]	@ zero_extendqisi2
 484 003e 0A2B     		cmp	r3, #10
 485 0040 10D1     		bne	.L18
 486              	.L17:
 204:main.c        ****                     strcpy(line,entry);
 487              		.loc 1 204 0 is_stmt 1
 488 0042 1D4B     		ldr	r3, .L23+4
 489 0044 1B88     		ldrh	r3, [r3]
 490 0046 1A46     		mov	r2, r3
 491 0048 1C4B     		ldr	r3, .L23+8
 492 004a 0021     		movs	r1, #0
 493 004c 9954     		strb	r1, [r3, r2]
 205:main.c        ****                     usbBufCount = 0;
 494              		.loc 1 205 0
 495 004e 1B49     		ldr	r1, .L23+8
 496 0050 1B48     		ldr	r0, .L23+12
 497 0052 FFF7FEFF 		bl	strcpy
 206:main.c        ****                     flag_KB_string = 1;
 498              		.loc 1 206 0
 499 0056 184B     		ldr	r3, .L23+4
 500 0058 0022     		movs	r2, #0
 501 005a 1A80     		strh	r2, [r3]	@ movhi
 207:main.c        ****                 }
 502              		.loc 1 207 0
 503 005c 194B     		ldr	r3, .L23+16
 504 005e 0122     		movs	r2, #1
 505 0060 1A70     		strb	r2, [r3]
 506 0062 23E0     		b	.L16
 507              	.L18:
 212:main.c        ****                     usbBufCount--;
 508              		.loc 1 212 0
 509 0064 FB79     		ldrb	r3, [r7, #7]	@ zero_extendqisi2
 510 0066 082B     		cmp	r3, #8
 511 0068 02D0     		beq	.L19
 212:main.c        ****                     usbBufCount--;
 512              		.loc 1 212 0 is_stmt 0 discriminator 2
 513 006a FB79     		ldrb	r3, [r7, #7]	@ zero_extendqisi2
 514 006c 7F2B     		cmp	r3, #127
 515 006e 0AD1     		bne	.L20
 516              	.L19:
 212:main.c        ****                     usbBufCount--;
 517              		.loc 1 212 0 discriminator 3
 518 0070 114B     		ldr	r3, .L23+4
 519 0072 1B88     		ldrh	r3, [r3]
 520 0074 002B     		cmp	r3, #0
 521 0076 06D0     		beq	.L20
 213:main.c        ****                 else
 522              		.loc 1 213 0 is_stmt 1
ARM GAS  C:\Users\ash750\AppData\Local\Temp\ccwbDard.s 			page 15


 523 0078 0F4B     		ldr	r3, .L23+4
 524 007a 1B88     		ldrh	r3, [r3]
 525 007c 013B     		subs	r3, r3, #1
 526 007e 9AB2     		uxth	r2, r3
 527 0080 0D4B     		ldr	r3, .L23+4
 528 0082 1A80     		strh	r2, [r3]	@ movhi
 529 0084 12E0     		b	.L16
 530              	.L20:
 216:main.c        ****                     {
 531              		.loc 1 216 0
 532 0086 0C4B     		ldr	r3, .L23+4
 533 0088 1B88     		ldrh	r3, [r3]
 534 008a 3E2B     		cmp	r3, #62
 535 008c 03D9     		bls	.L21
 218:main.c        ****                     }
 536              		.loc 1 218 0
 537 008e 2120     		movs	r0, #33
 538 0090 FFF7FEFF 		bl	USBUART_PutChar
 539              		.loc 1 226 0
 540 0094 0AE0     		b	.L22
 541              	.L21:
 221:main.c        ****                 }  
 542              		.loc 1 221 0
 543 0096 084B     		ldr	r3, .L23+4
 544 0098 1B88     		ldrh	r3, [r3]
 545 009a 5A1C     		adds	r2, r3, #1
 546 009c 91B2     		uxth	r1, r2
 547 009e 064A     		ldr	r2, .L23+4
 548 00a0 1180     		strh	r1, [r2]	@ movhi
 549 00a2 1946     		mov	r1, r3
 550 00a4 054A     		ldr	r2, .L23+8
 551 00a6 FB79     		ldrb	r3, [r7, #7]
 552 00a8 5354     		strb	r3, [r2, r1]
 553              		.loc 1 226 0
 554 00aa FFE7     		b	.L22
 555              	.L16:
 556              	.L22:
 557 00ac 00BF     		nop
 558 00ae 0837     		adds	r7, r7, #8
 559              		.cfi_def_cfa_offset 8
 560 00b0 BD46     		mov	sp, r7
 561              		.cfi_def_cfa_register 13
 562              		@ sp needed
 563 00b2 80BD     		pop	{r7, pc}
 564              	.L24:
 565              		.align	2
 566              	.L23:
 567 00b4 76020000 		.word	usbStarted.7831
 568 00b8 78020000 		.word	usbBufCount.7832
 569 00bc 00000000 		.word	entry
 570 00c0 00000000 		.word	line
 571 00c4 00000000 		.word	flag_KB_string
 572              		.cfi_endproc
 573              	.LFE68:
 574              		.size	handle_usb, .-handle_usb
 575              		.section	.text.init_dma_1_CHAINED,"ax",%progbits
 576              		.align	2
ARM GAS  C:\Users\ash750\AppData\Local\Temp\ccwbDard.s 			page 16


 577              		.global	init_dma_1_CHAINED
 578              		.thumb
 579              		.thumb_func
 580              		.type	init_dma_1_CHAINED, %function
 581              	init_dma_1_CHAINED:
 582              	.LFB69:
 227:main.c        **** #ifdef USE_DMA_CHAINED
 228:main.c        **** void init_dma_1_CHAINED(void)
 229:main.c        **** {
 583              		.loc 1 229 0
 584              		.cfi_startproc
 585              		@ args = 0, pretend = 0, frame = 32
 586              		@ frame_needed = 1, uses_anonymous_args = 0
 587 0000 80B5     		push	{r7, lr}
 588              		.cfi_def_cfa_offset 8
 589              		.cfi_offset 7, -8
 590              		.cfi_offset 14, -4
 591 0002 88B0     		sub	sp, sp, #32
 592              		.cfi_def_cfa_offset 40
 593 0004 00AF     		add	r7, sp, #0
 594              		.cfi_def_cfa_register 7
 230:main.c        **** /* Defines for DMA_1 */
 231:main.c        **** #define DMA_1_BYTES_PER_BURST 2
 232:main.c        **** #define DMA_1_REQUEST_PER_BURST 1
 233:main.c        **** #define DMA_1_SRC_BASE (CYDEV_SRAM_BASE)
 234:main.c        **** #define DMA_1_DST_BASE (CYDEV_SRAM_BASE)
 235:main.c        **** 
 236:main.c        **** /* Variable declarations for DMA_1 */
 237:main.c        **** /* Move these variable declarations to the top of the function */
 238:main.c        **** uint8 DMA_1_Chan;
 239:main.c        **** uint8 DMA_1_TD[25];
 240:main.c        **** 
 241:main.c        **** /* DMA Configuration for DMA_1 */
 242:main.c        **** DMA_1_Chan = DMA_1_DmaInitialize(DMA_1_BYTES_PER_BURST, DMA_1_REQUEST_PER_BURST, 
 595              		.loc 1 242 0
 596 0006 41F6FF73 		movw	r3, #8191
 597 000a 41F6FF72 		movw	r2, #8191
 598 000e 0121     		movs	r1, #1
 599 0010 0220     		movs	r0, #2
 600 0012 FFF7FEFF 		bl	DMA_1_DmaInitialize
 601 0016 0346     		mov	r3, r0
 602 0018 FB77     		strb	r3, [r7, #31]
 243:main.c        ****     HI16(DMA_1_SRC_BASE), HI16(DMA_1_DST_BASE));
 244:main.c        **** DMA_1_TD[0] = CyDmaTdAllocate();
 603              		.loc 1 244 0
 604 001a FFF7FEFF 		bl	CyDmaTdAllocate
 605 001e 0346     		mov	r3, r0
 606 0020 3B71     		strb	r3, [r7, #4]
 245:main.c        **** DMA_1_TD[1] = CyDmaTdAllocate();
 607              		.loc 1 245 0
 608 0022 FFF7FEFF 		bl	CyDmaTdAllocate
 609 0026 0346     		mov	r3, r0
 610 0028 7B71     		strb	r3, [r7, #5]
 246:main.c        **** DMA_1_TD[2] = CyDmaTdAllocate();
 611              		.loc 1 246 0
 612 002a FFF7FEFF 		bl	CyDmaTdAllocate
 613 002e 0346     		mov	r3, r0
ARM GAS  C:\Users\ash750\AppData\Local\Temp\ccwbDard.s 			page 17


 614 0030 BB71     		strb	r3, [r7, #6]
 247:main.c        **** DMA_1_TD[3] = CyDmaTdAllocate();
 615              		.loc 1 247 0
 616 0032 FFF7FEFF 		bl	CyDmaTdAllocate
 617 0036 0346     		mov	r3, r0
 618 0038 FB71     		strb	r3, [r7, #7]
 248:main.c        **** DMA_1_TD[4] = CyDmaTdAllocate();
 619              		.loc 1 248 0
 620 003a FFF7FEFF 		bl	CyDmaTdAllocate
 621 003e 0346     		mov	r3, r0
 622 0040 3B72     		strb	r3, [r7, #8]
 249:main.c        **** DMA_1_TD[5] = CyDmaTdAllocate();
 623              		.loc 1 249 0
 624 0042 FFF7FEFF 		bl	CyDmaTdAllocate
 625 0046 0346     		mov	r3, r0
 626 0048 7B72     		strb	r3, [r7, #9]
 250:main.c        **** DMA_1_TD[6] = CyDmaTdAllocate();
 627              		.loc 1 250 0
 628 004a FFF7FEFF 		bl	CyDmaTdAllocate
 629 004e 0346     		mov	r3, r0
 630 0050 BB72     		strb	r3, [r7, #10]
 251:main.c        **** DMA_1_TD[7] = CyDmaTdAllocate();
 631              		.loc 1 251 0
 632 0052 FFF7FEFF 		bl	CyDmaTdAllocate
 633 0056 0346     		mov	r3, r0
 634 0058 FB72     		strb	r3, [r7, #11]
 252:main.c        **** DMA_1_TD[8] = CyDmaTdAllocate();
 635              		.loc 1 252 0
 636 005a FFF7FEFF 		bl	CyDmaTdAllocate
 637 005e 0346     		mov	r3, r0
 638 0060 3B73     		strb	r3, [r7, #12]
 253:main.c        **** DMA_1_TD[9] = CyDmaTdAllocate();
 639              		.loc 1 253 0
 640 0062 FFF7FEFF 		bl	CyDmaTdAllocate
 641 0066 0346     		mov	r3, r0
 642 0068 7B73     		strb	r3, [r7, #13]
 254:main.c        **** DMA_1_TD[10] = CyDmaTdAllocate();
 643              		.loc 1 254 0
 644 006a FFF7FEFF 		bl	CyDmaTdAllocate
 645 006e 0346     		mov	r3, r0
 646 0070 BB73     		strb	r3, [r7, #14]
 255:main.c        **** DMA_1_TD[11] = CyDmaTdAllocate();
 647              		.loc 1 255 0
 648 0072 FFF7FEFF 		bl	CyDmaTdAllocate
 649 0076 0346     		mov	r3, r0
 650 0078 FB73     		strb	r3, [r7, #15]
 256:main.c        **** DMA_1_TD[12] = CyDmaTdAllocate();
 651              		.loc 1 256 0
 652 007a FFF7FEFF 		bl	CyDmaTdAllocate
 653 007e 0346     		mov	r3, r0
 654 0080 3B74     		strb	r3, [r7, #16]
 257:main.c        **** DMA_1_TD[13] = CyDmaTdAllocate();
 655              		.loc 1 257 0
 656 0082 FFF7FEFF 		bl	CyDmaTdAllocate
 657 0086 0346     		mov	r3, r0
 658 0088 7B74     		strb	r3, [r7, #17]
 258:main.c        **** DMA_1_TD[14] = CyDmaTdAllocate();
ARM GAS  C:\Users\ash750\AppData\Local\Temp\ccwbDard.s 			page 18


 659              		.loc 1 258 0
 660 008a FFF7FEFF 		bl	CyDmaTdAllocate
 661 008e 0346     		mov	r3, r0
 662 0090 BB74     		strb	r3, [r7, #18]
 259:main.c        **** DMA_1_TD[15] = CyDmaTdAllocate();
 663              		.loc 1 259 0
 664 0092 FFF7FEFF 		bl	CyDmaTdAllocate
 665 0096 0346     		mov	r3, r0
 666 0098 FB74     		strb	r3, [r7, #19]
 260:main.c        **** DMA_1_TD[16] = CyDmaTdAllocate();
 667              		.loc 1 260 0
 668 009a FFF7FEFF 		bl	CyDmaTdAllocate
 669 009e 0346     		mov	r3, r0
 670 00a0 3B75     		strb	r3, [r7, #20]
 261:main.c        **** DMA_1_TD[17] = CyDmaTdAllocate();
 671              		.loc 1 261 0
 672 00a2 FFF7FEFF 		bl	CyDmaTdAllocate
 673 00a6 0346     		mov	r3, r0
 674 00a8 7B75     		strb	r3, [r7, #21]
 262:main.c        **** DMA_1_TD[18] = CyDmaTdAllocate();
 675              		.loc 1 262 0
 676 00aa FFF7FEFF 		bl	CyDmaTdAllocate
 677 00ae 0346     		mov	r3, r0
 678 00b0 BB75     		strb	r3, [r7, #22]
 263:main.c        **** DMA_1_TD[19] = CyDmaTdAllocate();
 679              		.loc 1 263 0
 680 00b2 FFF7FEFF 		bl	CyDmaTdAllocate
 681 00b6 0346     		mov	r3, r0
 682 00b8 FB75     		strb	r3, [r7, #23]
 264:main.c        **** DMA_1_TD[20] = CyDmaTdAllocate();
 683              		.loc 1 264 0
 684 00ba FFF7FEFF 		bl	CyDmaTdAllocate
 685 00be 0346     		mov	r3, r0
 686 00c0 3B76     		strb	r3, [r7, #24]
 265:main.c        **** DMA_1_TD[21] = CyDmaTdAllocate();
 687              		.loc 1 265 0
 688 00c2 FFF7FEFF 		bl	CyDmaTdAllocate
 689 00c6 0346     		mov	r3, r0
 690 00c8 7B76     		strb	r3, [r7, #25]
 266:main.c        **** DMA_1_TD[22] = CyDmaTdAllocate();
 691              		.loc 1 266 0
 692 00ca FFF7FEFF 		bl	CyDmaTdAllocate
 693 00ce 0346     		mov	r3, r0
 694 00d0 BB76     		strb	r3, [r7, #26]
 267:main.c        **** DMA_1_TD[23] = CyDmaTdAllocate();
 695              		.loc 1 267 0
 696 00d2 FFF7FEFF 		bl	CyDmaTdAllocate
 697 00d6 0346     		mov	r3, r0
 698 00d8 FB76     		strb	r3, [r7, #27]
 268:main.c        **** DMA_1_TD[24] = CyDmaTdAllocate();
 699              		.loc 1 268 0
 700 00da FFF7FEFF 		bl	CyDmaTdAllocate
 701 00de 0346     		mov	r3, r0
 702 00e0 3B77     		strb	r3, [r7, #28]
 269:main.c        **** 
 270:main.c        **** 
 271:main.c        **** 
ARM GAS  C:\Users\ash750\AppData\Local\Temp\ccwbDard.s 			page 19


 272:main.c        **** 
 273:main.c        **** 
 274:main.c        **** CyDmaTdSetConfiguration(DMA_1_TD[0],  2, DMA_1_TD[1], TD_AUTO_EXEC_NEXT | DMA_1__TD_TERMOUT_EN);
 703              		.loc 1 274 0
 704 00e2 3879     		ldrb	r0, [r7, #4]	@ zero_extendqisi2
 705 00e4 7A79     		ldrb	r2, [r7, #5]	@ zero_extendqisi2
 706 00e6 2423     		movs	r3, #36
 707 00e8 0221     		movs	r1, #2
 708 00ea FFF7FEFF 		bl	CyDmaTdSetConfiguration
 275:main.c        **** CyDmaTdSetConfiguration(DMA_1_TD[1],  2, DMA_1_TD[2], TD_AUTO_EXEC_NEXT | DMA_1__TD_TERMOUT_EN);
 709              		.loc 1 275 0
 710 00ee 7879     		ldrb	r0, [r7, #5]	@ zero_extendqisi2
 711 00f0 BA79     		ldrb	r2, [r7, #6]	@ zero_extendqisi2
 712 00f2 2423     		movs	r3, #36
 713 00f4 0221     		movs	r1, #2
 714 00f6 FFF7FEFF 		bl	CyDmaTdSetConfiguration
 276:main.c        **** CyDmaTdSetConfiguration(DMA_1_TD[2],  2, DMA_1_TD[3], TD_AUTO_EXEC_NEXT | DMA_1__TD_TERMOUT_EN);
 715              		.loc 1 276 0
 716 00fa B879     		ldrb	r0, [r7, #6]	@ zero_extendqisi2
 717 00fc FA79     		ldrb	r2, [r7, #7]	@ zero_extendqisi2
 718 00fe 2423     		movs	r3, #36
 719 0100 0221     		movs	r1, #2
 720 0102 FFF7FEFF 		bl	CyDmaTdSetConfiguration
 277:main.c        **** CyDmaTdSetConfiguration(DMA_1_TD[3],  2, DMA_1_TD[4], TD_AUTO_EXEC_NEXT | DMA_1__TD_TERMOUT_EN);
 721              		.loc 1 277 0
 722 0106 F879     		ldrb	r0, [r7, #7]	@ zero_extendqisi2
 723 0108 3A7A     		ldrb	r2, [r7, #8]	@ zero_extendqisi2
 724 010a 2423     		movs	r3, #36
 725 010c 0221     		movs	r1, #2
 726 010e FFF7FEFF 		bl	CyDmaTdSetConfiguration
 278:main.c        **** CyDmaTdSetConfiguration(DMA_1_TD[4],  2, DMA_1_TD[5], TD_AUTO_EXEC_NEXT | DMA_1__TD_TERMOUT_EN);
 727              		.loc 1 278 0
 728 0112 387A     		ldrb	r0, [r7, #8]	@ zero_extendqisi2
 729 0114 7A7A     		ldrb	r2, [r7, #9]	@ zero_extendqisi2
 730 0116 2423     		movs	r3, #36
 731 0118 0221     		movs	r1, #2
 732 011a FFF7FEFF 		bl	CyDmaTdSetConfiguration
 279:main.c        **** CyDmaTdSetConfiguration(DMA_1_TD[5],  2, DMA_1_TD[6], TD_AUTO_EXEC_NEXT | DMA_1__TD_TERMOUT_EN);
 733              		.loc 1 279 0
 734 011e 787A     		ldrb	r0, [r7, #9]	@ zero_extendqisi2
 735 0120 BA7A     		ldrb	r2, [r7, #10]	@ zero_extendqisi2
 736 0122 2423     		movs	r3, #36
 737 0124 0221     		movs	r1, #2
 738 0126 FFF7FEFF 		bl	CyDmaTdSetConfiguration
 280:main.c        **** CyDmaTdSetConfiguration(DMA_1_TD[6],  2, DMA_1_TD[7], TD_AUTO_EXEC_NEXT | DMA_1__TD_TERMOUT_EN);
 739              		.loc 1 280 0
 740 012a B87A     		ldrb	r0, [r7, #10]	@ zero_extendqisi2
 741 012c FA7A     		ldrb	r2, [r7, #11]	@ zero_extendqisi2
 742 012e 2423     		movs	r3, #36
 743 0130 0221     		movs	r1, #2
 744 0132 FFF7FEFF 		bl	CyDmaTdSetConfiguration
 281:main.c        **** CyDmaTdSetConfiguration(DMA_1_TD[7],  2, DMA_1_TD[8], TD_AUTO_EXEC_NEXT | DMA_1__TD_TERMOUT_EN);
 745              		.loc 1 281 0
 746 0136 F87A     		ldrb	r0, [r7, #11]	@ zero_extendqisi2
 747 0138 3A7B     		ldrb	r2, [r7, #12]	@ zero_extendqisi2
 748 013a 2423     		movs	r3, #36
 749 013c 0221     		movs	r1, #2
ARM GAS  C:\Users\ash750\AppData\Local\Temp\ccwbDard.s 			page 20


 750 013e FFF7FEFF 		bl	CyDmaTdSetConfiguration
 282:main.c        **** CyDmaTdSetConfiguration(DMA_1_TD[8],  2, DMA_1_TD[9], TD_AUTO_EXEC_NEXT | DMA_1__TD_TERMOUT_EN);
 751              		.loc 1 282 0
 752 0142 387B     		ldrb	r0, [r7, #12]	@ zero_extendqisi2
 753 0144 7A7B     		ldrb	r2, [r7, #13]	@ zero_extendqisi2
 754 0146 2423     		movs	r3, #36
 755 0148 0221     		movs	r1, #2
 756 014a FFF7FEFF 		bl	CyDmaTdSetConfiguration
 283:main.c        **** CyDmaTdSetConfiguration(DMA_1_TD[9],  2, DMA_1_TD[10],TD_AUTO_EXEC_NEXT | DMA_1__TD_TERMOUT_EN);
 757              		.loc 1 283 0
 758 014e 787B     		ldrb	r0, [r7, #13]	@ zero_extendqisi2
 759 0150 BA7B     		ldrb	r2, [r7, #14]	@ zero_extendqisi2
 760 0152 2423     		movs	r3, #36
 761 0154 0221     		movs	r1, #2
 762 0156 FFF7FEFF 		bl	CyDmaTdSetConfiguration
 284:main.c        **** CyDmaTdSetConfiguration(DMA_1_TD[10], 2, DMA_1_TD[11],TD_AUTO_EXEC_NEXT | DMA_1__TD_TERMOUT_EN);
 763              		.loc 1 284 0
 764 015a B87B     		ldrb	r0, [r7, #14]	@ zero_extendqisi2
 765 015c FA7B     		ldrb	r2, [r7, #15]	@ zero_extendqisi2
 766 015e 2423     		movs	r3, #36
 767 0160 0221     		movs	r1, #2
 768 0162 FFF7FEFF 		bl	CyDmaTdSetConfiguration
 285:main.c        **** CyDmaTdSetConfiguration(DMA_1_TD[11], 2, DMA_1_TD[12],TD_AUTO_EXEC_NEXT | DMA_1__TD_TERMOUT_EN);
 769              		.loc 1 285 0
 770 0166 F87B     		ldrb	r0, [r7, #15]	@ zero_extendqisi2
 771 0168 3A7C     		ldrb	r2, [r7, #16]	@ zero_extendqisi2
 772 016a 2423     		movs	r3, #36
 773 016c 0221     		movs	r1, #2
 774 016e FFF7FEFF 		bl	CyDmaTdSetConfiguration
 286:main.c        **** CyDmaTdSetConfiguration(DMA_1_TD[12],  2, DMA_1_TD[13], TD_AUTO_EXEC_NEXT | DMA_1__TD_TERMOUT_EN);
 775              		.loc 1 286 0
 776 0172 387C     		ldrb	r0, [r7, #16]	@ zero_extendqisi2
 777 0174 7A7C     		ldrb	r2, [r7, #17]	@ zero_extendqisi2
 778 0176 2423     		movs	r3, #36
 779 0178 0221     		movs	r1, #2
 780 017a FFF7FEFF 		bl	CyDmaTdSetConfiguration
 287:main.c        **** CyDmaTdSetConfiguration(DMA_1_TD[13],  2, DMA_1_TD[14], TD_AUTO_EXEC_NEXT | DMA_1__TD_TERMOUT_EN);
 781              		.loc 1 287 0
 782 017e 787C     		ldrb	r0, [r7, #17]	@ zero_extendqisi2
 783 0180 BA7C     		ldrb	r2, [r7, #18]	@ zero_extendqisi2
 784 0182 2423     		movs	r3, #36
 785 0184 0221     		movs	r1, #2
 786 0186 FFF7FEFF 		bl	CyDmaTdSetConfiguration
 288:main.c        **** CyDmaTdSetConfiguration(DMA_1_TD[14],  2, DMA_1_TD[15], TD_AUTO_EXEC_NEXT | DMA_1__TD_TERMOUT_EN);
 787              		.loc 1 288 0
 788 018a B87C     		ldrb	r0, [r7, #18]	@ zero_extendqisi2
 789 018c FA7C     		ldrb	r2, [r7, #19]	@ zero_extendqisi2
 790 018e 2423     		movs	r3, #36
 791 0190 0221     		movs	r1, #2
 792 0192 FFF7FEFF 		bl	CyDmaTdSetConfiguration
 289:main.c        **** CyDmaTdSetConfiguration(DMA_1_TD[15],  2, DMA_1_TD[16], TD_AUTO_EXEC_NEXT | DMA_1__TD_TERMOUT_EN);
 793              		.loc 1 289 0
 794 0196 F87C     		ldrb	r0, [r7, #19]	@ zero_extendqisi2
 795 0198 3A7D     		ldrb	r2, [r7, #20]	@ zero_extendqisi2
 796 019a 2423     		movs	r3, #36
 797 019c 0221     		movs	r1, #2
 798 019e FFF7FEFF 		bl	CyDmaTdSetConfiguration
ARM GAS  C:\Users\ash750\AppData\Local\Temp\ccwbDard.s 			page 21


 290:main.c        **** CyDmaTdSetConfiguration(DMA_1_TD[16],  2, DMA_1_TD[17], TD_AUTO_EXEC_NEXT | DMA_1__TD_TERMOUT_EN);
 799              		.loc 1 290 0
 800 01a2 387D     		ldrb	r0, [r7, #20]	@ zero_extendqisi2
 801 01a4 7A7D     		ldrb	r2, [r7, #21]	@ zero_extendqisi2
 802 01a6 2423     		movs	r3, #36
 803 01a8 0221     		movs	r1, #2
 804 01aa FFF7FEFF 		bl	CyDmaTdSetConfiguration
 291:main.c        **** CyDmaTdSetConfiguration(DMA_1_TD[17],  2, DMA_1_TD[18], TD_AUTO_EXEC_NEXT | DMA_1__TD_TERMOUT_EN);
 805              		.loc 1 291 0
 806 01ae 787D     		ldrb	r0, [r7, #21]	@ zero_extendqisi2
 807 01b0 BA7D     		ldrb	r2, [r7, #22]	@ zero_extendqisi2
 808 01b2 2423     		movs	r3, #36
 809 01b4 0221     		movs	r1, #2
 810 01b6 FFF7FEFF 		bl	CyDmaTdSetConfiguration
 292:main.c        **** CyDmaTdSetConfiguration(DMA_1_TD[18],  2, DMA_1_TD[19], TD_AUTO_EXEC_NEXT | DMA_1__TD_TERMOUT_EN);
 811              		.loc 1 292 0
 812 01ba B87D     		ldrb	r0, [r7, #22]	@ zero_extendqisi2
 813 01bc FA7D     		ldrb	r2, [r7, #23]	@ zero_extendqisi2
 814 01be 2423     		movs	r3, #36
 815 01c0 0221     		movs	r1, #2
 816 01c2 FFF7FEFF 		bl	CyDmaTdSetConfiguration
 293:main.c        **** CyDmaTdSetConfiguration(DMA_1_TD[19],  2, DMA_1_TD[20], TD_AUTO_EXEC_NEXT | DMA_1__TD_TERMOUT_EN);
 817              		.loc 1 293 0
 818 01c6 F87D     		ldrb	r0, [r7, #23]	@ zero_extendqisi2
 819 01c8 3A7E     		ldrb	r2, [r7, #24]	@ zero_extendqisi2
 820 01ca 2423     		movs	r3, #36
 821 01cc 0221     		movs	r1, #2
 822 01ce FFF7FEFF 		bl	CyDmaTdSetConfiguration
 294:main.c        **** CyDmaTdSetConfiguration(DMA_1_TD[20],  2, DMA_1_TD[21], TD_AUTO_EXEC_NEXT | DMA_1__TD_TERMOUT_EN);
 823              		.loc 1 294 0
 824 01d2 387E     		ldrb	r0, [r7, #24]	@ zero_extendqisi2
 825 01d4 7A7E     		ldrb	r2, [r7, #25]	@ zero_extendqisi2
 826 01d6 2423     		movs	r3, #36
 827 01d8 0221     		movs	r1, #2
 828 01da FFF7FEFF 		bl	CyDmaTdSetConfiguration
 295:main.c        **** CyDmaTdSetConfiguration(DMA_1_TD[21],  2, DMA_1_TD[22],TD_AUTO_EXEC_NEXT | DMA_1__TD_TERMOUT_EN);
 829              		.loc 1 295 0
 830 01de 787E     		ldrb	r0, [r7, #25]	@ zero_extendqisi2
 831 01e0 BA7E     		ldrb	r2, [r7, #26]	@ zero_extendqisi2
 832 01e2 2423     		movs	r3, #36
 833 01e4 0221     		movs	r1, #2
 834 01e6 FFF7FEFF 		bl	CyDmaTdSetConfiguration
 296:main.c        **** CyDmaTdSetConfiguration(DMA_1_TD[22], 2, DMA_1_TD[23],TD_AUTO_EXEC_NEXT | DMA_1__TD_TERMOUT_EN);
 835              		.loc 1 296 0
 836 01ea B87E     		ldrb	r0, [r7, #26]	@ zero_extendqisi2
 837 01ec FA7E     		ldrb	r2, [r7, #27]	@ zero_extendqisi2
 838 01ee 2423     		movs	r3, #36
 839 01f0 0221     		movs	r1, #2
 840 01f2 FFF7FEFF 		bl	CyDmaTdSetConfiguration
 297:main.c        **** CyDmaTdSetConfiguration(DMA_1_TD[23], 2, DMA_1_TD[24],TD_AUTO_EXEC_NEXT | DMA_1__TD_TERMOUT_EN);
 841              		.loc 1 297 0
 842 01f6 F87E     		ldrb	r0, [r7, #27]	@ zero_extendqisi2
 843 01f8 3A7F     		ldrb	r2, [r7, #28]	@ zero_extendqisi2
 844 01fa 2423     		movs	r3, #36
 845 01fc 0221     		movs	r1, #2
 846 01fe FFF7FEFF 		bl	CyDmaTdSetConfiguration
 298:main.c        **** CyDmaTdSetConfiguration(DMA_1_TD[24], 2, DMA_1_TD[0], DMA_1__TD_TERMOUT_EN);
ARM GAS  C:\Users\ash750\AppData\Local\Temp\ccwbDard.s 			page 22


 847              		.loc 1 298 0
 848 0202 387F     		ldrb	r0, [r7, #28]	@ zero_extendqisi2
 849 0204 3A79     		ldrb	r2, [r7, #4]	@ zero_extendqisi2
 850 0206 0423     		movs	r3, #4
 851 0208 0221     		movs	r1, #2
 852 020a FFF7FEFF 		bl	CyDmaTdSetConfiguration
 299:main.c        **** 
 300:main.c        **** CyDmaTdSetAddress(DMA_1_TD[0],   LO16((uint32)&ADC_finalArray[0]),  LO16((uint32)&bank1[24]));
 853              		.loc 1 300 0
 854 020e 3B79     		ldrb	r3, [r7, #4]	@ zero_extendqisi2
 855 0210 6A4A     		ldr	r2, .L26
 856 0212 91B2     		uxth	r1, r2
 857 0214 6A4A     		ldr	r2, .L26+4
 858 0216 92B2     		uxth	r2, r2
 859 0218 1846     		mov	r0, r3
 860 021a FFF7FEFF 		bl	CyDmaTdSetAddress
 301:main.c        **** CyDmaTdSetAddress(DMA_1_TD[1],   LO16((uint32)&ADC_finalArray[1]),  LO16((uint32)&bank1[23]));
 861              		.loc 1 301 0
 862 021e 7B79     		ldrb	r3, [r7, #5]	@ zero_extendqisi2
 863 0220 684A     		ldr	r2, .L26+8
 864 0222 91B2     		uxth	r1, r2
 865 0224 684A     		ldr	r2, .L26+12
 866 0226 92B2     		uxth	r2, r2
 867 0228 1846     		mov	r0, r3
 868 022a FFF7FEFF 		bl	CyDmaTdSetAddress
 302:main.c        **** CyDmaTdSetAddress(DMA_1_TD[2],   LO16((uint32)&ADC_finalArray[2]),  LO16((uint32)&bank1[22]));
 869              		.loc 1 302 0
 870 022e BB79     		ldrb	r3, [r7, #6]	@ zero_extendqisi2
 871 0230 664A     		ldr	r2, .L26+16
 872 0232 91B2     		uxth	r1, r2
 873 0234 664A     		ldr	r2, .L26+20
 874 0236 92B2     		uxth	r2, r2
 875 0238 1846     		mov	r0, r3
 876 023a FFF7FEFF 		bl	CyDmaTdSetAddress
 303:main.c        **** CyDmaTdSetAddress(DMA_1_TD[3],   LO16((uint32)&ADC_finalArray[3]),  LO16((uint32)&bank1[21]));
 877              		.loc 1 303 0
 878 023e FB79     		ldrb	r3, [r7, #7]	@ zero_extendqisi2
 879 0240 644A     		ldr	r2, .L26+24
 880 0242 91B2     		uxth	r1, r2
 881 0244 644A     		ldr	r2, .L26+28
 882 0246 92B2     		uxth	r2, r2
 883 0248 1846     		mov	r0, r3
 884 024a FFF7FEFF 		bl	CyDmaTdSetAddress
 304:main.c        **** CyDmaTdSetAddress(DMA_1_TD[4],   LO16((uint32)&ADC_finalArray[4]),  LO16((uint32)&bank1[20]));
 885              		.loc 1 304 0
 886 024e 3B7A     		ldrb	r3, [r7, #8]	@ zero_extendqisi2
 887 0250 624A     		ldr	r2, .L26+32
 888 0252 91B2     		uxth	r1, r2
 889 0254 624A     		ldr	r2, .L26+36
 890 0256 92B2     		uxth	r2, r2
 891 0258 1846     		mov	r0, r3
 892 025a FFF7FEFF 		bl	CyDmaTdSetAddress
 305:main.c        **** CyDmaTdSetAddress(DMA_1_TD[5],   LO16((uint32)&ADC_finalArray[5]),  LO16((uint32)&bank1[19]));
 893              		.loc 1 305 0
 894 025e 7B7A     		ldrb	r3, [r7, #9]	@ zero_extendqisi2
 895 0260 604A     		ldr	r2, .L26+40
 896 0262 91B2     		uxth	r1, r2
ARM GAS  C:\Users\ash750\AppData\Local\Temp\ccwbDard.s 			page 23


 897 0264 604A     		ldr	r2, .L26+44
 898 0266 92B2     		uxth	r2, r2
 899 0268 1846     		mov	r0, r3
 900 026a FFF7FEFF 		bl	CyDmaTdSetAddress
 306:main.c        **** CyDmaTdSetAddress(DMA_1_TD[6],   LO16((uint32)&ADC_finalArray[6]),  LO16((uint32)&bank1[18]));
 901              		.loc 1 306 0
 902 026e BB7A     		ldrb	r3, [r7, #10]	@ zero_extendqisi2
 903 0270 5E4A     		ldr	r2, .L26+48
 904 0272 91B2     		uxth	r1, r2
 905 0274 5E4A     		ldr	r2, .L26+52
 906 0276 92B2     		uxth	r2, r2
 907 0278 1846     		mov	r0, r3
 908 027a FFF7FEFF 		bl	CyDmaTdSetAddress
 307:main.c        **** CyDmaTdSetAddress(DMA_1_TD[7],   LO16((uint32)&ADC_finalArray[7]),  LO16((uint32)&bank1[17]));
 909              		.loc 1 307 0
 910 027e FB7A     		ldrb	r3, [r7, #11]	@ zero_extendqisi2
 911 0280 5C4A     		ldr	r2, .L26+56
 912 0282 91B2     		uxth	r1, r2
 913 0284 5C4A     		ldr	r2, .L26+60
 914 0286 92B2     		uxth	r2, r2
 915 0288 1846     		mov	r0, r3
 916 028a FFF7FEFF 		bl	CyDmaTdSetAddress
 308:main.c        **** CyDmaTdSetAddress(DMA_1_TD[8],   LO16((uint32)&ADC_finalArray[8]),  LO16((uint32)&bank1[16]));
 917              		.loc 1 308 0
 918 028e 3B7B     		ldrb	r3, [r7, #12]	@ zero_extendqisi2
 919 0290 5A4A     		ldr	r2, .L26+64
 920 0292 91B2     		uxth	r1, r2
 921 0294 5A4A     		ldr	r2, .L26+68
 922 0296 92B2     		uxth	r2, r2
 923 0298 1846     		mov	r0, r3
 924 029a FFF7FEFF 		bl	CyDmaTdSetAddress
 309:main.c        **** CyDmaTdSetAddress(DMA_1_TD[9],   LO16((uint32)&ADC_finalArray[9]),  LO16((uint32)&bank1[15]));
 925              		.loc 1 309 0
 926 029e 7B7B     		ldrb	r3, [r7, #13]	@ zero_extendqisi2
 927 02a0 584A     		ldr	r2, .L26+72
 928 02a2 91B2     		uxth	r1, r2
 929 02a4 584A     		ldr	r2, .L26+76
 930 02a6 92B2     		uxth	r2, r2
 931 02a8 1846     		mov	r0, r3
 932 02aa FFF7FEFF 		bl	CyDmaTdSetAddress
 310:main.c        **** CyDmaTdSetAddress(DMA_1_TD[10],  LO16((uint32)&ADC_finalArray[10]), LO16((uint32)&bank1[14]));
 933              		.loc 1 310 0
 934 02ae BB7B     		ldrb	r3, [r7, #14]	@ zero_extendqisi2
 935 02b0 564A     		ldr	r2, .L26+80
 936 02b2 91B2     		uxth	r1, r2
 937 02b4 564A     		ldr	r2, .L26+84
 938 02b6 92B2     		uxth	r2, r2
 939 02b8 1846     		mov	r0, r3
 940 02ba FFF7FEFF 		bl	CyDmaTdSetAddress
 311:main.c        **** CyDmaTdSetAddress(DMA_1_TD[11],  LO16((uint32)&ADC_finalArray[11]), LO16((uint32)&bank1[13]));
 941              		.loc 1 311 0
 942 02be FB7B     		ldrb	r3, [r7, #15]	@ zero_extendqisi2
 943 02c0 544A     		ldr	r2, .L26+88
 944 02c2 91B2     		uxth	r1, r2
 945 02c4 544A     		ldr	r2, .L26+92
 946 02c6 92B2     		uxth	r2, r2
 947 02c8 1846     		mov	r0, r3
ARM GAS  C:\Users\ash750\AppData\Local\Temp\ccwbDard.s 			page 24


 948 02ca FFF7FEFF 		bl	CyDmaTdSetAddress
 312:main.c        **** CyDmaTdSetAddress(DMA_1_TD[12],  LO16((uint32)&ADC_finalArray[12]), LO16((uint32)&bank1[12]));
 949              		.loc 1 312 0
 950 02ce 3B7C     		ldrb	r3, [r7, #16]	@ zero_extendqisi2
 951 02d0 524A     		ldr	r2, .L26+96
 952 02d2 91B2     		uxth	r1, r2
 953 02d4 524A     		ldr	r2, .L26+100
 954 02d6 92B2     		uxth	r2, r2
 955 02d8 1846     		mov	r0, r3
 956 02da FFF7FEFF 		bl	CyDmaTdSetAddress
 313:main.c        **** CyDmaTdSetAddress(DMA_1_TD[13],  LO16((uint32)&ADC_finalArray[13]),  LO16((uint32)&bank1[11]));
 957              		.loc 1 313 0
 958 02de 7B7C     		ldrb	r3, [r7, #17]	@ zero_extendqisi2
 959 02e0 504A     		ldr	r2, .L26+104
 960 02e2 91B2     		uxth	r1, r2
 961 02e4 504A     		ldr	r2, .L26+108
 962 02e6 92B2     		uxth	r2, r2
 963 02e8 1846     		mov	r0, r3
 964 02ea FFF7FEFF 		bl	CyDmaTdSetAddress
 314:main.c        **** CyDmaTdSetAddress(DMA_1_TD[14],  LO16((uint32)&ADC_finalArray[14]),  LO16((uint32)&bank1[10]));
 965              		.loc 1 314 0
 966 02ee BB7C     		ldrb	r3, [r7, #18]	@ zero_extendqisi2
 967 02f0 4E4A     		ldr	r2, .L26+112
 968 02f2 91B2     		uxth	r1, r2
 969 02f4 4E4A     		ldr	r2, .L26+116
 970 02f6 92B2     		uxth	r2, r2
 971 02f8 1846     		mov	r0, r3
 972 02fa FFF7FEFF 		bl	CyDmaTdSetAddress
 315:main.c        **** CyDmaTdSetAddress(DMA_1_TD[15],  LO16((uint32)&ADC_finalArray[15]),  LO16((uint32)&bank1[9]));
 973              		.loc 1 315 0
 974 02fe FB7C     		ldrb	r3, [r7, #19]	@ zero_extendqisi2
 975 0300 4C4A     		ldr	r2, .L26+120
 976 0302 91B2     		uxth	r1, r2
 977 0304 4C4A     		ldr	r2, .L26+124
 978 0306 92B2     		uxth	r2, r2
 979 0308 1846     		mov	r0, r3
 980 030a FFF7FEFF 		bl	CyDmaTdSetAddress
 316:main.c        **** CyDmaTdSetAddress(DMA_1_TD[16],  LO16((uint32)&ADC_finalArray[16]),  LO16((uint32)&bank1[8]));
 981              		.loc 1 316 0
 982 030e 3B7D     		ldrb	r3, [r7, #20]	@ zero_extendqisi2
 983 0310 4A4A     		ldr	r2, .L26+128
 984 0312 91B2     		uxth	r1, r2
 985 0314 4A4A     		ldr	r2, .L26+132
 986 0316 92B2     		uxth	r2, r2
 987 0318 1846     		mov	r0, r3
 988 031a FFF7FEFF 		bl	CyDmaTdSetAddress
 317:main.c        **** CyDmaTdSetAddress(DMA_1_TD[17],  LO16((uint32)&ADC_finalArray[17]),  LO16((uint32)&bank1[7]));
 989              		.loc 1 317 0
 990 031e 7B7D     		ldrb	r3, [r7, #21]	@ zero_extendqisi2
 991 0320 484A     		ldr	r2, .L26+136
 992 0322 91B2     		uxth	r1, r2
 993 0324 484A     		ldr	r2, .L26+140
 994 0326 92B2     		uxth	r2, r2
 995 0328 1846     		mov	r0, r3
 996 032a FFF7FEFF 		bl	CyDmaTdSetAddress
 318:main.c        **** CyDmaTdSetAddress(DMA_1_TD[18],  LO16((uint32)&ADC_finalArray[18]),  LO16((uint32)&bank1[6]));
 997              		.loc 1 318 0
ARM GAS  C:\Users\ash750\AppData\Local\Temp\ccwbDard.s 			page 25


 998 032e BB7D     		ldrb	r3, [r7, #22]	@ zero_extendqisi2
 999 0330 464A     		ldr	r2, .L26+144
 1000 0332 91B2     		uxth	r1, r2
 1001 0334 464A     		ldr	r2, .L26+148
 1002 0336 92B2     		uxth	r2, r2
 1003 0338 1846     		mov	r0, r3
 1004 033a FFF7FEFF 		bl	CyDmaTdSetAddress
 319:main.c        **** CyDmaTdSetAddress(DMA_1_TD[19],  LO16((uint32)&ADC_finalArray[19]),  LO16((uint32)&bank1[5]));
 1005              		.loc 1 319 0
 1006 033e FB7D     		ldrb	r3, [r7, #23]	@ zero_extendqisi2
 1007 0340 444A     		ldr	r2, .L26+152
 1008 0342 91B2     		uxth	r1, r2
 1009 0344 444A     		ldr	r2, .L26+156
 1010 0346 92B2     		uxth	r2, r2
 1011 0348 1846     		mov	r0, r3
 1012 034a FFF7FEFF 		bl	CyDmaTdSetAddress
 320:main.c        **** CyDmaTdSetAddress(DMA_1_TD[20],  LO16((uint32)&ADC_finalArray[20]),  LO16((uint32)&bank1[4]));
 1013              		.loc 1 320 0
 1014 034e 3B7E     		ldrb	r3, [r7, #24]	@ zero_extendqisi2
 1015 0350 424A     		ldr	r2, .L26+160
 1016 0352 91B2     		uxth	r1, r2
 1017 0354 424A     		ldr	r2, .L26+164
 1018 0356 92B2     		uxth	r2, r2
 1019 0358 1846     		mov	r0, r3
 1020 035a FFF7FEFF 		bl	CyDmaTdSetAddress
 321:main.c        **** CyDmaTdSetAddress(DMA_1_TD[21],  LO16((uint32)&ADC_finalArray[21]),  LO16((uint32)&bank1[3]));
 1021              		.loc 1 321 0
 1022 035e 7B7E     		ldrb	r3, [r7, #25]	@ zero_extendqisi2
 1023 0360 404A     		ldr	r2, .L26+168
 1024 0362 91B2     		uxth	r1, r2
 1025 0364 404A     		ldr	r2, .L26+172
 1026 0366 92B2     		uxth	r2, r2
 1027 0368 1846     		mov	r0, r3
 1028 036a FFF7FEFF 		bl	CyDmaTdSetAddress
 322:main.c        **** CyDmaTdSetAddress(DMA_1_TD[22],  LO16((uint32)&ADC_finalArray[22]),  LO16((uint32)&bank1[2]));
 1029              		.loc 1 322 0
 1030 036e BB7E     		ldrb	r3, [r7, #26]	@ zero_extendqisi2
 1031 0370 3E4A     		ldr	r2, .L26+176
 1032 0372 91B2     		uxth	r1, r2
 1033 0374 3E4A     		ldr	r2, .L26+180
 1034 0376 92B2     		uxth	r2, r2
 1035 0378 1846     		mov	r0, r3
 1036 037a FFF7FEFF 		bl	CyDmaTdSetAddress
 323:main.c        **** CyDmaTdSetAddress(DMA_1_TD[23],  LO16((uint32)&ADC_finalArray[23]), LO16((uint32)&bank1[1]));
 1037              		.loc 1 323 0
 1038 037e FB7E     		ldrb	r3, [r7, #27]	@ zero_extendqisi2
 1039 0380 3C4A     		ldr	r2, .L26+184
 1040 0382 91B2     		uxth	r1, r2
 1041 0384 3C4A     		ldr	r2, .L26+188
 1042 0386 92B2     		uxth	r2, r2
 1043 0388 1846     		mov	r0, r3
 1044 038a FFF7FEFF 		bl	CyDmaTdSetAddress
 324:main.c        **** CyDmaTdSetAddress(DMA_1_TD[24],  LO16((uint32)&ADC_finalArray[24]), LO16((uint32)&bank1[0]));
 1045              		.loc 1 324 0
 1046 038e 3B7F     		ldrb	r3, [r7, #28]	@ zero_extendqisi2
 1047 0390 3A4A     		ldr	r2, .L26+192
 1048 0392 91B2     		uxth	r1, r2
ARM GAS  C:\Users\ash750\AppData\Local\Temp\ccwbDard.s 			page 26


 1049 0394 3A4A     		ldr	r2, .L26+196
 1050 0396 92B2     		uxth	r2, r2
 1051 0398 1846     		mov	r0, r3
 1052 039a FFF7FEFF 		bl	CyDmaTdSetAddress
 325:main.c        **** 
 326:main.c        **** 
 327:main.c        **** CyDmaChSetInitialTd(DMA_1_Chan, DMA_1_TD[0]);
 1053              		.loc 1 327 0
 1054 039e 3A79     		ldrb	r2, [r7, #4]	@ zero_extendqisi2
 1055 03a0 FB7F     		ldrb	r3, [r7, #31]	@ zero_extendqisi2
 1056 03a2 1146     		mov	r1, r2
 1057 03a4 1846     		mov	r0, r3
 1058 03a6 FFF7FEFF 		bl	CyDmaChSetInitialTd
 328:main.c        **** CyDmaChEnable(DMA_1_Chan, 1);
 1059              		.loc 1 328 0
 1060 03aa FB7F     		ldrb	r3, [r7, #31]	@ zero_extendqisi2
 1061 03ac 0121     		movs	r1, #1
 1062 03ae 1846     		mov	r0, r3
 1063 03b0 FFF7FEFF 		bl	CyDmaChEnable
 329:main.c        **** 
 330:main.c        **** }
 1064              		.loc 1 330 0
 1065 03b4 00BF     		nop
 1066 03b6 2037     		adds	r7, r7, #32
 1067              		.cfi_def_cfa_offset 8
 1068 03b8 BD46     		mov	sp, r7
 1069              		.cfi_def_cfa_register 13
 1070              		@ sp needed
 1071 03ba 80BD     		pop	{r7, pc}
 1072              	.L27:
 1073              		.align	2
 1074              	.L26:
 1075 03bc 00000000 		.word	ADC_finalArray
 1076 03c0 30000000 		.word	bank1+48
 1077 03c4 02000000 		.word	ADC_finalArray+2
 1078 03c8 2E000000 		.word	bank1+46
 1079 03cc 04000000 		.word	ADC_finalArray+4
 1080 03d0 2C000000 		.word	bank1+44
 1081 03d4 06000000 		.word	ADC_finalArray+6
 1082 03d8 2A000000 		.word	bank1+42
 1083 03dc 08000000 		.word	ADC_finalArray+8
 1084 03e0 28000000 		.word	bank1+40
 1085 03e4 0A000000 		.word	ADC_finalArray+10
 1086 03e8 26000000 		.word	bank1+38
 1087 03ec 0C000000 		.word	ADC_finalArray+12
 1088 03f0 24000000 		.word	bank1+36
 1089 03f4 0E000000 		.word	ADC_finalArray+14
 1090 03f8 22000000 		.word	bank1+34
 1091 03fc 10000000 		.word	ADC_finalArray+16
 1092 0400 20000000 		.word	bank1+32
 1093 0404 12000000 		.word	ADC_finalArray+18
 1094 0408 1E000000 		.word	bank1+30
 1095 040c 14000000 		.word	ADC_finalArray+20
 1096 0410 1C000000 		.word	bank1+28
 1097 0414 16000000 		.word	ADC_finalArray+22
 1098 0418 1A000000 		.word	bank1+26
 1099 041c 18000000 		.word	ADC_finalArray+24
ARM GAS  C:\Users\ash750\AppData\Local\Temp\ccwbDard.s 			page 27


 1100 0420 18000000 		.word	bank1+24
 1101 0424 1A000000 		.word	ADC_finalArray+26
 1102 0428 16000000 		.word	bank1+22
 1103 042c 1C000000 		.word	ADC_finalArray+28
 1104 0430 14000000 		.word	bank1+20
 1105 0434 1E000000 		.word	ADC_finalArray+30
 1106 0438 12000000 		.word	bank1+18
 1107 043c 20000000 		.word	ADC_finalArray+32
 1108 0440 10000000 		.word	bank1+16
 1109 0444 22000000 		.word	ADC_finalArray+34
 1110 0448 0E000000 		.word	bank1+14
 1111 044c 24000000 		.word	ADC_finalArray+36
 1112 0450 0C000000 		.word	bank1+12
 1113 0454 26000000 		.word	ADC_finalArray+38
 1114 0458 0A000000 		.word	bank1+10
 1115 045c 28000000 		.word	ADC_finalArray+40
 1116 0460 08000000 		.word	bank1+8
 1117 0464 2A000000 		.word	ADC_finalArray+42
 1118 0468 06000000 		.word	bank1+6
 1119 046c 2C000000 		.word	ADC_finalArray+44
 1120 0470 04000000 		.word	bank1+4
 1121 0474 2E000000 		.word	ADC_finalArray+46
 1122 0478 02000000 		.word	bank1+2
 1123 047c 30000000 		.word	ADC_finalArray+48
 1124 0480 00000000 		.word	bank1
 1125              		.cfi_endproc
 1126              	.LFE69:
 1127              		.size	init_dma_1_CHAINED, .-init_dma_1_CHAINED
 1128              		.bss
 1129              	usbStarted.7831:
 1130 0276 00       		.space	1
 1131 0277 00       		.align	1
 1132              	usbBufCount.7832:
 1133 0278 0000     		.space	2
 1134              		.text
 1135              	.Letext0:
 1136              		.file 2 "c:\\program files (x86)\\cypress\\psoc creator\\4.2\\psoc creator\\import\\gnu\\arm\\5.4.
 1137              		.file 3 "c:\\program files (x86)\\cypress\\psoc creator\\4.2\\psoc creator\\import\\gnu\\arm\\5.4.
 1138              		.file 4 "Generated_Source\\PSoC5/cytypes.h"
 1139              		.file 5 "vars.h"
 1140              		.file 6 "Generated_Source\\PSoC5/ADC.h"
 1141              		.file 7 "Generated_Source\\PSoC5/core_cm3.h"
 1142              		.section	.debug_info,"",%progbits
 1143              	.Ldebug_info0:
 1144 0000 C9050000 		.4byte	0x5c9
 1145 0004 0400     		.2byte	0x4
 1146 0006 00000000 		.4byte	.Ldebug_abbrev0
 1147 000a 04       		.byte	0x4
 1148 000b 01       		.uleb128 0x1
 1149 000c 73000000 		.4byte	.LASF85
 1150 0010 0C       		.byte	0xc
 1151 0011 97030000 		.4byte	.LASF86
 1152 0015 41030000 		.4byte	.LASF87
 1153 0019 00000000 		.4byte	.Ldebug_ranges0+0
 1154 001d 00000000 		.4byte	0
 1155 0021 00000000 		.4byte	.Ldebug_line0
 1156 0025 02       		.uleb128 0x2
ARM GAS  C:\Users\ash750\AppData\Local\Temp\ccwbDard.s 			page 28


 1157 0026 01       		.byte	0x1
 1158 0027 06       		.byte	0x6
 1159 0028 42020000 		.4byte	.LASF0
 1160 002c 02       		.uleb128 0x2
 1161 002d 01       		.byte	0x1
 1162 002e 08       		.byte	0x8
 1163 002f 1C020000 		.4byte	.LASF1
 1164 0033 03       		.uleb128 0x3
 1165 0034 F3030000 		.4byte	.LASF3
 1166 0038 02       		.byte	0x2
 1167 0039 29       		.byte	0x29
 1168 003a 3E000000 		.4byte	0x3e
 1169 003e 02       		.uleb128 0x2
 1170 003f 02       		.byte	0x2
 1171 0040 05       		.byte	0x5
 1172 0041 38000000 		.4byte	.LASF2
 1173 0045 03       		.uleb128 0x3
 1174 0046 11010000 		.4byte	.LASF4
 1175 004a 02       		.byte	0x2
 1176 004b 2B       		.byte	0x2b
 1177 004c 50000000 		.4byte	0x50
 1178 0050 02       		.uleb128 0x2
 1179 0051 02       		.byte	0x2
 1180 0052 07       		.byte	0x7
 1181 0053 03030000 		.4byte	.LASF5
 1182 0057 03       		.uleb128 0x3
 1183 0058 D6030000 		.4byte	.LASF6
 1184 005c 02       		.byte	0x2
 1185 005d 3F       		.byte	0x3f
 1186 005e 62000000 		.4byte	0x62
 1187 0062 02       		.uleb128 0x2
 1188 0063 04       		.byte	0x4
 1189 0064 05       		.byte	0x5
 1190 0065 C7010000 		.4byte	.LASF7
 1191 0069 02       		.uleb128 0x2
 1192 006a 04       		.byte	0x4
 1193 006b 07       		.byte	0x7
 1194 006c 9E030000 		.4byte	.LASF8
 1195 0070 02       		.uleb128 0x2
 1196 0071 08       		.byte	0x8
 1197 0072 05       		.byte	0x5
 1198 0073 7D010000 		.4byte	.LASF9
 1199 0077 02       		.uleb128 0x2
 1200 0078 08       		.byte	0x8
 1201 0079 07       		.byte	0x7
 1202 007a 4E020000 		.4byte	.LASF10
 1203 007e 04       		.uleb128 0x4
 1204 007f 04       		.byte	0x4
 1205 0080 05       		.byte	0x5
 1206 0081 696E7400 		.ascii	"int\000"
 1207 0085 02       		.uleb128 0x2
 1208 0086 04       		.byte	0x4
 1209 0087 07       		.byte	0x7
 1210 0088 71020000 		.4byte	.LASF11
 1211 008c 02       		.uleb128 0x2
 1212 008d 08       		.byte	0x8
 1213 008e 04       		.byte	0x4
ARM GAS  C:\Users\ash750\AppData\Local\Temp\ccwbDard.s 			page 29


 1214 008f FE010000 		.4byte	.LASF12
 1215 0093 02       		.uleb128 0x2
 1216 0094 04       		.byte	0x4
 1217 0095 07       		.byte	0x7
 1218 0096 58000000 		.4byte	.LASF13
 1219 009a 05       		.uleb128 0x5
 1220 009b 04       		.byte	0x4
 1221 009c A0000000 		.4byte	0xa0
 1222 00a0 02       		.uleb128 0x2
 1223 00a1 01       		.byte	0x1
 1224 00a2 08       		.byte	0x8
 1225 00a3 D6020000 		.4byte	.LASF14
 1226 00a7 03       		.uleb128 0x3
 1227 00a8 16030000 		.4byte	.LASF15
 1228 00ac 03       		.byte	0x3
 1229 00ad 20       		.byte	0x20
 1230 00ae 33000000 		.4byte	0x33
 1231 00b2 03       		.uleb128 0x3
 1232 00b3 7E020000 		.4byte	.LASF16
 1233 00b7 03       		.byte	0x3
 1234 00b8 24       		.byte	0x24
 1235 00b9 45000000 		.4byte	0x45
 1236 00bd 03       		.uleb128 0x3
 1237 00be E6020000 		.4byte	.LASF17
 1238 00c2 03       		.byte	0x3
 1239 00c3 2C       		.byte	0x2c
 1240 00c4 57000000 		.4byte	0x57
 1241 00c8 06       		.uleb128 0x6
 1242 00c9 51010000 		.4byte	.LASF18
 1243 00cd 04       		.byte	0x4
 1244 00ce E701     		.2byte	0x1e7
 1245 00d0 2C000000 		.4byte	0x2c
 1246 00d4 06       		.uleb128 0x6
 1247 00d5 29010000 		.4byte	.LASF19
 1248 00d9 04       		.byte	0x4
 1249 00da E801     		.2byte	0x1e8
 1250 00dc 50000000 		.4byte	0x50
 1251 00e0 06       		.uleb128 0x6
 1252 00e1 90030000 		.4byte	.LASF20
 1253 00e5 04       		.byte	0x4
 1254 00e6 E901     		.2byte	0x1e9
 1255 00e8 69000000 		.4byte	0x69
 1256 00ec 06       		.uleb128 0x6
 1257 00ed 96010000 		.4byte	.LASF21
 1258 00f1 04       		.byte	0x4
 1259 00f2 EA01     		.2byte	0x1ea
 1260 00f4 25000000 		.4byte	0x25
 1261 00f8 06       		.uleb128 0x6
 1262 00f9 36010000 		.4byte	.LASF22
 1263 00fd 04       		.byte	0x4
 1264 00fe EB01     		.2byte	0x1eb
 1265 0100 3E000000 		.4byte	0x3e
 1266 0104 02       		.uleb128 0x2
 1267 0105 04       		.byte	0x4
 1268 0106 04       		.byte	0x4
 1269 0107 77010000 		.4byte	.LASF23
 1270 010b 02       		.uleb128 0x2
ARM GAS  C:\Users\ash750\AppData\Local\Temp\ccwbDard.s 			page 30


 1271 010c 08       		.byte	0x8
 1272 010d 04       		.byte	0x4
 1273 010e 12000000 		.4byte	.LASF24
 1274 0112 07       		.uleb128 0x7
 1275 0113 CC020000 		.4byte	.LASF88
 1276 0117 20       		.byte	0x20
 1277 0118 05       		.byte	0x5
 1278 0119 29       		.byte	0x29
 1279 011a EB010000 		.4byte	0x1eb
 1280 011e 08       		.uleb128 0x8
 1281 011f 93040000 		.4byte	.LASF25
 1282 0123 05       		.byte	0x5
 1283 0124 2A       		.byte	0x2a
 1284 0125 EC000000 		.4byte	0xec
 1285 0129 00       		.byte	0
 1286 012a 08       		.uleb128 0x8
 1287 012b 30010000 		.4byte	.LASF26
 1288 012f 05       		.byte	0x5
 1289 0130 2B       		.byte	0x2b
 1290 0131 C8000000 		.4byte	0xc8
 1291 0135 01       		.byte	0x1
 1292 0136 08       		.uleb128 0x8
 1293 0137 DB020000 		.4byte	.LASF27
 1294 013b 05       		.byte	0x5
 1295 013c 2C       		.byte	0x2c
 1296 013d F8000000 		.4byte	0xf8
 1297 0141 02       		.byte	0x2
 1298 0142 08       		.uleb128 0x8
 1299 0143 52040000 		.4byte	.LASF28
 1300 0147 05       		.byte	0x5
 1301 0148 2D       		.byte	0x2d
 1302 0149 F8000000 		.4byte	0xf8
 1303 014d 04       		.byte	0x4
 1304 014e 08       		.uleb128 0x8
 1305 014f 98040000 		.4byte	.LASF29
 1306 0153 05       		.byte	0x5
 1307 0154 2E       		.byte	0x2e
 1308 0155 F8000000 		.4byte	0xf8
 1309 0159 06       		.byte	0x6
 1310 015a 08       		.uleb128 0x8
 1311 015b BF010000 		.4byte	.LASF30
 1312 015f 05       		.byte	0x5
 1313 0160 2F       		.byte	0x2f
 1314 0161 F8000000 		.4byte	0xf8
 1315 0165 08       		.byte	0x8
 1316 0166 08       		.uleb128 0x8
 1317 0167 61000000 		.4byte	.LASF31
 1318 016b 05       		.byte	0x5
 1319 016c 30       		.byte	0x30
 1320 016d F8000000 		.4byte	0xf8
 1321 0171 0A       		.byte	0xa
 1322 0172 08       		.uleb128 0x8
 1323 0173 2A020000 		.4byte	.LASF32
 1324 0177 05       		.byte	0x5
 1325 0178 31       		.byte	0x31
 1326 0179 F8000000 		.4byte	0xf8
 1327 017d 0C       		.byte	0xc
ARM GAS  C:\Users\ash750\AppData\Local\Temp\ccwbDard.s 			page 31


 1328 017e 08       		.uleb128 0x8
 1329 017f B2010000 		.4byte	.LASF33
 1330 0183 05       		.byte	0x5
 1331 0184 32       		.byte	0x32
 1332 0185 F8000000 		.4byte	0xf8
 1333 0189 0E       		.byte	0xe
 1334 018a 08       		.uleb128 0x8
 1335 018b B0020000 		.4byte	.LASF34
 1336 018f 05       		.byte	0x5
 1337 0190 33       		.byte	0x33
 1338 0191 F8000000 		.4byte	0xf8
 1339 0195 10       		.byte	0x10
 1340 0196 08       		.uleb128 0x8
 1341 0197 EE020000 		.4byte	.LASF35
 1342 019b 05       		.byte	0x5
 1343 019c 34       		.byte	0x34
 1344 019d F8000000 		.4byte	0xf8
 1345 01a1 12       		.byte	0x12
 1346 01a2 08       		.uleb128 0x8
 1347 01a3 1E030000 		.4byte	.LASF36
 1348 01a7 05       		.byte	0x5
 1349 01a8 35       		.byte	0x35
 1350 01a9 F8000000 		.4byte	0xf8
 1351 01ad 14       		.byte	0x14
 1352 01ae 08       		.uleb128 0x8
 1353 01af 57010000 		.4byte	.LASF37
 1354 01b3 05       		.byte	0x5
 1355 01b4 36       		.byte	0x36
 1356 01b5 F8000000 		.4byte	0xf8
 1357 01b9 16       		.byte	0x16
 1358 01ba 08       		.uleb128 0x8
 1359 01bb 30000000 		.4byte	.LASF38
 1360 01bf 05       		.byte	0x5
 1361 01c0 37       		.byte	0x37
 1362 01c1 F8000000 		.4byte	0xf8
 1363 01c5 18       		.byte	0x18
 1364 01c6 08       		.uleb128 0x8
 1365 01c7 AA010000 		.4byte	.LASF39
 1366 01cb 05       		.byte	0x5
 1367 01cc 38       		.byte	0x38
 1368 01cd F8000000 		.4byte	0xf8
 1369 01d1 1A       		.byte	0x1a
 1370 01d2 08       		.uleb128 0x8
 1371 01d3 98020000 		.4byte	.LASF40
 1372 01d7 05       		.byte	0x5
 1373 01d8 39       		.byte	0x39
 1374 01d9 F8000000 		.4byte	0xf8
 1375 01dd 1C       		.byte	0x1c
 1376 01de 08       		.uleb128 0x8
 1377 01df F6020000 		.4byte	.LASF41
 1378 01e3 05       		.byte	0x5
 1379 01e4 3A       		.byte	0x3a
 1380 01e5 F8000000 		.4byte	0xf8
 1381 01e9 1E       		.byte	0x1e
 1382 01ea 00       		.byte	0
 1383 01eb 09       		.uleb128 0x9
 1384 01ec 01010000 		.4byte	.LASF89
ARM GAS  C:\Users\ash750\AppData\Local\Temp\ccwbDard.s 			page 32


 1385 01f0 01       		.byte	0x1
 1386 01f1 30       		.byte	0x30
 1387 01f2 7E000000 		.4byte	0x7e
 1388 01f6 00000000 		.4byte	.LFB64
 1389 01fa 90000000 		.4byte	.LFE64-.LFB64
 1390 01fe 01       		.uleb128 0x1
 1391 01ff 9C       		.byte	0x9c
 1392 0200 0A       		.uleb128 0xa
 1393 0201 1C010000 		.4byte	.LASF42
 1394 0205 01       		.byte	0x1
 1395 0206 89       		.byte	0x89
 1396 0207 00000000 		.4byte	.LFB65
 1397 020b 3E000000 		.4byte	.LFE65-.LFB65
 1398 020f 01       		.uleb128 0x1
 1399 0210 9C       		.byte	0x9c
 1400 0211 22020000 		.4byte	0x222
 1401 0215 0B       		.uleb128 0xb
 1402 0216 7300     		.ascii	"s\000"
 1403 0218 01       		.byte	0x1
 1404 0219 89       		.byte	0x89
 1405 021a 9A000000 		.4byte	0x9a
 1406 021e 02       		.uleb128 0x2
 1407 021f 91       		.byte	0x91
 1408 0220 74       		.sleb128 -12
 1409 0221 00       		.byte	0
 1410 0222 0A       		.uleb128 0xa
 1411 0223 00000000 		.4byte	.LASF43
 1412 0227 01       		.byte	0x1
 1413 0228 97       		.byte	0x97
 1414 0229 00000000 		.4byte	.LFB66
 1415 022d 26000000 		.4byte	.LFE66-.LFB66
 1416 0231 01       		.uleb128 0x1
 1417 0232 9C       		.byte	0x9c
 1418 0233 44020000 		.4byte	0x244
 1419 0237 0B       		.uleb128 0xb
 1420 0238 6300     		.ascii	"c\000"
 1421 023a 01       		.byte	0x1
 1422 023b 97       		.byte	0x97
 1423 023c A0000000 		.4byte	0xa0
 1424 0240 02       		.uleb128 0x2
 1425 0241 91       		.byte	0x91
 1426 0242 77       		.sleb128 -9
 1427 0243 00       		.byte	0
 1428 0244 0A       		.uleb128 0xa
 1429 0245 17040000 		.4byte	.LASF44
 1430 0249 01       		.byte	0x1
 1431 024a A1       		.byte	0xa1
 1432 024b 00000000 		.4byte	.LFB67
 1433 024f 30000000 		.4byte	.LFE67-.LFB67
 1434 0253 01       		.uleb128 0x1
 1435 0254 9C       		.byte	0x9c
 1436 0255 84020000 		.4byte	0x284
 1437 0259 0C       		.uleb128 0xc
 1438 025a 89030000 		.4byte	.LASF45
 1439 025e 01       		.byte	0x1
 1440 025f A1       		.byte	0xa1
 1441 0260 84020000 		.4byte	0x284
ARM GAS  C:\Users\ash750\AppData\Local\Temp\ccwbDard.s 			page 33


 1442 0264 02       		.uleb128 0x2
 1443 0265 91       		.byte	0x91
 1444 0266 6C       		.sleb128 -20
 1445 0267 0C       		.uleb128 0xc
 1446 0268 C4030000 		.4byte	.LASF46
 1447 026c 01       		.byte	0x1
 1448 026d A1       		.byte	0xa1
 1449 026e B2000000 		.4byte	0xb2
 1450 0272 02       		.uleb128 0x2
 1451 0273 91       		.byte	0x91
 1452 0274 6A       		.sleb128 -22
 1453 0275 0D       		.uleb128 0xd
 1454 0276 87020000 		.4byte	.LASF47
 1455 027a 01       		.byte	0x1
 1456 027b A3       		.byte	0xa3
 1457 027c B2000000 		.4byte	0xb2
 1458 0280 02       		.uleb128 0x2
 1459 0281 91       		.byte	0x91
 1460 0282 76       		.sleb128 -10
 1461 0283 00       		.byte	0
 1462 0284 05       		.uleb128 0x5
 1463 0285 04       		.byte	0x4
 1464 0286 B2000000 		.4byte	0xb2
 1465 028a 0E       		.uleb128 0xe
 1466 028b 2B040000 		.4byte	.LASF90
 1467 028f 01       		.byte	0x1
 1468 0290 AF       		.byte	0xaf
 1469 0291 00000000 		.4byte	.LFB68
 1470 0295 C8000000 		.4byte	.LFE68-.LFB68
 1471 0299 01       		.uleb128 0x1
 1472 029a 9C       		.byte	0x9c
 1473 029b CE020000 		.4byte	0x2ce
 1474 029f 0D       		.uleb128 0xd
 1475 02a0 B0030000 		.4byte	.LASF48
 1476 02a4 01       		.byte	0x1
 1477 02a5 B5       		.byte	0xb5
 1478 02a6 C8000000 		.4byte	0xc8
 1479 02aa 05       		.uleb128 0x5
 1480 02ab 03       		.byte	0x3
 1481 02ac 76020000 		.4byte	usbStarted.7831
 1482 02b0 0D       		.uleb128 0xd
 1483 02b1 0A020000 		.4byte	.LASF49
 1484 02b5 01       		.byte	0x1
 1485 02b6 B6       		.byte	0xb6
 1486 02b7 D4000000 		.4byte	0xd4
 1487 02bb 05       		.uleb128 0x5
 1488 02bc 03       		.byte	0x3
 1489 02bd 78020000 		.4byte	usbBufCount.7832
 1490 02c1 0F       		.uleb128 0xf
 1491 02c2 6300     		.ascii	"c\000"
 1492 02c4 01       		.byte	0x1
 1493 02c5 B7       		.byte	0xb7
 1494 02c6 C8000000 		.4byte	0xc8
 1495 02ca 02       		.uleb128 0x2
 1496 02cb 91       		.byte	0x91
 1497 02cc 77       		.sleb128 -9
 1498 02cd 00       		.byte	0
ARM GAS  C:\Users\ash750\AppData\Local\Temp\ccwbDard.s 			page 34


 1499 02ce 0A       		.uleb128 0xa
 1500 02cf 5D040000 		.4byte	.LASF50
 1501 02d3 01       		.byte	0x1
 1502 02d4 E4       		.byte	0xe4
 1503 02d5 00000000 		.4byte	.LFB69
 1504 02d9 84040000 		.4byte	.LFE69-.LFB69
 1505 02dd 01       		.uleb128 0x1
 1506 02de 9C       		.byte	0x9c
 1507 02df 00030000 		.4byte	0x300
 1508 02e3 0D       		.uleb128 0xd
 1509 02e4 8B010000 		.4byte	.LASF51
 1510 02e8 01       		.byte	0x1
 1511 02e9 EE       		.byte	0xee
 1512 02ea C8000000 		.4byte	0xc8
 1513 02ee 02       		.uleb128 0x2
 1514 02ef 91       		.byte	0x91
 1515 02f0 77       		.sleb128 -9
 1516 02f1 0D       		.uleb128 0xd
 1517 02f2 42000000 		.4byte	.LASF52
 1518 02f6 01       		.byte	0x1
 1519 02f7 EF       		.byte	0xef
 1520 02f8 00030000 		.4byte	0x300
 1521 02fc 02       		.uleb128 0x2
 1522 02fd 91       		.byte	0x91
 1523 02fe 5C       		.sleb128 -36
 1524 02ff 00       		.byte	0
 1525 0300 10       		.uleb128 0x10
 1526 0301 C8000000 		.4byte	0xc8
 1527 0305 10030000 		.4byte	0x310
 1528 0309 11       		.uleb128 0x11
 1529 030a 93000000 		.4byte	0x93
 1530 030e 18       		.byte	0x18
 1531 030f 00       		.byte	0
 1532 0310 10       		.uleb128 0x10
 1533 0311 F8000000 		.4byte	0xf8
 1534 0315 20030000 		.4byte	0x320
 1535 0319 11       		.uleb128 0x11
 1536 031a 93000000 		.4byte	0x93
 1537 031e 18       		.byte	0x18
 1538 031f 00       		.byte	0
 1539 0320 12       		.uleb128 0x12
 1540 0321 FD030000 		.4byte	.LASF53
 1541 0325 06       		.byte	0x6
 1542 0326 21       		.byte	0x21
 1543 0327 10030000 		.4byte	0x310
 1544 032b 13       		.uleb128 0x13
 1545 032c 70040000 		.4byte	.LASF54
 1546 0330 07       		.byte	0x7
 1547 0331 1207     		.2byte	0x712
 1548 0333 37030000 		.4byte	0x337
 1549 0337 14       		.uleb128 0x14
 1550 0338 BD000000 		.4byte	0xbd
 1551 033c 15       		.uleb128 0x15
 1552 033d 747300   		.ascii	"ts\000"
 1553 0340 05       		.byte	0x5
 1554 0341 10       		.byte	0x10
 1555 0342 C8000000 		.4byte	0xc8
ARM GAS  C:\Users\ash750\AppData\Local\Temp\ccwbDard.s 			page 35


 1556 0346 05       		.uleb128 0x5
 1557 0347 03       		.byte	0x3
 1558 0348 00000000 		.4byte	ts
 1559 034c 16       		.uleb128 0x16
 1560 034d 0B000000 		.4byte	.LASF55
 1561 0351 05       		.byte	0x5
 1562 0352 11       		.byte	0x11
 1563 0353 D4000000 		.4byte	0xd4
 1564 0357 05       		.uleb128 0x5
 1565 0358 03       		.byte	0x3
 1566 0359 00000000 		.4byte	ts_enc
 1567 035d 16       		.uleb128 0x16
 1568 035e 21040000 		.4byte	.LASF56
 1569 0362 05       		.byte	0x5
 1570 0363 12       		.byte	0x12
 1571 0364 D4000000 		.4byte	0xd4
 1572 0368 05       		.uleb128 0x5
 1573 0369 03       		.byte	0x3
 1574 036a 00000000 		.4byte	ts_update
 1575 036e 16       		.uleb128 0x16
 1576 036f BB030000 		.4byte	.LASF57
 1577 0373 05       		.byte	0x5
 1578 0374 13       		.byte	0x13
 1579 0375 D4000000 		.4byte	0xd4
 1580 0379 05       		.uleb128 0x5
 1581 037a 03       		.byte	0x3
 1582 037b 00000000 		.4byte	ts_speed
 1583 037f 16       		.uleb128 0x16
 1584 0380 0C040000 		.4byte	.LASF58
 1585 0384 05       		.byte	0x5
 1586 0385 14       		.byte	0x14
 1587 0386 D4000000 		.4byte	0xd4
 1588 038a 05       		.uleb128 0x5
 1589 038b 03       		.byte	0x3
 1590 038c 00000000 		.4byte	ts_display
 1591 0390 16       		.uleb128 0x16
 1592 0391 CA030000 		.4byte	.LASF59
 1593 0395 05       		.byte	0x5
 1594 0396 16       		.byte	0x16
 1595 0397 C8000000 		.4byte	0xc8
 1596 039b 05       		.uleb128 0x5
 1597 039c 03       		.byte	0x3
 1598 039d 00000000 		.4byte	flag_ts_enc
 1599 03a1 16       		.uleb128 0x16
 1600 03a2 9B010000 		.4byte	.LASF60
 1601 03a6 05       		.byte	0x5
 1602 03a7 17       		.byte	0x17
 1603 03a8 C8000000 		.4byte	0xc8
 1604 03ac 05       		.uleb128 0x5
 1605 03ad 03       		.byte	0x3
 1606 03ae 00000000 		.4byte	flag_ts_update
 1607 03b2 16       		.uleb128 0x16
 1608 03b3 22000000 		.4byte	.LASF61
 1609 03b7 05       		.byte	0x5
 1610 03b8 18       		.byte	0x18
 1611 03b9 C8000000 		.4byte	0xc8
 1612 03bd 05       		.uleb128 0x5
ARM GAS  C:\Users\ash750\AppData\Local\Temp\ccwbDard.s 			page 36


 1613 03be 03       		.byte	0x3
 1614 03bf 00000000 		.4byte	flag_ts_speed
 1615 03c3 16       		.uleb128 0x16
 1616 03c4 D0010000 		.4byte	.LASF62
 1617 03c8 05       		.byte	0x5
 1618 03c9 19       		.byte	0x19
 1619 03ca C8000000 		.4byte	0xc8
 1620 03ce 05       		.uleb128 0x5
 1621 03cf 03       		.byte	0x3
 1622 03d0 00000000 		.4byte	flag_ts_display
 1623 03d4 16       		.uleb128 0x16
 1624 03d5 E0010000 		.4byte	.LASF63
 1625 03d9 05       		.byte	0x5
 1626 03da 1C       		.byte	0x1c
 1627 03db C8000000 		.4byte	0xc8
 1628 03df 05       		.uleb128 0x5
 1629 03e0 03       		.byte	0x3
 1630 03e1 00000000 		.4byte	flag_rx
 1631 03e5 16       		.uleb128 0x16
 1632 03e6 35030000 		.4byte	.LASF64
 1633 03ea 05       		.byte	0x5
 1634 03eb 1D       		.byte	0x1d
 1635 03ec C8000000 		.4byte	0xc8
 1636 03f0 05       		.uleb128 0x5
 1637 03f1 03       		.byte	0x3
 1638 03f2 00000000 		.4byte	flag_packet
 1639 03f6 16       		.uleb128 0x16
 1640 03f7 A1020000 		.4byte	.LASF65
 1641 03fb 05       		.byte	0x5
 1642 03fc 1E       		.byte	0x1e
 1643 03fd C8000000 		.4byte	0xc8
 1644 0401 05       		.uleb128 0x5
 1645 0402 03       		.byte	0x3
 1646 0403 00000000 		.4byte	flag_KB_string
 1647 0407 16       		.uleb128 0x16
 1648 0408 33020000 		.4byte	.LASF66
 1649 040c 05       		.byte	0x5
 1650 040d 20       		.byte	0x20
 1651 040e C8000000 		.4byte	0xc8
 1652 0412 05       		.uleb128 0x5
 1653 0413 03       		.byte	0x3
 1654 0414 00000000 		.4byte	dataready_flag
 1655 0418 16       		.uleb128 0x16
 1656 0419 36040000 		.4byte	.LASF67
 1657 041d 05       		.byte	0x5
 1658 041e 22       		.byte	0x22
 1659 041f C8000000 		.4byte	0xc8
 1660 0423 05       		.uleb128 0x5
 1661 0424 03       		.byte	0x3
 1662 0425 00000000 		.4byte	flag_rf_transmission_active
 1663 0429 10       		.uleb128 0x10
 1664 042a A0000000 		.4byte	0xa0
 1665 042e 39040000 		.4byte	0x439
 1666 0432 11       		.uleb128 0x11
 1667 0433 93000000 		.4byte	0x93
 1668 0437 3F       		.byte	0x3f
 1669 0438 00       		.byte	0
ARM GAS  C:\Users\ash750\AppData\Local\Temp\ccwbDard.s 			page 37


 1670 0439 16       		.uleb128 0x16
 1671 043a 27030000 		.4byte	.LASF68
 1672 043e 05       		.byte	0x5
 1673 043f 25       		.byte	0x25
 1674 0440 29040000 		.4byte	0x429
 1675 0444 05       		.uleb128 0x5
 1676 0445 03       		.byte	0x3
 1677 0446 00000000 		.4byte	displaystring
 1678 044a 16       		.uleb128 0x16
 1679 044b 64010000 		.4byte	.LASF69
 1680 044f 05       		.byte	0x5
 1681 0450 26       		.byte	0x26
 1682 0451 29040000 		.4byte	0x429
 1683 0455 05       		.uleb128 0x5
 1684 0456 03       		.byte	0x3
 1685 0457 00000000 		.4byte	line
 1686 045b 16       		.uleb128 0x16
 1687 045c 16020000 		.4byte	.LASF70
 1688 0460 05       		.byte	0x5
 1689 0461 26       		.byte	0x26
 1690 0462 29040000 		.4byte	0x429
 1691 0466 05       		.uleb128 0x5
 1692 0467 03       		.byte	0x3
 1693 0468 00000000 		.4byte	entry
 1694 046c 10       		.uleb128 0x10
 1695 046d C8000000 		.4byte	0xc8
 1696 0471 7C040000 		.4byte	0x47c
 1697 0475 11       		.uleb128 0x11
 1698 0476 93000000 		.4byte	0x93
 1699 047a 3F       		.byte	0x3f
 1700 047b 00       		.byte	0
 1701 047c 16       		.uleb128 0x16
 1702 047d 69000000 		.4byte	.LASF71
 1703 0481 05       		.byte	0x5
 1704 0482 27       		.byte	0x27
 1705 0483 6C040000 		.4byte	0x46c
 1706 0487 05       		.uleb128 0x5
 1707 0488 03       		.byte	0x3
 1708 0489 00000000 		.4byte	usbBuffer
 1709 048d 16       		.uleb128 0x16
 1710 048e 4B000000 		.4byte	.LASF72
 1711 0492 05       		.byte	0x5
 1712 0493 3C       		.byte	0x3c
 1713 0494 12010000 		.4byte	0x112
 1714 0498 05       		.uleb128 0x5
 1715 0499 03       		.byte	0x3
 1716 049a 00000000 		.4byte	system_state
 1717 049e 16       		.uleb128 0x16
 1718 049f 3C010000 		.4byte	.LASF73
 1719 04a3 01       		.byte	0x1
 1720 04a4 20       		.byte	0x20
 1721 04a5 A7000000 		.4byte	0xa7
 1722 04a9 05       		.uleb128 0x5
 1723 04aa 03       		.byte	0x3
 1724 04ab 00000000 		.4byte	result_of_conversion
 1725 04af 16       		.uleb128 0x16
 1726 04b0 89030000 		.4byte	.LASF45
ARM GAS  C:\Users\ash750\AppData\Local\Temp\ccwbDard.s 			page 38


 1727 04b4 01       		.byte	0x1
 1728 04b5 21       		.byte	0x21
 1729 04b6 29040000 		.4byte	0x429
 1730 04ba 05       		.uleb128 0x5
 1731 04bb 03       		.byte	0x3
 1732 04bc 00000000 		.4byte	buffer
 1733 04c0 10       		.uleb128 0x10
 1734 04c1 B2000000 		.4byte	0xb2
 1735 04c5 D0040000 		.4byte	0x4d0
 1736 04c9 11       		.uleb128 0x11
 1737 04ca 93000000 		.4byte	0x93
 1738 04ce 18       		.byte	0x18
 1739 04cf 00       		.byte	0
 1740 04d0 16       		.uleb128 0x16
 1741 04d1 92020000 		.4byte	.LASF74
 1742 04d5 01       		.byte	0x1
 1743 04d6 22       		.byte	0x22
 1744 04d7 C0040000 		.4byte	0x4c0
 1745 04db 05       		.uleb128 0x5
 1746 04dc 03       		.byte	0x3
 1747 04dd 00000000 		.4byte	bank1
 1748 04e1 10       		.uleb128 0x10
 1749 04e2 B2000000 		.4byte	0xb2
 1750 04e6 F1040000 		.4byte	0x4f1
 1751 04ea 11       		.uleb128 0x11
 1752 04eb 93000000 		.4byte	0x93
 1753 04ef 19       		.byte	0x19
 1754 04f0 00       		.byte	0
 1755 04f1 16       		.uleb128 0x16
 1756 04f2 19000000 		.4byte	.LASF75
 1757 04f6 01       		.byte	0x1
 1758 04f7 23       		.byte	0x23
 1759 04f8 E1040000 		.4byte	0x4e1
 1760 04fc 05       		.uleb128 0x5
 1761 04fd 03       		.byte	0x3
 1762 04fe 00000000 		.4byte	tempBank
 1763 0502 16       		.uleb128 0x16
 1764 0503 69010000 		.4byte	.LASF76
 1765 0507 01       		.byte	0x1
 1766 0508 25       		.byte	0x25
 1767 0509 7E000000 		.4byte	0x7e
 1768 050d 05       		.uleb128 0x5
 1769 050e 03       		.byte	0x3
 1770 050f 00000000 		.4byte	sample_window
 1771 0513 16       		.uleb128 0x16
 1772 0514 E0030000 		.4byte	.LASF77
 1773 0518 01       		.byte	0x1
 1774 0519 26       		.byte	0x26
 1775 051a 04010000 		.4byte	0x104
 1776 051e 05       		.uleb128 0x5
 1777 051f 03       		.byte	0x3
 1778 0520 00000000 		.4byte	voltage_of_reading
 1779 0524 10       		.uleb128 0x10
 1780 0525 A7000000 		.4byte	0xa7
 1781 0529 34050000 		.4byte	0x534
 1782 052d 11       		.uleb128 0x11
 1783 052e 93000000 		.4byte	0x93
ARM GAS  C:\Users\ash750\AppData\Local\Temp\ccwbDard.s 			page 39


 1784 0532 18       		.byte	0x18
 1785 0533 00       		.byte	0
 1786 0534 16       		.uleb128 0x16
 1787 0535 7D040000 		.4byte	.LASF78
 1788 0539 01       		.byte	0x1
 1789 053a 27       		.byte	0x27
 1790 053b 24050000 		.4byte	0x524
 1791 053f 05       		.uleb128 0x5
 1792 0540 03       		.byte	0x3
 1793 0541 00000000 		.4byte	sensor_sum
 1794 0545 16       		.uleb128 0x16
 1795 0546 88040000 		.4byte	.LASF79
 1796 054a 01       		.byte	0x1
 1797 054b 28       		.byte	0x28
 1798 054c 24050000 		.4byte	0x524
 1799 0550 05       		.uleb128 0x5
 1800 0551 03       		.byte	0x3
 1801 0552 00000000 		.4byte	sensor_max
 1802 0556 16       		.uleb128 0x16
 1803 0557 06010000 		.4byte	.LASF80
 1804 055b 01       		.byte	0x1
 1805 055c 29       		.byte	0x29
 1806 055d 24050000 		.4byte	0x524
 1807 0561 05       		.uleb128 0x5
 1808 0562 03       		.byte	0x3
 1809 0563 00000000 		.4byte	sensor_min
 1810 0567 10       		.uleb128 0x10
 1811 0568 04010000 		.4byte	0x104
 1812 056c 77050000 		.4byte	0x577
 1813 0570 11       		.uleb128 0x11
 1814 0571 93000000 		.4byte	0x93
 1815 0575 18       		.byte	0x18
 1816 0576 00       		.byte	0
 1817 0577 16       		.uleb128 0x16
 1818 0578 E8010000 		.4byte	.LASF81
 1819 057c 01       		.byte	0x1
 1820 057d 2A       		.byte	0x2a
 1821 057e 67050000 		.4byte	0x567
 1822 0582 05       		.uleb128 0x5
 1823 0583 03       		.byte	0x3
 1824 0584 00000000 		.4byte	current_max
 1825 0588 16       		.uleb128 0x16
 1826 0589 65020000 		.4byte	.LASF82
 1827 058d 01       		.byte	0x1
 1828 058e 2B       		.byte	0x2b
 1829 058f 67050000 		.4byte	0x567
 1830 0593 05       		.uleb128 0x5
 1831 0594 03       		.byte	0x3
 1832 0595 00000000 		.4byte	current_min
 1833 0599 16       		.uleb128 0x16
 1834 059a F4010000 		.4byte	.LASF83
 1835 059e 01       		.byte	0x1
 1836 059f 2C       		.byte	0x2c
 1837 05a0 67050000 		.4byte	0x567
 1838 05a4 05       		.uleb128 0x5
 1839 05a5 03       		.byte	0x3
 1840 05a6 00000000 		.4byte	dc_offset
ARM GAS  C:\Users\ash750\AppData\Local\Temp\ccwbDard.s 			page 40


 1841 05aa 15       		.uleb128 0x15
 1842 05ab 76707000 		.ascii	"vpp\000"
 1843 05af 01       		.byte	0x1
 1844 05b0 2D       		.byte	0x2d
 1845 05b1 67050000 		.4byte	0x567
 1846 05b5 05       		.uleb128 0x5
 1847 05b6 03       		.byte	0x3
 1848 05b7 00000000 		.4byte	vpp
 1849 05bb 16       		.uleb128 0x16
 1850 05bc B8020000 		.4byte	.LASF84
 1851 05c0 01       		.byte	0x1
 1852 05c1 2E       		.byte	0x2e
 1853 05c2 24050000 		.4byte	0x524
 1854 05c6 05       		.uleb128 0x5
 1855 05c7 03       		.byte	0x3
 1856 05c8 00000000 		.4byte	sensor_sample_count
 1857 05cc 00       		.byte	0
 1858              		.section	.debug_abbrev,"",%progbits
 1859              	.Ldebug_abbrev0:
 1860 0000 01       		.uleb128 0x1
 1861 0001 11       		.uleb128 0x11
 1862 0002 01       		.byte	0x1
 1863 0003 25       		.uleb128 0x25
 1864 0004 0E       		.uleb128 0xe
 1865 0005 13       		.uleb128 0x13
 1866 0006 0B       		.uleb128 0xb
 1867 0007 03       		.uleb128 0x3
 1868 0008 0E       		.uleb128 0xe
 1869 0009 1B       		.uleb128 0x1b
 1870 000a 0E       		.uleb128 0xe
 1871 000b 55       		.uleb128 0x55
 1872 000c 17       		.uleb128 0x17
 1873 000d 11       		.uleb128 0x11
 1874 000e 01       		.uleb128 0x1
 1875 000f 10       		.uleb128 0x10
 1876 0010 17       		.uleb128 0x17
 1877 0011 00       		.byte	0
 1878 0012 00       		.byte	0
 1879 0013 02       		.uleb128 0x2
 1880 0014 24       		.uleb128 0x24
 1881 0015 00       		.byte	0
 1882 0016 0B       		.uleb128 0xb
 1883 0017 0B       		.uleb128 0xb
 1884 0018 3E       		.uleb128 0x3e
 1885 0019 0B       		.uleb128 0xb
 1886 001a 03       		.uleb128 0x3
 1887 001b 0E       		.uleb128 0xe
 1888 001c 00       		.byte	0
 1889 001d 00       		.byte	0
 1890 001e 03       		.uleb128 0x3
 1891 001f 16       		.uleb128 0x16
 1892 0020 00       		.byte	0
 1893 0021 03       		.uleb128 0x3
 1894 0022 0E       		.uleb128 0xe
 1895 0023 3A       		.uleb128 0x3a
 1896 0024 0B       		.uleb128 0xb
 1897 0025 3B       		.uleb128 0x3b
ARM GAS  C:\Users\ash750\AppData\Local\Temp\ccwbDard.s 			page 41


 1898 0026 0B       		.uleb128 0xb
 1899 0027 49       		.uleb128 0x49
 1900 0028 13       		.uleb128 0x13
 1901 0029 00       		.byte	0
 1902 002a 00       		.byte	0
 1903 002b 04       		.uleb128 0x4
 1904 002c 24       		.uleb128 0x24
 1905 002d 00       		.byte	0
 1906 002e 0B       		.uleb128 0xb
 1907 002f 0B       		.uleb128 0xb
 1908 0030 3E       		.uleb128 0x3e
 1909 0031 0B       		.uleb128 0xb
 1910 0032 03       		.uleb128 0x3
 1911 0033 08       		.uleb128 0x8
 1912 0034 00       		.byte	0
 1913 0035 00       		.byte	0
 1914 0036 05       		.uleb128 0x5
 1915 0037 0F       		.uleb128 0xf
 1916 0038 00       		.byte	0
 1917 0039 0B       		.uleb128 0xb
 1918 003a 0B       		.uleb128 0xb
 1919 003b 49       		.uleb128 0x49
 1920 003c 13       		.uleb128 0x13
 1921 003d 00       		.byte	0
 1922 003e 00       		.byte	0
 1923 003f 06       		.uleb128 0x6
 1924 0040 16       		.uleb128 0x16
 1925 0041 00       		.byte	0
 1926 0042 03       		.uleb128 0x3
 1927 0043 0E       		.uleb128 0xe
 1928 0044 3A       		.uleb128 0x3a
 1929 0045 0B       		.uleb128 0xb
 1930 0046 3B       		.uleb128 0x3b
 1931 0047 05       		.uleb128 0x5
 1932 0048 49       		.uleb128 0x49
 1933 0049 13       		.uleb128 0x13
 1934 004a 00       		.byte	0
 1935 004b 00       		.byte	0
 1936 004c 07       		.uleb128 0x7
 1937 004d 13       		.uleb128 0x13
 1938 004e 01       		.byte	0x1
 1939 004f 03       		.uleb128 0x3
 1940 0050 0E       		.uleb128 0xe
 1941 0051 0B       		.uleb128 0xb
 1942 0052 0B       		.uleb128 0xb
 1943 0053 3A       		.uleb128 0x3a
 1944 0054 0B       		.uleb128 0xb
 1945 0055 3B       		.uleb128 0x3b
 1946 0056 0B       		.uleb128 0xb
 1947 0057 01       		.uleb128 0x1
 1948 0058 13       		.uleb128 0x13
 1949 0059 00       		.byte	0
 1950 005a 00       		.byte	0
 1951 005b 08       		.uleb128 0x8
 1952 005c 0D       		.uleb128 0xd
 1953 005d 00       		.byte	0
 1954 005e 03       		.uleb128 0x3
ARM GAS  C:\Users\ash750\AppData\Local\Temp\ccwbDard.s 			page 42


 1955 005f 0E       		.uleb128 0xe
 1956 0060 3A       		.uleb128 0x3a
 1957 0061 0B       		.uleb128 0xb
 1958 0062 3B       		.uleb128 0x3b
 1959 0063 0B       		.uleb128 0xb
 1960 0064 49       		.uleb128 0x49
 1961 0065 13       		.uleb128 0x13
 1962 0066 38       		.uleb128 0x38
 1963 0067 0B       		.uleb128 0xb
 1964 0068 00       		.byte	0
 1965 0069 00       		.byte	0
 1966 006a 09       		.uleb128 0x9
 1967 006b 2E       		.uleb128 0x2e
 1968 006c 00       		.byte	0
 1969 006d 3F       		.uleb128 0x3f
 1970 006e 19       		.uleb128 0x19
 1971 006f 03       		.uleb128 0x3
 1972 0070 0E       		.uleb128 0xe
 1973 0071 3A       		.uleb128 0x3a
 1974 0072 0B       		.uleb128 0xb
 1975 0073 3B       		.uleb128 0x3b
 1976 0074 0B       		.uleb128 0xb
 1977 0075 49       		.uleb128 0x49
 1978 0076 13       		.uleb128 0x13
 1979 0077 11       		.uleb128 0x11
 1980 0078 01       		.uleb128 0x1
 1981 0079 12       		.uleb128 0x12
 1982 007a 06       		.uleb128 0x6
 1983 007b 40       		.uleb128 0x40
 1984 007c 18       		.uleb128 0x18
 1985 007d 9642     		.uleb128 0x2116
 1986 007f 19       		.uleb128 0x19
 1987 0080 00       		.byte	0
 1988 0081 00       		.byte	0
 1989 0082 0A       		.uleb128 0xa
 1990 0083 2E       		.uleb128 0x2e
 1991 0084 01       		.byte	0x1
 1992 0085 3F       		.uleb128 0x3f
 1993 0086 19       		.uleb128 0x19
 1994 0087 03       		.uleb128 0x3
 1995 0088 0E       		.uleb128 0xe
 1996 0089 3A       		.uleb128 0x3a
 1997 008a 0B       		.uleb128 0xb
 1998 008b 3B       		.uleb128 0x3b
 1999 008c 0B       		.uleb128 0xb
 2000 008d 27       		.uleb128 0x27
 2001 008e 19       		.uleb128 0x19
 2002 008f 11       		.uleb128 0x11
 2003 0090 01       		.uleb128 0x1
 2004 0091 12       		.uleb128 0x12
 2005 0092 06       		.uleb128 0x6
 2006 0093 40       		.uleb128 0x40
 2007 0094 18       		.uleb128 0x18
 2008 0095 9642     		.uleb128 0x2116
 2009 0097 19       		.uleb128 0x19
 2010 0098 01       		.uleb128 0x1
 2011 0099 13       		.uleb128 0x13
ARM GAS  C:\Users\ash750\AppData\Local\Temp\ccwbDard.s 			page 43


 2012 009a 00       		.byte	0
 2013 009b 00       		.byte	0
 2014 009c 0B       		.uleb128 0xb
 2015 009d 05       		.uleb128 0x5
 2016 009e 00       		.byte	0
 2017 009f 03       		.uleb128 0x3
 2018 00a0 08       		.uleb128 0x8
 2019 00a1 3A       		.uleb128 0x3a
 2020 00a2 0B       		.uleb128 0xb
 2021 00a3 3B       		.uleb128 0x3b
 2022 00a4 0B       		.uleb128 0xb
 2023 00a5 49       		.uleb128 0x49
 2024 00a6 13       		.uleb128 0x13
 2025 00a7 02       		.uleb128 0x2
 2026 00a8 18       		.uleb128 0x18
 2027 00a9 00       		.byte	0
 2028 00aa 00       		.byte	0
 2029 00ab 0C       		.uleb128 0xc
 2030 00ac 05       		.uleb128 0x5
 2031 00ad 00       		.byte	0
 2032 00ae 03       		.uleb128 0x3
 2033 00af 0E       		.uleb128 0xe
 2034 00b0 3A       		.uleb128 0x3a
 2035 00b1 0B       		.uleb128 0xb
 2036 00b2 3B       		.uleb128 0x3b
 2037 00b3 0B       		.uleb128 0xb
 2038 00b4 49       		.uleb128 0x49
 2039 00b5 13       		.uleb128 0x13
 2040 00b6 02       		.uleb128 0x2
 2041 00b7 18       		.uleb128 0x18
 2042 00b8 00       		.byte	0
 2043 00b9 00       		.byte	0
 2044 00ba 0D       		.uleb128 0xd
 2045 00bb 34       		.uleb128 0x34
 2046 00bc 00       		.byte	0
 2047 00bd 03       		.uleb128 0x3
 2048 00be 0E       		.uleb128 0xe
 2049 00bf 3A       		.uleb128 0x3a
 2050 00c0 0B       		.uleb128 0xb
 2051 00c1 3B       		.uleb128 0x3b
 2052 00c2 0B       		.uleb128 0xb
 2053 00c3 49       		.uleb128 0x49
 2054 00c4 13       		.uleb128 0x13
 2055 00c5 02       		.uleb128 0x2
 2056 00c6 18       		.uleb128 0x18
 2057 00c7 00       		.byte	0
 2058 00c8 00       		.byte	0
 2059 00c9 0E       		.uleb128 0xe
 2060 00ca 2E       		.uleb128 0x2e
 2061 00cb 01       		.byte	0x1
 2062 00cc 3F       		.uleb128 0x3f
 2063 00cd 19       		.uleb128 0x19
 2064 00ce 03       		.uleb128 0x3
 2065 00cf 0E       		.uleb128 0xe
 2066 00d0 3A       		.uleb128 0x3a
 2067 00d1 0B       		.uleb128 0xb
 2068 00d2 3B       		.uleb128 0x3b
ARM GAS  C:\Users\ash750\AppData\Local\Temp\ccwbDard.s 			page 44


 2069 00d3 0B       		.uleb128 0xb
 2070 00d4 11       		.uleb128 0x11
 2071 00d5 01       		.uleb128 0x1
 2072 00d6 12       		.uleb128 0x12
 2073 00d7 06       		.uleb128 0x6
 2074 00d8 40       		.uleb128 0x40
 2075 00d9 18       		.uleb128 0x18
 2076 00da 9642     		.uleb128 0x2116
 2077 00dc 19       		.uleb128 0x19
 2078 00dd 01       		.uleb128 0x1
 2079 00de 13       		.uleb128 0x13
 2080 00df 00       		.byte	0
 2081 00e0 00       		.byte	0
 2082 00e1 0F       		.uleb128 0xf
 2083 00e2 34       		.uleb128 0x34
 2084 00e3 00       		.byte	0
 2085 00e4 03       		.uleb128 0x3
 2086 00e5 08       		.uleb128 0x8
 2087 00e6 3A       		.uleb128 0x3a
 2088 00e7 0B       		.uleb128 0xb
 2089 00e8 3B       		.uleb128 0x3b
 2090 00e9 0B       		.uleb128 0xb
 2091 00ea 49       		.uleb128 0x49
 2092 00eb 13       		.uleb128 0x13
 2093 00ec 02       		.uleb128 0x2
 2094 00ed 18       		.uleb128 0x18
 2095 00ee 00       		.byte	0
 2096 00ef 00       		.byte	0
 2097 00f0 10       		.uleb128 0x10
 2098 00f1 01       		.uleb128 0x1
 2099 00f2 01       		.byte	0x1
 2100 00f3 49       		.uleb128 0x49
 2101 00f4 13       		.uleb128 0x13
 2102 00f5 01       		.uleb128 0x1
 2103 00f6 13       		.uleb128 0x13
 2104 00f7 00       		.byte	0
 2105 00f8 00       		.byte	0
 2106 00f9 11       		.uleb128 0x11
 2107 00fa 21       		.uleb128 0x21
 2108 00fb 00       		.byte	0
 2109 00fc 49       		.uleb128 0x49
 2110 00fd 13       		.uleb128 0x13
 2111 00fe 2F       		.uleb128 0x2f
 2112 00ff 0B       		.uleb128 0xb
 2113 0100 00       		.byte	0
 2114 0101 00       		.byte	0
 2115 0102 12       		.uleb128 0x12
 2116 0103 34       		.uleb128 0x34
 2117 0104 00       		.byte	0
 2118 0105 03       		.uleb128 0x3
 2119 0106 0E       		.uleb128 0xe
 2120 0107 3A       		.uleb128 0x3a
 2121 0108 0B       		.uleb128 0xb
 2122 0109 3B       		.uleb128 0x3b
 2123 010a 0B       		.uleb128 0xb
 2124 010b 49       		.uleb128 0x49
 2125 010c 13       		.uleb128 0x13
ARM GAS  C:\Users\ash750\AppData\Local\Temp\ccwbDard.s 			page 45


 2126 010d 3F       		.uleb128 0x3f
 2127 010e 19       		.uleb128 0x19
 2128 010f 3C       		.uleb128 0x3c
 2129 0110 19       		.uleb128 0x19
 2130 0111 00       		.byte	0
 2131 0112 00       		.byte	0
 2132 0113 13       		.uleb128 0x13
 2133 0114 34       		.uleb128 0x34
 2134 0115 00       		.byte	0
 2135 0116 03       		.uleb128 0x3
 2136 0117 0E       		.uleb128 0xe
 2137 0118 3A       		.uleb128 0x3a
 2138 0119 0B       		.uleb128 0xb
 2139 011a 3B       		.uleb128 0x3b
 2140 011b 05       		.uleb128 0x5
 2141 011c 49       		.uleb128 0x49
 2142 011d 13       		.uleb128 0x13
 2143 011e 3F       		.uleb128 0x3f
 2144 011f 19       		.uleb128 0x19
 2145 0120 3C       		.uleb128 0x3c
 2146 0121 19       		.uleb128 0x19
 2147 0122 00       		.byte	0
 2148 0123 00       		.byte	0
 2149 0124 14       		.uleb128 0x14
 2150 0125 35       		.uleb128 0x35
 2151 0126 00       		.byte	0
 2152 0127 49       		.uleb128 0x49
 2153 0128 13       		.uleb128 0x13
 2154 0129 00       		.byte	0
 2155 012a 00       		.byte	0
 2156 012b 15       		.uleb128 0x15
 2157 012c 34       		.uleb128 0x34
 2158 012d 00       		.byte	0
 2159 012e 03       		.uleb128 0x3
 2160 012f 08       		.uleb128 0x8
 2161 0130 3A       		.uleb128 0x3a
 2162 0131 0B       		.uleb128 0xb
 2163 0132 3B       		.uleb128 0x3b
 2164 0133 0B       		.uleb128 0xb
 2165 0134 49       		.uleb128 0x49
 2166 0135 13       		.uleb128 0x13
 2167 0136 3F       		.uleb128 0x3f
 2168 0137 19       		.uleb128 0x19
 2169 0138 02       		.uleb128 0x2
 2170 0139 18       		.uleb128 0x18
 2171 013a 00       		.byte	0
 2172 013b 00       		.byte	0
 2173 013c 16       		.uleb128 0x16
 2174 013d 34       		.uleb128 0x34
 2175 013e 00       		.byte	0
 2176 013f 03       		.uleb128 0x3
 2177 0140 0E       		.uleb128 0xe
 2178 0141 3A       		.uleb128 0x3a
 2179 0142 0B       		.uleb128 0xb
 2180 0143 3B       		.uleb128 0x3b
 2181 0144 0B       		.uleb128 0xb
 2182 0145 49       		.uleb128 0x49
ARM GAS  C:\Users\ash750\AppData\Local\Temp\ccwbDard.s 			page 46


 2183 0146 13       		.uleb128 0x13
 2184 0147 3F       		.uleb128 0x3f
 2185 0148 19       		.uleb128 0x19
 2186 0149 02       		.uleb128 0x2
 2187 014a 18       		.uleb128 0x18
 2188 014b 00       		.byte	0
 2189 014c 00       		.byte	0
 2190 014d 00       		.byte	0
 2191              		.section	.debug_aranges,"",%progbits
 2192 0000 44000000 		.4byte	0x44
 2193 0004 0200     		.2byte	0x2
 2194 0006 00000000 		.4byte	.Ldebug_info0
 2195 000a 04       		.byte	0x4
 2196 000b 00       		.byte	0
 2197 000c 0000     		.2byte	0
 2198 000e 0000     		.2byte	0
 2199 0010 00000000 		.4byte	.LFB64
 2200 0014 90000000 		.4byte	.LFE64-.LFB64
 2201 0018 00000000 		.4byte	.LFB65
 2202 001c 3E000000 		.4byte	.LFE65-.LFB65
 2203 0020 00000000 		.4byte	.LFB66
 2204 0024 26000000 		.4byte	.LFE66-.LFB66
 2205 0028 00000000 		.4byte	.LFB67
 2206 002c 30000000 		.4byte	.LFE67-.LFB67
 2207 0030 00000000 		.4byte	.LFB68
 2208 0034 C8000000 		.4byte	.LFE68-.LFB68
 2209 0038 00000000 		.4byte	.LFB69
 2210 003c 84040000 		.4byte	.LFE69-.LFB69
 2211 0040 00000000 		.4byte	0
 2212 0044 00000000 		.4byte	0
 2213              		.section	.debug_ranges,"",%progbits
 2214              	.Ldebug_ranges0:
 2215 0000 00000000 		.4byte	.LFB64
 2216 0004 90000000 		.4byte	.LFE64
 2217 0008 00000000 		.4byte	.LFB65
 2218 000c 3E000000 		.4byte	.LFE65
 2219 0010 00000000 		.4byte	.LFB66
 2220 0014 26000000 		.4byte	.LFE66
 2221 0018 00000000 		.4byte	.LFB67
 2222 001c 30000000 		.4byte	.LFE67
 2223 0020 00000000 		.4byte	.LFB68
 2224 0024 C8000000 		.4byte	.LFE68
 2225 0028 00000000 		.4byte	.LFB69
 2226 002c 84040000 		.4byte	.LFE69
 2227 0030 00000000 		.4byte	0
 2228 0034 00000000 		.4byte	0
 2229              		.section	.debug_line,"",%progbits
 2230              	.Ldebug_line0:
 2231 0000 74020000 		.section	.debug_str,"MS",%progbits,1
 2231      02005F01 
 2231      00000201 
 2231      FB0E0D00 
 2231      01010101 
 2232              	.LASF43:
 2233 0000 75736250 		.ascii	"usbPutChar\000"
 2233      75744368 
 2233      617200
ARM GAS  C:\Users\ash750\AppData\Local\Temp\ccwbDard.s 			page 47


 2234              	.LASF55:
 2235 000b 74735F65 		.ascii	"ts_enc\000"
 2235      6E6300
 2236              	.LASF24:
 2237 0012 646F7562 		.ascii	"double\000"
 2237      6C6500
 2238              	.LASF75:
 2239 0019 74656D70 		.ascii	"tempBank\000"
 2239      42616E6B 
 2239      00
 2240              	.LASF61:
 2241 0022 666C6167 		.ascii	"flag_ts_speed\000"
 2241      5F74735F 
 2241      73706565 
 2241      6400
 2242              	.LASF38:
 2243 0030 67325F78 		.ascii	"g2_xpos\000"
 2243      706F7300 
 2244              	.LASF2:
 2245 0038 73686F72 		.ascii	"short int\000"
 2245      7420696E 
 2245      7400
 2246              	.LASF52:
 2247 0042 444D415F 		.ascii	"DMA_1_TD\000"
 2247      315F5444 
 2247      00
 2248              	.LASF72:
 2249 004b 73797374 		.ascii	"system_state\000"
 2249      656D5F73 
 2249      74617465 
 2249      00
 2250              	.LASF13:
 2251 0058 73697A65 		.ascii	"sizetype\000"
 2251      74797065 
 2251      00
 2252              	.LASF31:
 2253 0061 67305F79 		.ascii	"g0_ypos\000"
 2253      706F7300 
 2254              	.LASF71:
 2255 0069 75736242 		.ascii	"usbBuffer\000"
 2255      75666665 
 2255      7200
 2256              	.LASF85:
 2257 0073 474E5520 		.ascii	"GNU C11 5.4.1 20160609 (release) [ARM/embedded-5-br"
 2257      43313120 
 2257      352E342E 
 2257      31203230 
 2257      31363036 
 2258 00a6 616E6368 		.ascii	"anch revision 237715] -mcpu=cortex-m3 -mthumb -g -O"
 2258      20726576 
 2258      6973696F 
 2258      6E203233 
 2258      37373135 
 2259 00d9 30202D66 		.ascii	"0 -ffunction-sections -ffat-lto-objects\000"
 2259      66756E63 
 2259      74696F6E 
 2259      2D736563 
ARM GAS  C:\Users\ash750\AppData\Local\Temp\ccwbDard.s 			page 48


 2259      74696F6E 
 2260              	.LASF89:
 2261 0101 6D61696E 		.ascii	"main\000"
 2261      00
 2262              	.LASF80:
 2263 0106 73656E73 		.ascii	"sensor_min\000"
 2263      6F725F6D 
 2263      696E00
 2264              	.LASF4:
 2265 0111 5F5F7569 		.ascii	"__uint16_t\000"
 2265      6E743136 
 2265      5F7400
 2266              	.LASF42:
 2267 011c 75736250 		.ascii	"usbPutString\000"
 2267      75745374 
 2267      72696E67 
 2267      00
 2268              	.LASF19:
 2269 0129 75696E74 		.ascii	"uint16\000"
 2269      313600
 2270              	.LASF26:
 2271 0130 696E6465 		.ascii	"index\000"
 2271      7800
 2272              	.LASF22:
 2273 0136 696E7431 		.ascii	"int16\000"
 2273      3600
 2274              	.LASF73:
 2275 013c 72657375 		.ascii	"result_of_conversion\000"
 2275      6C745F6F 
 2275      665F636F 
 2275      6E766572 
 2275      73696F6E 
 2276              	.LASF18:
 2277 0151 75696E74 		.ascii	"uint8\000"
 2277      3800
 2278              	.LASF37:
 2279 0157 67315F64 		.ascii	"g1_direction\000"
 2279      69726563 
 2279      74696F6E 
 2279      00
 2280              	.LASF69:
 2281 0164 6C696E65 		.ascii	"line\000"
 2281      00
 2282              	.LASF76:
 2283 0169 73616D70 		.ascii	"sample_window\000"
 2283      6C655F77 
 2283      696E646F 
 2283      7700
 2284              	.LASF23:
 2285 0177 666C6F61 		.ascii	"float\000"
 2285      7400
 2286              	.LASF9:
 2287 017d 6C6F6E67 		.ascii	"long long int\000"
 2287      206C6F6E 
 2287      6720696E 
 2287      7400
 2288              	.LASF51:
ARM GAS  C:\Users\ash750\AppData\Local\Temp\ccwbDard.s 			page 49


 2289 018b 444D415F 		.ascii	"DMA_1_Chan\000"
 2289      315F4368 
 2289      616E00
 2290              	.LASF21:
 2291 0196 696E7438 		.ascii	"int8\000"
 2291      00
 2292              	.LASF60:
 2293 019b 666C6167 		.ascii	"flag_ts_update\000"
 2293      5F74735F 
 2293      75706461 
 2293      746500
 2294              	.LASF39:
 2295 01aa 67325F79 		.ascii	"g2_ypos\000"
 2295      706F7300 
 2296              	.LASF33:
 2297 01b2 67305F64 		.ascii	"g0_direction\000"
 2297      69726563 
 2297      74696F6E 
 2297      00
 2298              	.LASF30:
 2299 01bf 67305F78 		.ascii	"g0_xpos\000"
 2299      706F7300 
 2300              	.LASF7:
 2301 01c7 6C6F6E67 		.ascii	"long int\000"
 2301      20696E74 
 2301      00
 2302              	.LASF62:
 2303 01d0 666C6167 		.ascii	"flag_ts_display\000"
 2303      5F74735F 
 2303      64697370 
 2303      6C617900 
 2304              	.LASF63:
 2305 01e0 666C6167 		.ascii	"flag_rx\000"
 2305      5F727800 
 2306              	.LASF81:
 2307 01e8 63757272 		.ascii	"current_max\000"
 2307      656E745F 
 2307      6D617800 
 2308              	.LASF83:
 2309 01f4 64635F6F 		.ascii	"dc_offset\000"
 2309      66667365 
 2309      7400
 2310              	.LASF12:
 2311 01fe 6C6F6E67 		.ascii	"long double\000"
 2311      20646F75 
 2311      626C6500 
 2312              	.LASF49:
 2313 020a 75736242 		.ascii	"usbBufCount\000"
 2313      7566436F 
 2313      756E7400 
 2314              	.LASF70:
 2315 0216 656E7472 		.ascii	"entry\000"
 2315      7900
 2316              	.LASF1:
 2317 021c 756E7369 		.ascii	"unsigned char\000"
 2317      676E6564 
 2317      20636861 
ARM GAS  C:\Users\ash750\AppData\Local\Temp\ccwbDard.s 			page 50


 2317      7200
 2318              	.LASF32:
 2319 022a 67305F73 		.ascii	"g0_speed\000"
 2319      70656564 
 2319      00
 2320              	.LASF66:
 2321 0233 64617461 		.ascii	"dataready_flag\000"
 2321      72656164 
 2321      795F666C 
 2321      616700
 2322              	.LASF0:
 2323 0242 7369676E 		.ascii	"signed char\000"
 2323      65642063 
 2323      68617200 
 2324              	.LASF10:
 2325 024e 6C6F6E67 		.ascii	"long long unsigned int\000"
 2325      206C6F6E 
 2325      6720756E 
 2325      7369676E 
 2325      65642069 
 2326              	.LASF82:
 2327 0265 63757272 		.ascii	"current_min\000"
 2327      656E745F 
 2327      6D696E00 
 2328              	.LASF11:
 2329 0271 756E7369 		.ascii	"unsigned int\000"
 2329      676E6564 
 2329      20696E74 
 2329      00
 2330              	.LASF16:
 2331 027e 75696E74 		.ascii	"uint16_t\000"
 2331      31365F74 
 2331      00
 2332              	.LASF47:
 2333 0287 746F7461 		.ascii	"totalBytes\000"
 2333      6C427974 
 2333      657300
 2334              	.LASF74:
 2335 0292 62616E6B 		.ascii	"bank1\000"
 2335      3100
 2336              	.LASF40:
 2337 0298 67325F73 		.ascii	"g2_speed\000"
 2337      70656564 
 2337      00
 2338              	.LASF65:
 2339 02a1 666C6167 		.ascii	"flag_KB_string\000"
 2339      5F4B425F 
 2339      73747269 
 2339      6E6700
 2340              	.LASF34:
 2341 02b0 67315F78 		.ascii	"g1_xpos\000"
 2341      706F7300 
 2342              	.LASF84:
 2343 02b8 73656E73 		.ascii	"sensor_sample_count\000"
 2343      6F725F73 
 2343      616D706C 
 2343      655F636F 
ARM GAS  C:\Users\ash750\AppData\Local\Temp\ccwbDard.s 			page 51


 2343      756E7400 
 2344              	.LASF88:
 2345 02cc 64617461 		.ascii	"data_main\000"
 2345      5F6D6169 
 2345      6E00
 2346              	.LASF14:
 2347 02d6 63686172 		.ascii	"char\000"
 2347      00
 2348              	.LASF27:
 2349 02db 726F626F 		.ascii	"robot_xpos\000"
 2349      745F7870 
 2349      6F7300
 2350              	.LASF17:
 2351 02e6 696E7433 		.ascii	"int32_t\000"
 2351      325F7400 
 2352              	.LASF35:
 2353 02ee 67315F79 		.ascii	"g1_ypos\000"
 2353      706F7300 
 2354              	.LASF41:
 2355 02f6 67325F64 		.ascii	"g2_direction\000"
 2355      69726563 
 2355      74696F6E 
 2355      00
 2356              	.LASF5:
 2357 0303 73686F72 		.ascii	"short unsigned int\000"
 2357      7420756E 
 2357      7369676E 
 2357      65642069 
 2357      6E7400
 2358              	.LASF15:
 2359 0316 696E7431 		.ascii	"int16_t\000"
 2359      365F7400 
 2360              	.LASF36:
 2361 031e 67315F73 		.ascii	"g1_speed\000"
 2361      70656564 
 2361      00
 2362              	.LASF68:
 2363 0327 64697370 		.ascii	"displaystring\000"
 2363      6C617973 
 2363      7472696E 
 2363      6700
 2364              	.LASF64:
 2365 0335 666C6167 		.ascii	"flag_packet\000"
 2365      5F706163 
 2365      6B657400 
 2366              	.LASF87:
 2367 0341 433A5C55 		.ascii	"C:\\Users\\ash750\\Documents\\GitHub\\Summer_resear"
 2367      73657273 
 2367      5C617368 
 2367      3735305C 
 2367      446F6375 
 2368 036f 63685F61 		.ascii	"ch_ash750\\DMA25READ.cydsn\000"
 2368      73683735 
 2368      305C444D 
 2368      41323552 
 2368      4541442E 
 2369              	.LASF45:
ARM GAS  C:\Users\ash750\AppData\Local\Temp\ccwbDard.s 			page 52


 2370 0389 62756666 		.ascii	"buffer\000"
 2370      657200
 2371              	.LASF20:
 2372 0390 75696E74 		.ascii	"uint32\000"
 2372      333200
 2373              	.LASF86:
 2374 0397 6D61696E 		.ascii	"main.c\000"
 2374      2E6300
 2375              	.LASF8:
 2376 039e 6C6F6E67 		.ascii	"long unsigned int\000"
 2376      20756E73 
 2376      69676E65 
 2376      6420696E 
 2376      7400
 2377              	.LASF48:
 2378 03b0 75736253 		.ascii	"usbStarted\000"
 2378      74617274 
 2378      656400
 2379              	.LASF57:
 2380 03bb 74735F73 		.ascii	"ts_speed\000"
 2380      70656564 
 2380      00
 2381              	.LASF46:
 2382 03c4 636F756E 		.ascii	"count\000"
 2382      7400
 2383              	.LASF59:
 2384 03ca 666C6167 		.ascii	"flag_ts_enc\000"
 2384      5F74735F 
 2384      656E6300 
 2385              	.LASF6:
 2386 03d6 5F5F696E 		.ascii	"__int32_t\000"
 2386      7433325F 
 2386      7400
 2387              	.LASF77:
 2388 03e0 766F6C74 		.ascii	"voltage_of_reading\000"
 2388      6167655F 
 2388      6F665F72 
 2388      65616469 
 2388      6E6700
 2389              	.LASF3:
 2390 03f3 5F5F696E 		.ascii	"__int16_t\000"
 2390      7431365F 
 2390      7400
 2391              	.LASF53:
 2392 03fd 4144435F 		.ascii	"ADC_finalArray\000"
 2392      66696E61 
 2392      6C417272 
 2392      617900
 2393              	.LASF58:
 2394 040c 74735F64 		.ascii	"ts_display\000"
 2394      6973706C 
 2394      617900
 2395              	.LASF44:
 2396 0417 75736250 		.ascii	"usbPutBin\000"
 2396      75744269 
 2396      6E00
 2397              	.LASF56:
ARM GAS  C:\Users\ash750\AppData\Local\Temp\ccwbDard.s 			page 53


 2398 0421 74735F75 		.ascii	"ts_update\000"
 2398      70646174 
 2398      6500
 2399              	.LASF90:
 2400 042b 68616E64 		.ascii	"handle_usb\000"
 2400      6C655F75 
 2400      736200
 2401              	.LASF67:
 2402 0436 666C6167 		.ascii	"flag_rf_transmission_active\000"
 2402      5F72665F 
 2402      7472616E 
 2402      736D6973 
 2402      73696F6E 
 2403              	.LASF28:
 2404 0452 726F626F 		.ascii	"robot_ypos\000"
 2404      745F7970 
 2404      6F7300
 2405              	.LASF50:
 2406 045d 696E6974 		.ascii	"init_dma_1_CHAINED\000"
 2406      5F646D61 
 2406      5F315F43 
 2406      4841494E 
 2406      454400
 2407              	.LASF54:
 2408 0470 49544D5F 		.ascii	"ITM_RxBuffer\000"
 2408      52784275 
 2408      66666572 
 2408      00
 2409              	.LASF78:
 2410 047d 73656E73 		.ascii	"sensor_sum\000"
 2410      6F725F73 
 2410      756D00
 2411              	.LASF79:
 2412 0488 73656E73 		.ascii	"sensor_max\000"
 2412      6F725F6D 
 2412      617800
 2413              	.LASF25:
 2414 0493 72737369 		.ascii	"rssi\000"
 2414      00
 2415              	.LASF29:
 2416 0498 726F626F 		.ascii	"robot_orientation\000"
 2416      745F6F72 
 2416      69656E74 
 2416      6174696F 
 2416      6E00
 2417              		.ident	"GCC: (GNU Tools for ARM Embedded Processors) 5.4.1 20160609 (release) [ARM/embedded-5-bran
