ARM GAS  C:\Users\ash750\AppData\Local\Temp\ccwQG7di.s 			page 1


   1              		.syntax unified
   2              		.cpu cortex-m3
   3              		.fpu softvfp
   4              		.eabi_attribute 20, 1
   5              		.eabi_attribute 21, 1
   6              		.eabi_attribute 23, 3
   7              		.eabi_attribute 24, 1
   8              		.eabi_attribute 25, 1
   9              		.eabi_attribute 26, 1
  10              		.eabi_attribute 30, 6
  11              		.eabi_attribute 34, 1
  12              		.eabi_attribute 18, 4
  13              		.thumb
  14              		.syntax unified
  15              		.file	"main.c"
  16              		.text
  17              	.Ltext0:
  18              		.cfi_sections	.debug_frame
  19              		.global	ts
  20              		.bss
  21              		.type	ts, %object
  22              		.size	ts, 1
  23              	ts:
  24 0000 00       		.space	1
  25              		.global	ts_enc
  26 0001 00       		.align	1
  27              		.type	ts_enc, %object
  28              		.size	ts_enc, 2
  29              	ts_enc:
  30 0002 0000     		.space	2
  31              		.global	ts_update
  32              		.align	1
  33              		.type	ts_update, %object
  34              		.size	ts_update, 2
  35              	ts_update:
  36 0004 0000     		.space	2
  37              		.global	ts_speed
  38              		.align	1
  39              		.type	ts_speed, %object
  40              		.size	ts_speed, 2
  41              	ts_speed:
  42 0006 0000     		.space	2
  43              		.global	ts_display
  44              		.align	1
  45              		.type	ts_display, %object
  46              		.size	ts_display, 2
  47              	ts_display:
  48 0008 0000     		.space	2
  49              		.global	flag_ts_enc
  50              		.type	flag_ts_enc, %object
  51              		.size	flag_ts_enc, 1
  52              	flag_ts_enc:
  53 000a 00       		.space	1
  54              		.global	flag_ts_update
  55              		.type	flag_ts_update, %object
  56              		.size	flag_ts_update, 1
  57              	flag_ts_update:
ARM GAS  C:\Users\ash750\AppData\Local\Temp\ccwQG7di.s 			page 2


  58 000b 00       		.space	1
  59              		.global	flag_ts_speed
  60              		.type	flag_ts_speed, %object
  61              		.size	flag_ts_speed, 1
  62              	flag_ts_speed:
  63 000c 00       		.space	1
  64              		.global	flag_ts_display
  65              		.type	flag_ts_display, %object
  66              		.size	flag_ts_display, 1
  67              	flag_ts_display:
  68 000d 00       		.space	1
  69              		.global	flag_rx
  70              		.type	flag_rx, %object
  71              		.size	flag_rx, 1
  72              	flag_rx:
  73 000e 00       		.space	1
  74              		.global	flag_packet
  75              		.type	flag_packet, %object
  76              		.size	flag_packet, 1
  77              	flag_packet:
  78 000f 00       		.space	1
  79              		.global	flag_KB_string
  80              		.type	flag_KB_string, %object
  81              		.size	flag_KB_string, 1
  82              	flag_KB_string:
  83 0010 00       		.space	1
  84              		.global	dataready_flag
  85              		.type	dataready_flag, %object
  86              		.size	dataready_flag, 1
  87              	dataready_flag:
  88 0011 00       		.space	1
  89              		.global	flag_rf_transmission_active
  90              		.data
  91              		.type	flag_rf_transmission_active, %object
  92              		.size	flag_rf_transmission_active, 1
  93              	flag_rf_transmission_active:
  94 0000 0A       		.byte	10
  95              		.global	displaystring
  96 0001 000000   		.align	2
  97              		.type	displaystring, %object
  98              		.size	displaystring, 64
  99              	displaystring:
 100 0004 43533330 		.ascii	"CS301 2024\012\000"
 100      31203230 
 100      32340A00 
 101 0010 00000000 		.space	52
 101      00000000 
 101      00000000 
 101      00000000 
 101      00000000 
 102              		.comm	line,64,4
 103              		.comm	entry,64,4
 104              		.comm	usbBuffer,64,4
 105              		.comm	system_state,32,4
 106              		.comm	result_of_conversion,2,2
 107              		.comm	buffer,64,4
 108              		.global	sample_window
ARM GAS  C:\Users\ash750\AppData\Local\Temp\ccwQG7di.s 			page 3


 109              		.align	2
 110              		.type	sample_window, %object
 111              		.size	sample_window, 4
 112              	sample_window:
 113 0044 64000000 		.word	100
 114              		.global	voltage_of_reading
 115              		.bss
 116 0012 0000     		.align	2
 117              		.type	voltage_of_reading, %object
 118              		.size	voltage_of_reading, 4
 119              	voltage_of_reading:
 120 0014 00000000 		.space	4
 121              		.global	sensor_sum
 122              		.align	2
 123              		.type	sensor_sum, %object
 124              		.size	sensor_sum, 50
 125              	sensor_sum:
 126 0018 00000000 		.space	50
 126      00000000 
 126      00000000 
 126      00000000 
 126      00000000 
 127              		.global	sensor_max
 128 004a 0000     		.align	2
 129              		.type	sensor_max, %object
 130              		.size	sensor_max, 50
 131              	sensor_max:
 132 004c 00000000 		.space	50
 132      00000000 
 132      00000000 
 132      00000000 
 132      00000000 
 133              		.global	sensor_min
 134 007e 0000     		.align	2
 135              		.type	sensor_min, %object
 136              		.size	sensor_min, 50
 137              	sensor_min:
 138 0080 00000000 		.space	50
 138      00000000 
 138      00000000 
 138      00000000 
 138      00000000 
 139              		.global	current_max
 140 00b2 0000     		.align	2
 141              		.type	current_max, %object
 142              		.size	current_max, 100
 143              	current_max:
 144 00b4 00000000 		.space	100
 144      00000000 
 144      00000000 
 144      00000000 
 144      00000000 
 145              		.global	current_min
 146              		.align	2
 147              		.type	current_min, %object
 148              		.size	current_min, 100
 149              	current_min:
ARM GAS  C:\Users\ash750\AppData\Local\Temp\ccwQG7di.s 			page 4


 150 0118 00000000 		.space	100
 150      00000000 
 150      00000000 
 150      00000000 
 150      00000000 
 151              		.global	dc_offset
 152              		.align	2
 153              		.type	dc_offset, %object
 154              		.size	dc_offset, 100
 155              	dc_offset:
 156 017c 00000000 		.space	100
 156      00000000 
 156      00000000 
 156      00000000 
 156      00000000 
 157              		.global	vpp
 158              		.align	2
 159              		.type	vpp, %object
 160              		.size	vpp, 100
 161              	vpp:
 162 01e0 00000000 		.space	100
 162      00000000 
 162      00000000 
 162      00000000 
 162      00000000 
 163              		.global	sensor_sample_count
 164              		.align	2
 165              		.type	sensor_sample_count, %object
 166              		.size	sensor_sample_count, 50
 167              	sensor_sample_count:
 168 0244 00000000 		.space	50
 168      00000000 
 168      00000000 
 168      00000000 
 168      00000000 
 169              		.global	__aeabi_i2f
 170              		.global	__aeabi_fadd
 171              		.global	__aeabi_f2iz
 172              		.global	__aeabi_fcmplt
 173              		.global	__aeabi_fcmpgt
 174              		.global	__aeabi_fsub
 175              		.section	.rodata
 176              		.align	2
 177              	.LC0:
 178 0000 4368616E 		.ascii	"Channel %d: DC: %d.%d%d VPP: %d.%d%d \015\012\000"
 178      6E656C20 
 178      25643A20 
 178      44433A20 
 178      25642E25 
 179              		.section	.text.main,"ax",%progbits
 180              		.align	2
 181              		.global	main
 182              		.thumb
 183              		.thumb_func
 184              		.type	main, %function
 185              	main:
 186              	.LFB64:
ARM GAS  C:\Users\ash750\AppData\Local\Temp\ccwQG7di.s 			page 5


 187              		.file 1 "main.c"
   1:main.c        **** /* ========================================
   2:main.c        ****  * Fully working code: 
   3:main.c        ****  * PWM      : 
   4:main.c        ****  * Encoder  : 
   5:main.c        ****  * ADC      :
   6:main.c        ****  * USB      : port displays speed and position.
   7:main.c        ****  * CMD: "PW xx"
   8:main.c        ****  * Copyright Univ of Auckland, 2016
   9:main.c        ****  * All Rights Reserved
  10:main.c        ****  * UNPUBLISHED, LICENSED SOFTWARE.
  11:main.c        ****  *
  12:main.c        ****  * CONFIDENTIAL AND PROPRIETARY INFORMATION
  13:main.c        ****  * WHICH IS THE PROPERTY OF Univ of Auckland.
  14:main.c        ****  *
  15:main.c        ****  * ========================================
  16:main.c        **** */
  17:main.c        **** #include <stdio.h>
  18:main.c        **** #include <string.h>
  19:main.c        **** #include <stdlib.h>
  20:main.c        **** #include <project.h>
  21:main.c        **** //* ========================================
  22:main.c        **** #include "defines.h"
  23:main.c        **** #include "vars.h"
  24:main.c        **** //* ========================================
  25:main.c        **** void usbPutString(char *s);
  26:main.c        **** void usbPutChar(char c);
  27:main.c        **** void handle_usb();
  28:main.c        **** //* ========================================
  29:main.c        **** 
  30:main.c        **** //some global vars
  31:main.c        **** int16_t result_of_conversion; 
  32:main.c        **** char buffer[64];
  33:main.c        **** int sample_window = 100; 
  34:main.c        **** float voltage_of_reading = 0.0; 
  35:main.c        **** int16_t sensor_sum[25] = {0}; 
  36:main.c        **** int16_t sensor_max[25] = {0};
  37:main.c        **** int16_t sensor_min[25] = {0};
  38:main.c        **** float current_max[25] = {0.0}; 
  39:main.c        **** float current_min[25] = {0.0};
  40:main.c        **** float dc_offset[25] = {0.0};
  41:main.c        **** float vpp[25] = {0.0}; 
  42:main.c        **** int16_t sensor_sample_count[25] = {0}; 
  43:main.c        **** 
  44:main.c        **** int main()
  45:main.c        **** {
 188              		.loc 1 45 0
 189              		.cfi_startproc
 190              		@ args = 0, pretend = 0, frame = 16
 191              		@ frame_needed = 1, uses_anonymous_args = 0
 192 0000 2DE9F041 		push	{r4, r5, r6, r7, r8, lr}
 193              		.cfi_def_cfa_offset 24
 194              		.cfi_offset 4, -24
 195              		.cfi_offset 5, -20
 196              		.cfi_offset 6, -16
 197              		.cfi_offset 7, -12
 198              		.cfi_offset 8, -8
ARM GAS  C:\Users\ash750\AppData\Local\Temp\ccwQG7di.s 			page 6


 199              		.cfi_offset 14, -4
 200 0004 8AB0     		sub	sp, sp, #40
 201              		.cfi_def_cfa_offset 64
 202 0006 06AF     		add	r7, sp, #24
 203              		.cfi_def_cfa 7, 40
  46:main.c        **** // --------------------------------    
  47:main.c        **** // ----- INITIALIZATIONS ----------
  48:main.c        ****     CYGlobalIntEnable;
 204              		.loc 1 48 0
 205              		.syntax unified
 206              	@ 48 "main.c" 1
 207 0008 62B6     		CPSIE   i
 208              	@ 0 "" 2
  49:main.c        ****     
  50:main.c        ****     
  51:main.c        ****     ADC_SAR_Start();
 209              		.loc 1 51 0
 210              		.thumb
 211              		.syntax unified
 212 000a FFF7FEFF 		bl	ADC_SAR_Start
  52:main.c        ****     ADC_SAR_StartConvert(); 
 213              		.loc 1 52 0
 214 000e FFF7FEFF 		bl	ADC_SAR_StartConvert
  53:main.c        ****    
  54:main.c        ****     
  55:main.c        **** 
  56:main.c        **** // ------USB SETUP ----------------    
  57:main.c        **** #ifdef USE_USB    
  58:main.c        ****     USBUART_Start(0,USBUART_5V_OPERATION);
 215              		.loc 1 58 0
 216 0012 0121     		movs	r1, #1
 217 0014 0020     		movs	r0, #0
 218 0016 FFF7FEFF 		bl	USBUART_Start
 219              	.L11:
  59:main.c        **** #endif        
  60:main.c        ****     for(;;)
  61:main.c        ****     {
  62:main.c        ****         /* Place your application code here. */
  63:main.c        ****         handle_usb();
 220              		.loc 1 63 0
 221 001a FFF7FEFF 		bl	handle_usb
  64:main.c        ****         if (flag_KB_string == 1)
 222              		.loc 1 64 0
 223 001e AE4B     		ldr	r3, .L14
 224 0020 1B78     		ldrb	r3, [r3]	@ zero_extendqisi2
 225 0022 012B     		cmp	r3, #1
 226 0024 05D1     		bne	.L2
  65:main.c        ****         {
  66:main.c        ****             usbPutString(line);
 227              		.loc 1 66 0
 228 0026 AD48     		ldr	r0, .L14+4
 229 0028 FFF7FEFF 		bl	usbPutString
  67:main.c        ****             flag_KB_string = 0;
 230              		.loc 1 67 0
 231 002c AA4B     		ldr	r3, .L14
 232 002e 0022     		movs	r2, #0
 233 0030 1A70     		strb	r2, [r3]
ARM GAS  C:\Users\ash750\AppData\Local\Temp\ccwQG7di.s 			page 7


 234              	.L2:
 235              	.LBB2:
  68:main.c        ****         }  
  69:main.c        ****         
  70:main.c        ****         
  71:main.c        ****         for(int ch = 0; ch < 25; ch++){
 236              		.loc 1 71 0
 237 0032 0023     		movs	r3, #0
 238 0034 FB60     		str	r3, [r7, #12]
 239 0036 49E1     		b	.L3
 240              	.L10:
  72:main.c        ****         result_of_conversion = ADC_SAR_GetResult16();
 241              		.loc 1 72 0
 242 0038 FFF7FEFF 		bl	ADC_SAR_GetResult16
 243 003c 0346     		mov	r3, r0
 244 003e 1A46     		mov	r2, r3
 245 0040 A74B     		ldr	r3, .L14+8
 246 0042 1A80     		strh	r2, [r3]	@ movhi
  73:main.c        ****         //sprintf(buffer, "%d \r\n",result_of_conversion); 
  74:main.c        ****         
  75:main.c        ****         //convert the adc value into a voltage
  76:main.c        ****         voltage_of_reading = (result_of_conversion * 5 /4096);
 247              		.loc 1 76 0
 248 0044 A64B     		ldr	r3, .L14+8
 249 0046 B3F90030 		ldrsh	r3, [r3]
 250 004a 1A46     		mov	r2, r3
 251 004c 1346     		mov	r3, r2
 252 004e 9B00     		lsls	r3, r3, #2
 253 0050 1344     		add	r3, r3, r2
 254 0052 002B     		cmp	r3, #0
 255 0054 01DA     		bge	.L4
 256 0056 03F6FF73 		addw	r3, r3, #4095
 257              	.L4:
 258 005a 1B13     		asrs	r3, r3, #12
 259 005c 1846     		mov	r0, r3
 260 005e FFF7FEFF 		bl	__aeabi_i2f
 261 0062 0246     		mov	r2, r0
 262 0064 9F4B     		ldr	r3, .L14+12
 263 0066 1A60     		str	r2, [r3]	@ float
  77:main.c        ****         //sprintf(buffer, "%d.%d%d \r\n", (int16_t)voltage_of_reading/1000, (int16_t)voltage_of_rea
  78:main.c        ****         sensor_sum[ch] += voltage_of_reading;
 264              		.loc 1 78 0
 265 0068 9F4A     		ldr	r2, .L14+16
 266 006a FB68     		ldr	r3, [r7, #12]
 267 006c 32F91330 		ldrsh	r3, [r2, r3, lsl #1]
 268 0070 1846     		mov	r0, r3
 269 0072 FFF7FEFF 		bl	__aeabi_i2f
 270 0076 0246     		mov	r2, r0
 271 0078 9A4B     		ldr	r3, .L14+12
 272 007a 1B68     		ldr	r3, [r3]	@ float
 273 007c 1946     		mov	r1, r3
 274 007e 1046     		mov	r0, r2
 275 0080 FFF7FEFF 		bl	__aeabi_fadd
 276 0084 0346     		mov	r3, r0
 277 0086 1846     		mov	r0, r3
 278 0088 FFF7FEFF 		bl	__aeabi_f2iz
 279 008c 0346     		mov	r3, r0
ARM GAS  C:\Users\ash750\AppData\Local\Temp\ccwQG7di.s 			page 8


 280 008e 19B2     		sxth	r1, r3
 281 0090 954A     		ldr	r2, .L14+16
 282 0092 FB68     		ldr	r3, [r7, #12]
 283 0094 22F81310 		strh	r1, [r2, r3, lsl #1]	@ movhi
  79:main.c        ****         voltage_of_reading = 0.0;
 284              		.loc 1 79 0
 285 0098 924B     		ldr	r3, .L14+12
 286 009a 4FF00002 		mov	r2, #0
 287 009e 1A60     		str	r2, [r3]	@ float
  80:main.c        ****         
  81:main.c        ****         //check the max and min values and update 
  82:main.c        ****         if(voltage_of_reading > current_max[ch]){
 288              		.loc 1 82 0
 289 00a0 924A     		ldr	r2, .L14+20
 290 00a2 FB68     		ldr	r3, [r7, #12]
 291 00a4 52F82320 		ldr	r2, [r2, r3, lsl #2]	@ float
 292 00a8 8E4B     		ldr	r3, .L14+12
 293 00aa 1B68     		ldr	r3, [r3]	@ float
 294 00ac 1946     		mov	r1, r3
 295 00ae 1046     		mov	r0, r2
 296 00b0 FFF7FEFF 		bl	__aeabi_fcmplt
 297 00b4 0346     		mov	r3, r0
 298 00b6 002B     		cmp	r3, #0
 299 00b8 05D0     		beq	.L5
  83:main.c        ****             current_max[ch] = voltage_of_reading;
 300              		.loc 1 83 0
 301 00ba 8A4B     		ldr	r3, .L14+12
 302 00bc 1A68     		ldr	r2, [r3]	@ float
 303 00be 8B49     		ldr	r1, .L14+20
 304 00c0 FB68     		ldr	r3, [r7, #12]
 305 00c2 41F82320 		str	r2, [r1, r3, lsl #2]	@ float
 306              	.L5:
  84:main.c        ****         
  85:main.c        ****         }
  86:main.c        ****         
  87:main.c        ****         if(voltage_of_reading < current_min[ch]){
 307              		.loc 1 87 0
 308 00c6 8A4A     		ldr	r2, .L14+24
 309 00c8 FB68     		ldr	r3, [r7, #12]
 310 00ca 52F82320 		ldr	r2, [r2, r3, lsl #2]	@ float
 311 00ce 854B     		ldr	r3, .L14+12
 312 00d0 1B68     		ldr	r3, [r3]	@ float
 313 00d2 1946     		mov	r1, r3
 314 00d4 1046     		mov	r0, r2
 315 00d6 FFF7FEFF 		bl	__aeabi_fcmpgt
 316 00da 0346     		mov	r3, r0
 317 00dc 002B     		cmp	r3, #0
 318 00de 05D0     		beq	.L7
  88:main.c        ****             current_min[ch] = voltage_of_reading; 
 319              		.loc 1 88 0
 320 00e0 804B     		ldr	r3, .L14+12
 321 00e2 1A68     		ldr	r2, [r3]	@ float
 322 00e4 8249     		ldr	r1, .L14+24
 323 00e6 FB68     		ldr	r3, [r7, #12]
 324 00e8 41F82320 		str	r2, [r1, r3, lsl #2]	@ float
 325              	.L7:
  89:main.c        ****         }
ARM GAS  C:\Users\ash750\AppData\Local\Temp\ccwQG7di.s 			page 9


  90:main.c        ****         
  91:main.c        ****         sensor_sample_count[ch]++; 
 326              		.loc 1 91 0
 327 00ec 814A     		ldr	r2, .L14+28
 328 00ee FB68     		ldr	r3, [r7, #12]
 329 00f0 32F91330 		ldrsh	r3, [r2, r3, lsl #1]
 330 00f4 9BB2     		uxth	r3, r3
 331 00f6 0133     		adds	r3, r3, #1
 332 00f8 9BB2     		uxth	r3, r3
 333 00fa 19B2     		sxth	r1, r3
 334 00fc 7D4A     		ldr	r2, .L14+28
 335 00fe FB68     		ldr	r3, [r7, #12]
 336 0100 22F81310 		strh	r1, [r2, r3, lsl #1]	@ movhi
  92:main.c        ****         
  93:main.c        ****         if(sensor_sample_count[ch] >= sample_window){
 337              		.loc 1 93 0
 338 0104 7B4A     		ldr	r2, .L14+28
 339 0106 FB68     		ldr	r3, [r7, #12]
 340 0108 32F91330 		ldrsh	r3, [r2, r3, lsl #1]
 341 010c 1A46     		mov	r2, r3
 342 010e 7A4B     		ldr	r3, .L14+32
 343 0110 1B68     		ldr	r3, [r3]
 344 0112 9A42     		cmp	r2, r3
 345 0114 C0F2D780 		blt	.L9
  94:main.c        ****         
  95:main.c        ****             //calc the final values   
  96:main.c        ****             dc_offset[ch] = sensor_sum[ch]/sample_window; 
 346              		.loc 1 96 0
 347 0118 734A     		ldr	r2, .L14+16
 348 011a FB68     		ldr	r3, [r7, #12]
 349 011c 32F91330 		ldrsh	r3, [r2, r3, lsl #1]
 350 0120 1A46     		mov	r2, r3
 351 0122 754B     		ldr	r3, .L14+32
 352 0124 1B68     		ldr	r3, [r3]
 353 0126 92FBF3F3 		sdiv	r3, r2, r3
 354 012a 1846     		mov	r0, r3
 355 012c FFF7FEFF 		bl	__aeabi_i2f
 356 0130 0146     		mov	r1, r0
 357 0132 724A     		ldr	r2, .L14+36
 358 0134 FB68     		ldr	r3, [r7, #12]
 359 0136 42F82310 		str	r1, [r2, r3, lsl #2]	@ float
  97:main.c        ****             vpp[ch] = current_max[ch] - current_min[ch];
 360              		.loc 1 97 0
 361 013a 6C4A     		ldr	r2, .L14+20
 362 013c FB68     		ldr	r3, [r7, #12]
 363 013e 52F82300 		ldr	r0, [r2, r3, lsl #2]	@ float
 364 0142 6B4A     		ldr	r2, .L14+24
 365 0144 FB68     		ldr	r3, [r7, #12]
 366 0146 52F82330 		ldr	r3, [r2, r3, lsl #2]	@ float
 367 014a 1946     		mov	r1, r3
 368 014c FFF7FEFF 		bl	__aeabi_fsub
 369 0150 0346     		mov	r3, r0
 370 0152 1946     		mov	r1, r3
 371 0154 6A4A     		ldr	r2, .L14+40
 372 0156 FB68     		ldr	r3, [r7, #12]
 373 0158 42F82310 		str	r1, [r2, r3, lsl #2]	@ float
  98:main.c        ****             
ARM GAS  C:\Users\ash750\AppData\Local\Temp\ccwQG7di.s 			page 10


  99:main.c        ****             sprintf(buffer, "Channel %d: DC: %d.%d%d VPP: %d.%d%d \r\n", ch, (int16_t)dc_offset[ch]
 374              		.loc 1 99 0
 375 015c 674A     		ldr	r2, .L14+36
 376 015e FB68     		ldr	r3, [r7, #12]
 377 0160 52F82330 		ldr	r3, [r2, r3, lsl #2]	@ float
 378 0164 1846     		mov	r0, r3
 379 0166 FFF7FEFF 		bl	__aeabi_f2iz
 380 016a 0346     		mov	r3, r0
 381 016c 1BB2     		sxth	r3, r3
 382 016e 9846     		mov	r8, r3
 383 0170 624A     		ldr	r2, .L14+36
 384 0172 FB68     		ldr	r3, [r7, #12]
 385 0174 52F82330 		ldr	r3, [r2, r3, lsl #2]	@ float
 386 0178 1846     		mov	r0, r3
 387 017a FFF7FEFF 		bl	__aeabi_f2iz
 388 017e 0346     		mov	r3, r0
 389 0180 1BB2     		sxth	r3, r3
 390 0182 1A46     		mov	r2, r3
 391 0184 4FF47A73 		mov	r3, #1000
 392 0188 03FB02F3 		mul	r3, r3, r2
 393 018c 5D4A     		ldr	r2, .L14+44
 394 018e 82FB0312 		smull	r1, r2, r2, r3
 395 0192 5211     		asrs	r2, r2, #5
 396 0194 DB17     		asrs	r3, r3, #31
 397 0196 D21A     		subs	r2, r2, r3
 398 0198 5B4B     		ldr	r3, .L14+48
 399 019a 83FB0213 		smull	r1, r3, r3, r2
 400 019e 9910     		asrs	r1, r3, #2
 401 01a0 D317     		asrs	r3, r2, #31
 402 01a2 CC1A     		subs	r4, r1, r3
 403 01a4 2346     		mov	r3, r4
 404 01a6 9B00     		lsls	r3, r3, #2
 405 01a8 2344     		add	r3, r3, r4
 406 01aa 5B00     		lsls	r3, r3, #1
 407 01ac D41A     		subs	r4, r2, r3
 408 01ae 534A     		ldr	r2, .L14+36
 409 01b0 FB68     		ldr	r3, [r7, #12]
 410 01b2 52F82330 		ldr	r3, [r2, r3, lsl #2]	@ float
 411 01b6 1846     		mov	r0, r3
 412 01b8 FFF7FEFF 		bl	__aeabi_f2iz
 413 01bc 0346     		mov	r3, r0
 414 01be 1BB2     		sxth	r3, r3
 415 01c0 1A46     		mov	r2, r3
 416 01c2 4FF47A73 		mov	r3, #1000
 417 01c6 03FB02F3 		mul	r3, r3, r2
 418 01ca 4F4A     		ldr	r2, .L14+48
 419 01cc 82FB0312 		smull	r1, r2, r2, r3
 420 01d0 9210     		asrs	r2, r2, #2
 421 01d2 DB17     		asrs	r3, r3, #31
 422 01d4 D21A     		subs	r2, r2, r3
 423 01d6 4C4B     		ldr	r3, .L14+48
 424 01d8 83FB0213 		smull	r1, r3, r3, r2
 425 01dc 9910     		asrs	r1, r3, #2
 426 01de D317     		asrs	r3, r2, #31
 427 01e0 CD1A     		subs	r5, r1, r3
 428 01e2 2B46     		mov	r3, r5
 429 01e4 9B00     		lsls	r3, r3, #2
ARM GAS  C:\Users\ash750\AppData\Local\Temp\ccwQG7di.s 			page 11


 430 01e6 2B44     		add	r3, r3, r5
 431 01e8 5B00     		lsls	r3, r3, #1
 432 01ea D51A     		subs	r5, r2, r3
 433 01ec 444A     		ldr	r2, .L14+40
 434 01ee FB68     		ldr	r3, [r7, #12]
 435 01f0 52F82330 		ldr	r3, [r2, r3, lsl #2]	@ float
 436 01f4 1846     		mov	r0, r3
 437 01f6 FFF7FEFF 		bl	__aeabi_f2iz
 438 01fa 0346     		mov	r3, r0
 439 01fc 1BB2     		sxth	r3, r3
 440 01fe 7B60     		str	r3, [r7, #4]
 441 0200 3F4A     		ldr	r2, .L14+40
 442 0202 FB68     		ldr	r3, [r7, #12]
 443 0204 52F82330 		ldr	r3, [r2, r3, lsl #2]	@ float
 444 0208 1846     		mov	r0, r3
 445 020a FFF7FEFF 		bl	__aeabi_f2iz
 446 020e 0346     		mov	r3, r0
 447 0210 1BB2     		sxth	r3, r3
 448 0212 1A46     		mov	r2, r3
 449 0214 4FF47A73 		mov	r3, #1000
 450 0218 03FB02F3 		mul	r3, r3, r2
 451 021c 394A     		ldr	r2, .L14+44
 452 021e 82FB0312 		smull	r1, r2, r2, r3
 453 0222 5211     		asrs	r2, r2, #5
 454 0224 DB17     		asrs	r3, r3, #31
 455 0226 D21A     		subs	r2, r2, r3
 456 0228 374B     		ldr	r3, .L14+48
 457 022a 83FB0213 		smull	r1, r3, r3, r2
 458 022e 9910     		asrs	r1, r3, #2
 459 0230 D317     		asrs	r3, r2, #31
 460 0232 CE1A     		subs	r6, r1, r3
 461 0234 3346     		mov	r3, r6
 462 0236 9B00     		lsls	r3, r3, #2
 463 0238 3344     		add	r3, r3, r6
 464 023a 5B00     		lsls	r3, r3, #1
 465 023c D61A     		subs	r6, r2, r3
 466 023e 304A     		ldr	r2, .L14+40
 467 0240 FB68     		ldr	r3, [r7, #12]
 468 0242 52F82330 		ldr	r3, [r2, r3, lsl #2]	@ float
 469 0246 1846     		mov	r0, r3
 470 0248 FFF7FEFF 		bl	__aeabi_f2iz
 471 024c 0346     		mov	r3, r0
 472 024e 1BB2     		sxth	r3, r3
 473 0250 1A46     		mov	r2, r3
 474 0252 4FF47A73 		mov	r3, #1000
 475 0256 03FB02F3 		mul	r3, r3, r2
 476 025a 2B4A     		ldr	r2, .L14+48
 477 025c 82FB0312 		smull	r1, r2, r2, r3
 478 0260 9210     		asrs	r2, r2, #2
 479 0262 DB17     		asrs	r3, r3, #31
 480 0264 D11A     		subs	r1, r2, r3
 481 0266 284B     		ldr	r3, .L14+48
 482 0268 83FB0123 		smull	r2, r3, r3, r1
 483 026c 9A10     		asrs	r2, r3, #2
 484 026e CB17     		asrs	r3, r1, #31
 485 0270 D21A     		subs	r2, r2, r3
 486 0272 1346     		mov	r3, r2
ARM GAS  C:\Users\ash750\AppData\Local\Temp\ccwQG7di.s 			page 12


 487 0274 9B00     		lsls	r3, r3, #2
 488 0276 1344     		add	r3, r3, r2
 489 0278 5B00     		lsls	r3, r3, #1
 490 027a CA1A     		subs	r2, r1, r3
 491 027c 0492     		str	r2, [sp, #16]
 492 027e 0396     		str	r6, [sp, #12]
 493 0280 7B68     		ldr	r3, [r7, #4]
 494 0282 0293     		str	r3, [sp, #8]
 495 0284 0195     		str	r5, [sp, #4]
 496 0286 0094     		str	r4, [sp]
 497 0288 4346     		mov	r3, r8
 498 028a FA68     		ldr	r2, [r7, #12]
 499 028c 1F49     		ldr	r1, .L14+52
 500 028e 2048     		ldr	r0, .L14+56
 501 0290 FFF7FEFF 		bl	sprintf
 100:main.c        ****             
 101:main.c        ****                   
 102:main.c        ****             usbPutString(buffer);
 502              		.loc 1 102 0
 503 0294 1E48     		ldr	r0, .L14+56
 504 0296 FFF7FEFF 		bl	usbPutString
 103:main.c        ****             //reset the vars
 104:main.c        ****             sensor_sum[ch] = 0; 
 505              		.loc 1 104 0
 506 029a 134A     		ldr	r2, .L14+16
 507 029c FB68     		ldr	r3, [r7, #12]
 508 029e 0021     		movs	r1, #0
 509 02a0 22F81310 		strh	r1, [r2, r3, lsl #1]	@ movhi
 105:main.c        ****             current_max[ch] = 0; 
 510              		.loc 1 105 0
 511 02a4 114A     		ldr	r2, .L14+20
 512 02a6 FB68     		ldr	r3, [r7, #12]
 513 02a8 4FF00001 		mov	r1, #0
 514 02ac 42F82310 		str	r1, [r2, r3, lsl #2]	@ float
 106:main.c        ****             current_min[ch] = 0;
 515              		.loc 1 106 0
 516 02b0 0F4A     		ldr	r2, .L14+24
 517 02b2 FB68     		ldr	r3, [r7, #12]
 518 02b4 4FF00001 		mov	r1, #0
 519 02b8 42F82310 		str	r1, [r2, r3, lsl #2]	@ float
 107:main.c        ****             sensor_sample_count[ch] = 0; 
 520              		.loc 1 107 0
 521 02bc 0D4A     		ldr	r2, .L14+28
 522 02be FB68     		ldr	r3, [r7, #12]
 523 02c0 0021     		movs	r1, #0
 524 02c2 22F81310 		strh	r1, [r2, r3, lsl #1]	@ movhi
 525              	.L9:
  71:main.c        ****         result_of_conversion = ADC_SAR_GetResult16();
 526              		.loc 1 71 0 discriminator 2
 527 02c6 FB68     		ldr	r3, [r7, #12]
 528 02c8 0133     		adds	r3, r3, #1
 529 02ca FB60     		str	r3, [r7, #12]
 530              	.L3:
  71:main.c        ****         result_of_conversion = ADC_SAR_GetResult16();
 531              		.loc 1 71 0 is_stmt 0 discriminator 1
 532 02cc FB68     		ldr	r3, [r7, #12]
 533 02ce 182B     		cmp	r3, #24
ARM GAS  C:\Users\ash750\AppData\Local\Temp\ccwQG7di.s 			page 13


 534 02d0 7FF7B2AE 		ble	.L10
 535              	.LBE2:
 108:main.c        ****         
 109:main.c        ****         }
 110:main.c        ****         
 111:main.c        ****         
 112:main.c        ****         
 113:main.c        ****         
 114:main.c        ****         
 115:main.c        ****         
 116:main.c        ****         
 117:main.c        ****         
 118:main.c        ****         
 119:main.c        **** 
 120:main.c        ****         
 121:main.c        ****         }
 122:main.c        ****      
 123:main.c        ****        
 124:main.c        ****     }   
 536              		.loc 1 124 0 is_stmt 1
 537 02d4 A1E6     		b	.L11
 538              	.L15:
 539 02d6 00BF     		.align	2
 540              	.L14:
 541 02d8 00000000 		.word	flag_KB_string
 542 02dc 00000000 		.word	line
 543 02e0 00000000 		.word	result_of_conversion
 544 02e4 00000000 		.word	voltage_of_reading
 545 02e8 00000000 		.word	sensor_sum
 546 02ec 00000000 		.word	current_max
 547 02f0 00000000 		.word	current_min
 548 02f4 00000000 		.word	sensor_sample_count
 549 02f8 00000000 		.word	sample_window
 550 02fc 00000000 		.word	dc_offset
 551 0300 00000000 		.word	vpp
 552 0304 1F85EB51 		.word	1374389535
 553 0308 67666666 		.word	1717986919
 554 030c 00000000 		.word	.LC0
 555 0310 00000000 		.word	buffer
 556              		.cfi_endproc
 557              	.LFE64:
 558              		.size	main, .-main
 559              		.section	.text.usbPutString,"ax",%progbits
 560              		.align	2
 561              		.global	usbPutString
 562              		.thumb
 563              		.thumb_func
 564              		.type	usbPutString, %function
 565              	usbPutString:
 566              	.LFB65:
 125:main.c        **** }
 126:main.c        **** //* ========================================
 127:main.c        **** void usbPutString(char *s)
 128:main.c        **** {
 567              		.loc 1 128 0
 568              		.cfi_startproc
 569              		@ args = 0, pretend = 0, frame = 8
ARM GAS  C:\Users\ash750\AppData\Local\Temp\ccwQG7di.s 			page 14


 570              		@ frame_needed = 1, uses_anonymous_args = 0
 571 0000 80B5     		push	{r7, lr}
 572              		.cfi_def_cfa_offset 8
 573              		.cfi_offset 7, -8
 574              		.cfi_offset 14, -4
 575 0002 82B0     		sub	sp, sp, #8
 576              		.cfi_def_cfa_offset 16
 577 0004 00AF     		add	r7, sp, #0
 578              		.cfi_def_cfa_register 7
 579 0006 7860     		str	r0, [r7, #4]
 129:main.c        **** // !! Assumes that *s is a string with allocated space >=64 chars     
 130:main.c        **** //  Since USB implementation retricts data packets to 64 chars, this function truncates the
 131:main.c        **** //  length to 62 char (63rd char is a '!')
 132:main.c        **** 
 133:main.c        **** #ifdef USE_USB     
 134:main.c        ****     while (USBUART_CDCIsReady() == 0);
 580              		.loc 1 134 0
 581 0008 00BF     		nop
 582              	.L17:
 583              		.loc 1 134 0 is_stmt 0 discriminator 1
 584 000a FFF7FEFF 		bl	USBUART_CDCIsReady
 585 000e 0346     		mov	r3, r0
 586 0010 002B     		cmp	r3, #0
 587 0012 FAD0     		beq	.L17
 135:main.c        ****     s[63]='\0';
 588              		.loc 1 135 0 is_stmt 1
 589 0014 7B68     		ldr	r3, [r7, #4]
 590 0016 3F33     		adds	r3, r3, #63
 591 0018 0022     		movs	r2, #0
 592 001a 1A70     		strb	r2, [r3]
 136:main.c        ****     s[62]='!';
 593              		.loc 1 136 0
 594 001c 7B68     		ldr	r3, [r7, #4]
 595 001e 3E33     		adds	r3, r3, #62
 596 0020 2122     		movs	r2, #33
 597 0022 1A70     		strb	r2, [r3]
 137:main.c        ****     USBUART_PutData((uint8*)s,strlen(s));
 598              		.loc 1 137 0
 599 0024 7868     		ldr	r0, [r7, #4]
 600 0026 FFF7FEFF 		bl	strlen
 601 002a 0346     		mov	r3, r0
 602 002c 9BB2     		uxth	r3, r3
 603 002e 1946     		mov	r1, r3
 604 0030 7868     		ldr	r0, [r7, #4]
 605 0032 FFF7FEFF 		bl	USBUART_PutData
 138:main.c        **** #endif
 139:main.c        **** }
 606              		.loc 1 139 0
 607 0036 00BF     		nop
 608 0038 0837     		adds	r7, r7, #8
 609              		.cfi_def_cfa_offset 8
 610 003a BD46     		mov	sp, r7
 611              		.cfi_def_cfa_register 13
 612              		@ sp needed
 613 003c 80BD     		pop	{r7, pc}
 614              		.cfi_endproc
 615              	.LFE65:
ARM GAS  C:\Users\ash750\AppData\Local\Temp\ccwQG7di.s 			page 15


 616              		.size	usbPutString, .-usbPutString
 617 003e 00BF     		.section	.text.usbPutChar,"ax",%progbits
 618              		.align	2
 619              		.global	usbPutChar
 620              		.thumb
 621              		.thumb_func
 622              		.type	usbPutChar, %function
 623              	usbPutChar:
 624              	.LFB66:
 140:main.c        **** //* ========================================
 141:main.c        **** void usbPutChar(char c)
 142:main.c        **** {
 625              		.loc 1 142 0
 626              		.cfi_startproc
 627              		@ args = 0, pretend = 0, frame = 8
 628              		@ frame_needed = 1, uses_anonymous_args = 0
 629 0000 80B5     		push	{r7, lr}
 630              		.cfi_def_cfa_offset 8
 631              		.cfi_offset 7, -8
 632              		.cfi_offset 14, -4
 633 0002 82B0     		sub	sp, sp, #8
 634              		.cfi_def_cfa_offset 16
 635 0004 00AF     		add	r7, sp, #0
 636              		.cfi_def_cfa_register 7
 637 0006 0346     		mov	r3, r0
 638 0008 FB71     		strb	r3, [r7, #7]
 143:main.c        **** #ifdef USE_USB     
 144:main.c        ****     while (USBUART_CDCIsReady() == 0);
 639              		.loc 1 144 0
 640 000a 00BF     		nop
 641              	.L19:
 642              		.loc 1 144 0 is_stmt 0 discriminator 1
 643 000c FFF7FEFF 		bl	USBUART_CDCIsReady
 644 0010 0346     		mov	r3, r0
 645 0012 002B     		cmp	r3, #0
 646 0014 FAD0     		beq	.L19
 145:main.c        ****     USBUART_PutChar(c);
 647              		.loc 1 145 0 is_stmt 1
 648 0016 FB79     		ldrb	r3, [r7, #7]	@ zero_extendqisi2
 649 0018 1846     		mov	r0, r3
 650 001a FFF7FEFF 		bl	USBUART_PutChar
 146:main.c        **** #endif    
 147:main.c        **** }
 651              		.loc 1 147 0
 652 001e 00BF     		nop
 653 0020 0837     		adds	r7, r7, #8
 654              		.cfi_def_cfa_offset 8
 655 0022 BD46     		mov	sp, r7
 656              		.cfi_def_cfa_register 13
 657              		@ sp needed
 658 0024 80BD     		pop	{r7, pc}
 659              		.cfi_endproc
 660              	.LFE66:
 661              		.size	usbPutChar, .-usbPutChar
 662 0026 00BF     		.section	.text.handle_usb,"ax",%progbits
 663              		.align	2
 664              		.global	handle_usb
ARM GAS  C:\Users\ash750\AppData\Local\Temp\ccwQG7di.s 			page 16


 665              		.thumb
 666              		.thumb_func
 667              		.type	handle_usb, %function
 668              	handle_usb:
 669              	.LFB67:
 148:main.c        **** //* ========================================
 149:main.c        **** void handle_usb()
 150:main.c        **** {
 670              		.loc 1 150 0
 671              		.cfi_startproc
 672              		@ args = 0, pretend = 0, frame = 8
 673              		@ frame_needed = 1, uses_anonymous_args = 0
 674 0000 80B5     		push	{r7, lr}
 675              		.cfi_def_cfa_offset 8
 676              		.cfi_offset 7, -8
 677              		.cfi_offset 14, -4
 678 0002 82B0     		sub	sp, sp, #8
 679              		.cfi_def_cfa_offset 16
 680 0004 00AF     		add	r7, sp, #0
 681              		.cfi_def_cfa_register 7
 151:main.c        ****     // handles input at terminal, echos it back to the terminal
 152:main.c        ****     // turn echo OFF, key emulation: only CR
 153:main.c        ****     // entered string is made available in 'line' and 'flag_KB_string' is set
 154:main.c        ****     
 155:main.c        ****     static uint8 usbStarted = FALSE;
 156:main.c        ****     static uint16 usbBufCount = 0;
 157:main.c        ****     uint8 c; 
 158:main.c        ****     
 159:main.c        **** 
 160:main.c        ****     if (!usbStarted)
 682              		.loc 1 160 0
 683 0006 2B4B     		ldr	r3, .L30
 684 0008 1B78     		ldrb	r3, [r3]	@ zero_extendqisi2
 685 000a 002B     		cmp	r3, #0
 686 000c 0AD1     		bne	.L21
 161:main.c        ****     {
 162:main.c        ****         if (USBUART_GetConfiguration())
 687              		.loc 1 162 0
 688 000e FFF7FEFF 		bl	USBUART_GetConfiguration
 689 0012 0346     		mov	r3, r0
 690 0014 002B     		cmp	r3, #0
 691 0016 49D0     		beq	.L29
 163:main.c        ****         {
 164:main.c        ****             USBUART_CDC_Init();
 692              		.loc 1 164 0
 693 0018 FFF7FEFF 		bl	USBUART_CDC_Init
 165:main.c        ****             usbStarted = TRUE;
 694              		.loc 1 165 0
 695 001c 254B     		ldr	r3, .L30
 696 001e 0122     		movs	r2, #1
 697 0020 1A70     		strb	r2, [r3]
 166:main.c        ****         }
 167:main.c        ****     }
 168:main.c        ****     else
 169:main.c        ****     {
 170:main.c        ****         if (USBUART_DataIsReady() != 0)
 171:main.c        ****         {  
ARM GAS  C:\Users\ash750\AppData\Local\Temp\ccwQG7di.s 			page 17


 172:main.c        ****             c = USBUART_GetChar();
 173:main.c        **** 
 174:main.c        ****             if ((c == 13) || (c == 10))
 175:main.c        ****             {
 176:main.c        **** //                if (usbBufCount > 0)
 177:main.c        ****                 {
 178:main.c        ****                     entry[usbBufCount]= '\0';
 179:main.c        ****                     strcpy(line,entry);
 180:main.c        ****                     usbBufCount = 0;
 181:main.c        ****                     flag_KB_string = 1;
 182:main.c        ****                 }
 183:main.c        ****             }
 184:main.c        ****             else 
 185:main.c        ****             {
 186:main.c        ****                 if (((c == CHAR_BACKSP) || (c == CHAR_DEL) ) && (usbBufCount > 0) )
 187:main.c        ****                     usbBufCount--;
 188:main.c        ****                 else
 189:main.c        ****                 {
 190:main.c        ****                     if (usbBufCount > (BUF_SIZE-2) ) // one less else strtok triggers a crash
 191:main.c        ****                     {
 192:main.c        ****                        USBUART_PutChar('!');        
 193:main.c        ****                     }
 194:main.c        ****                     else
 195:main.c        ****                         entry[usbBufCount++] = c;  
 196:main.c        ****                 }  
 197:main.c        ****             }
 198:main.c        ****         }
 199:main.c        ****     }    
 200:main.c        **** }
 698              		.loc 1 200 0
 699 0022 43E0     		b	.L29
 700              	.L21:
 170:main.c        ****         {  
 701              		.loc 1 170 0
 702 0024 FFF7FEFF 		bl	USBUART_DataIsReady
 703 0028 0346     		mov	r3, r0
 704 002a 002B     		cmp	r3, #0
 705 002c 3ED0     		beq	.L29
 172:main.c        **** 
 706              		.loc 1 172 0
 707 002e FFF7FEFF 		bl	USBUART_GetChar
 708 0032 0346     		mov	r3, r0
 709 0034 FB71     		strb	r3, [r7, #7]
 174:main.c        ****             {
 710              		.loc 1 174 0
 711 0036 FB79     		ldrb	r3, [r7, #7]	@ zero_extendqisi2
 712 0038 0D2B     		cmp	r3, #13
 713 003a 02D0     		beq	.L24
 174:main.c        ****             {
 714              		.loc 1 174 0 is_stmt 0 discriminator 1
 715 003c FB79     		ldrb	r3, [r7, #7]	@ zero_extendqisi2
 716 003e 0A2B     		cmp	r3, #10
 717 0040 10D1     		bne	.L25
 718              	.L24:
 178:main.c        ****                     strcpy(line,entry);
 719              		.loc 1 178 0 is_stmt 1
 720 0042 1D4B     		ldr	r3, .L30+4
ARM GAS  C:\Users\ash750\AppData\Local\Temp\ccwQG7di.s 			page 18


 721 0044 1B88     		ldrh	r3, [r3]
 722 0046 1A46     		mov	r2, r3
 723 0048 1C4B     		ldr	r3, .L30+8
 724 004a 0021     		movs	r1, #0
 725 004c 9954     		strb	r1, [r3, r2]
 179:main.c        ****                     usbBufCount = 0;
 726              		.loc 1 179 0
 727 004e 1B49     		ldr	r1, .L30+8
 728 0050 1B48     		ldr	r0, .L30+12
 729 0052 FFF7FEFF 		bl	strcpy
 180:main.c        ****                     flag_KB_string = 1;
 730              		.loc 1 180 0
 731 0056 184B     		ldr	r3, .L30+4
 732 0058 0022     		movs	r2, #0
 733 005a 1A80     		strh	r2, [r3]	@ movhi
 181:main.c        ****                 }
 734              		.loc 1 181 0
 735 005c 194B     		ldr	r3, .L30+16
 736 005e 0122     		movs	r2, #1
 737 0060 1A70     		strb	r2, [r3]
 738 0062 23E0     		b	.L23
 739              	.L25:
 186:main.c        ****                     usbBufCount--;
 740              		.loc 1 186 0
 741 0064 FB79     		ldrb	r3, [r7, #7]	@ zero_extendqisi2
 742 0066 082B     		cmp	r3, #8
 743 0068 02D0     		beq	.L26
 186:main.c        ****                     usbBufCount--;
 744              		.loc 1 186 0 is_stmt 0 discriminator 2
 745 006a FB79     		ldrb	r3, [r7, #7]	@ zero_extendqisi2
 746 006c 7F2B     		cmp	r3, #127
 747 006e 0AD1     		bne	.L27
 748              	.L26:
 186:main.c        ****                     usbBufCount--;
 749              		.loc 1 186 0 discriminator 3
 750 0070 114B     		ldr	r3, .L30+4
 751 0072 1B88     		ldrh	r3, [r3]
 752 0074 002B     		cmp	r3, #0
 753 0076 06D0     		beq	.L27
 187:main.c        ****                 else
 754              		.loc 1 187 0 is_stmt 1
 755 0078 0F4B     		ldr	r3, .L30+4
 756 007a 1B88     		ldrh	r3, [r3]
 757 007c 013B     		subs	r3, r3, #1
 758 007e 9AB2     		uxth	r2, r3
 759 0080 0D4B     		ldr	r3, .L30+4
 760 0082 1A80     		strh	r2, [r3]	@ movhi
 761 0084 12E0     		b	.L23
 762              	.L27:
 190:main.c        ****                     {
 763              		.loc 1 190 0
 764 0086 0C4B     		ldr	r3, .L30+4
 765 0088 1B88     		ldrh	r3, [r3]
 766 008a 3E2B     		cmp	r3, #62
 767 008c 03D9     		bls	.L28
 192:main.c        ****                     }
 768              		.loc 1 192 0
ARM GAS  C:\Users\ash750\AppData\Local\Temp\ccwQG7di.s 			page 19


 769 008e 2120     		movs	r0, #33
 770 0090 FFF7FEFF 		bl	USBUART_PutChar
 771              		.loc 1 200 0
 772 0094 0AE0     		b	.L29
 773              	.L28:
 195:main.c        ****                 }  
 774              		.loc 1 195 0
 775 0096 084B     		ldr	r3, .L30+4
 776 0098 1B88     		ldrh	r3, [r3]
 777 009a 5A1C     		adds	r2, r3, #1
 778 009c 91B2     		uxth	r1, r2
 779 009e 064A     		ldr	r2, .L30+4
 780 00a0 1180     		strh	r1, [r2]	@ movhi
 781 00a2 1946     		mov	r1, r3
 782 00a4 054A     		ldr	r2, .L30+8
 783 00a6 FB79     		ldrb	r3, [r7, #7]
 784 00a8 5354     		strb	r3, [r2, r1]
 785              		.loc 1 200 0
 786 00aa FFE7     		b	.L29
 787              	.L23:
 788              	.L29:
 789 00ac 00BF     		nop
 790 00ae 0837     		adds	r7, r7, #8
 791              		.cfi_def_cfa_offset 8
 792 00b0 BD46     		mov	sp, r7
 793              		.cfi_def_cfa_register 13
 794              		@ sp needed
 795 00b2 80BD     		pop	{r7, pc}
 796              	.L31:
 797              		.align	2
 798              	.L30:
 799 00b4 76020000 		.word	usbStarted.7860
 800 00b8 78020000 		.word	usbBufCount.7861
 801 00bc 00000000 		.word	entry
 802 00c0 00000000 		.word	line
 803 00c4 00000000 		.word	flag_KB_string
 804              		.cfi_endproc
 805              	.LFE67:
 806              		.size	handle_usb, .-handle_usb
 807              		.bss
 808              	usbStarted.7860:
 809 0276 00       		.space	1
 810 0277 00       		.align	1
 811              	usbBufCount.7861:
 812 0278 0000     		.space	2
 813              		.text
 814              	.Letext0:
 815              		.file 2 "c:\\program files (x86)\\cypress\\psoc creator\\4.2\\psoc creator\\import\\gnu\\arm\\5.4.
 816              		.file 3 "c:\\program files (x86)\\cypress\\psoc creator\\4.2\\psoc creator\\import\\gnu\\arm\\5.4.
 817              		.file 4 "Generated_Source\\PSoC5/cytypes.h"
 818              		.file 5 "vars.h"
 819              		.file 6 "Generated_Source\\PSoC5/core_cm3.h"